///////////////////////////////////////////////////////////////////////////////
//                                                                            /
// IAR C/C++ Compiler V8.10.1.10194/W32 for 8051        10/Sep/2019  16:23:44 /
// Copyright 2004-2011 IAR Systems AB.                                        /
//                                                                            /
//    Core               =  plain                                             /
//    Code model         =  banked                                            /
//    Data model         =  large                                             /
//    Calling convention =  xdata reentrant                                   /
//    Constant location  =  data_rom                                          /
//    Dptr setup         =  1,16                                              /
//    Source file        =  F:\ZStack-CC2530(2019.09.07)\ZStack-CC2530-2.5.1a /
//                          \Projects\zstack\Samples\SampleApp-Router\Source\ /
//                          SampleApp.c                                       /
//    Command line       =  -f "F:\ZStack-CC2530(2019.09.07)\ZStack-CC2530-2. /
//                          5.1a\Projects\zstack\Samples\SampleApp-Router\CC2 /
//                          530DB\..\..\..\Tools\CC2530DB\f8wRouter.cfg"      /
//                          (-DCPU32MHZ -DROOT=__near_func                    /
//                          -DMAC_CFG_APP_PENDING_QUEUE=TRUE                  /
//                          -DMAC_CFG_TX_DATA_MAX=5 -DMAC_CFG_TX_MAX=8        /
//                          -DMAC_CFG_RX_MAX=5 -DRTR_NWK) -f                  /
//                          "F:\ZStack-CC2530(2019.09.07)\ZStack-CC2530-2.5.1 /
//                          a\Projects\zstack\Samples\SampleApp-Router\CC2530 /
//                          DB\..\..\..\Tools\CC2530DB\f8wConfig.cfg"         /
//                          (-DZIGBEEPRO -DSECURE=0 -DZG_SECURE_DYNAMIC=0     /
//                          -DREFLECTOR -DDEFAULT_CHANLIST=0x02000000         /
//                          -DZDAPP_CONFIG_PAN_ID=0xFFF0                      /
//                          -DNWK_START_DELAY=100 -DEXTENDED_JOINING_RANDOM_M /
//                          ASK=0x007F -DBEACON_REQUEST_DELAY=100             /
//                          -DBEACON_REQ_DELAY_MASK=0x00FF                    /
//                          -DLINK_STATUS_JITTER_MASK=0x007F                  /
//                          -DROUTE_EXPIRY_TIME=30 -DAPSC_ACK_WAIT_DURATION_P /
//                          OLLED=3000 -DNWK_INDIRECT_MSG_TIMEOUT=7           /
//                          -DMAX_RREQ_ENTRIES=8 -DAPSC_MAX_FRAME_RETRIES=3   /
//                          -DNWK_MAX_DATA_RETRIES=2                          /
//                          -DMAX_POLL_FAILURE_RETRIES=2 -DMAX_BCAST=9        /
//                          -DAPS_MAX_GROUPS=16 -DMAX_RTG_ENTRIES=40          /
//                          -DNWK_MAX_BINDING_ENTRIES=4                       /
//                          -DMAX_BINDING_CLUSTER_IDS=4                       /
//                          "-DDEFAULT_KEY={0x01, 0x03, 0x05, 0x07, 0x09,     /
//                          0x0B, 0x0D, 0x0F, 0x00, 0x02, 0x04, 0x06, 0x08,   /
//                          0x0A, 0x0C, 0x0D}" -DMAC_MAX_FRAME_SIZE=116       /
//                          -DZDNWKMGR_MIN_TRANSMISSIONS=20 "-DCONST=const    /
//                          __code" -DGENERIC=__generic                       /
//                          -DRFD_RCVC_ALWAYS_ON=FALSE -DPOLL_RATE=1000       /
//                          -DQUEUED_POLL_RATE=100 -DRESPONSE_POLL_RATE=100)  /
//                          -DREJOIN_POLL_RATE=440 "F:\ZStack-CC2530(2019.09. /
//                          07)\ZStack-CC2530-2.5.1a\Projects\zstack\Samples\ /
//                          SampleApp-Router\Source\SampleApp.c" -D ZTOOL_P1  /
//                          -D MT_TASK -D MT_SYS_FUNC -D MT_ZDO_FUNC -D       /
//                          LCD_SUPPORTED=DEBUG -lC                           /
//                          "F:\ZStack-CC2530(2019.09.07)\ZStack-CC2530-2.5.1 /
//                          a\Projects\zstack\Samples\SampleApp-Router\CC2530 /
//                          DB\RouterEB\List\" -lA "F:\ZStack-CC2530(2019.09. /
//                          07)\ZStack-CC2530-2.5.1a\Projects\zstack\Samples\ /
//                          SampleApp-Router\CC2530DB\RouterEB\List\"         /
//                          --diag_suppress Pe001,Pa010 -o                    /
//                          "F:\ZStack-CC2530(2019.09.07)\ZStack-CC2530-2.5.1 /
//                          a\Projects\zstack\Samples\SampleApp-Router\CC2530 /
//                          DB\RouterEB\Obj\" -e --no_code_motion --debug     /
//                          --core=plain --dptr=16,1 --data_model=large       /
//                          --code_model=banked --calling_convention=xdata_re /
//                          entrant --place_constants=data_rom                /
//                          --nr_virtual_regs 16 -I                           /
//                          "F:\ZStack-CC2530(2019.09.07)\ZStack-CC2530-2.5.1 /
//                          a\Projects\zstack\Samples\SampleApp-Router\CC2530 /
//                          DB\" -I "F:\ZStack-CC2530(2019.09.07)\ZStack-CC25 /
//                          30-2.5.1a\Projects\zstack\Samples\SampleApp-Route /
//                          r\CC2530DB\..\Source\" -I                         /
//                          "F:\ZStack-CC2530(2019.09.07)\ZStack-CC2530-2.5.1 /
//                          a\Projects\zstack\Samples\SampleApp-Router\CC2530 /
//                          DB\..\..\..\ZMain\TI2530DB\" -I                   /
//                          "F:\ZStack-CC2530(2019.09.07)\ZStack-CC2530-2.5.1 /
//                          a\Projects\zstack\Samples\SampleApp-Router\CC2530 /
//                          DB\..\..\..\..\..\Components\hal\include\" -I     /
//                          "F:\ZStack-CC2530(2019.09.07)\ZStack-CC2530-2.5.1 /
//                          a\Projects\zstack\Samples\SampleApp-Router\CC2530 /
//                          DB\..\..\..\..\..\Components\hal\target\CC2530EB\ /
//                          " -I "F:\ZStack-CC2530(2019.09.07)\ZStack-CC2530- /
//                          2.5.1a\Projects\zstack\Samples\SampleApp-Router\C /
//                          C2530DB\..\..\..\..\..\Components\mac\include\"   /
//                          -I "F:\ZStack-CC2530(2019.09.07)\ZStack-CC2530-2. /
//                          5.1a\Projects\zstack\Samples\SampleApp-Router\CC2 /
//                          530DB\..\..\..\..\..\Components\mac\high_level\"  /
//                          -I "F:\ZStack-CC2530(2019.09.07)\ZStack-CC2530-2. /
//                          5.1a\Projects\zstack\Samples\SampleApp-Router\CC2 /
//                          530DB\..\..\..\..\..\Components\mac\low_level\srf /
//                          04\" -I "F:\ZStack-CC2530(2019.09.07)\ZStack-CC25 /
//                          30-2.5.1a\Projects\zstack\Samples\SampleApp-Route /
//                          r\CC2530DB\..\..\..\..\..\Components\mac\low_leve /
//                          l\srf04\single_chip\" -I                          /
//                          "F:\ZStack-CC2530(2019.09.07)\ZStack-CC2530-2.5.1 /
//                          a\Projects\zstack\Samples\SampleApp-Router\CC2530 /
//                          DB\..\..\..\..\..\Components\mt\" -I              /
//                          "F:\ZStack-CC2530(2019.09.07)\ZStack-CC2530-2.5.1 /
//                          a\Projects\zstack\Samples\SampleApp-Router\CC2530 /
//                          DB\..\..\..\..\..\Components\osal\include\" -I    /
//                          "F:\ZStack-CC2530(2019.09.07)\ZStack-CC2530-2.5.1 /
//                          a\Projects\zstack\Samples\SampleApp-Router\CC2530 /
//                          DB\..\..\..\..\..\Components\services\saddr\" -I  /
//                          "F:\ZStack-CC2530(2019.09.07)\ZStack-CC2530-2.5.1 /
//                          a\Projects\zstack\Samples\SampleApp-Router\CC2530 /
//                          DB\..\..\..\..\..\Components\services\sdata\" -I  /
//                          "F:\ZStack-CC2530(2019.09.07)\ZStack-CC2530-2.5.1 /
//                          a\Projects\zstack\Samples\SampleApp-Router\CC2530 /
//                          DB\..\..\..\..\..\Components\stack\af\" -I        /
//                          "F:\ZStack-CC2530(2019.09.07)\ZStack-CC2530-2.5.1 /
//                          a\Projects\zstack\Samples\SampleApp-Router\CC2530 /
//                          DB\..\..\..\..\..\Components\stack\nwk\" -I       /
//                          "F:\ZStack-CC2530(2019.09.07)\ZStack-CC2530-2.5.1 /
//                          a\Projects\zstack\Samples\SampleApp-Router\CC2530 /
//                          DB\..\..\..\..\..\Components\stack\sapi\" -I      /
//                          "F:\ZStack-CC2530(2019.09.07)\ZStack-CC2530-2.5.1 /
//                          a\Projects\zstack\Samples\SampleApp-Router\CC2530 /
//                          DB\..\..\..\..\..\Components\stack\sec\" -I       /
//                          "F:\ZStack-CC2530(2019.09.07)\ZStack-CC2530-2.5.1 /
//                          a\Projects\zstack\Samples\SampleApp-Router\CC2530 /
//                          DB\..\..\..\..\..\Components\stack\sys\" -I       /
//                          "F:\ZStack-CC2530(2019.09.07)\ZStack-CC2530-2.5.1 /
//                          a\Projects\zstack\Samples\SampleApp-Router\CC2530 /
//                          DB\..\..\..\..\..\Components\stack\zdo\" -I       /
//                          "F:\ZStack-CC2530(2019.09.07)\ZStack-CC2530-2.5.1 /
//                          a\Projects\zstack\Samples\SampleApp-Router\CC2530 /
//                          DB\..\..\..\..\..\Components\zmac\" -I            /
//                          "F:\ZStack-CC2530(2019.09.07)\ZStack-CC2530-2.5.1 /
//                          a\Projects\zstack\Samples\SampleApp-Router\CC2530 /
//                          DB\..\..\..\..\..\Components\zmac\f8w\" -Ohz      /
//                          --require_prototypes                              /
//    List file          =  F:\ZStack-CC2530(2019.09.07)\ZStack-CC2530-2.5.1a /
//                          \Projects\zstack\Samples\SampleApp-Router\CC2530D /
//                          B\RouterEB\List\SampleApp.s51                     /
//                                                                            /
//                                                                            /
///////////////////////////////////////////////////////////////////////////////

        NAME SampleApp

        RTMODEL "__SystemLibrary", "CLib"
        RTMODEL "__calling_convention", "xdata_reentrant"
        RTMODEL "__code_model", "banked"
        RTMODEL "__core", "plain"
        RTMODEL "__data_model", "large"
        RTMODEL "__dptr_size", "16"
        RTMODEL "__extended_stack", "disabled"
        RTMODEL "__location_for_constants", "data"
        RTMODEL "__number_of_dptrs", "1"
        RTMODEL "__rt_version", "1"

        RSEG DOVERLAY:DATA:NOROOT(0)
        RSEG IOVERLAY:IDATA:NOROOT(0)
        RSEG ISTACK:IDATA:NOROOT(0)
        RSEG PSTACK:XDATA:NOROOT(0)
        RSEG XSTACK:XDATA:NOROOT(0)

        EXTERN ?ALLOC_XSTACK8
        EXTERN ?BANKED_ENTER_XDATA
        EXTERN ?BANKED_LEAVE_XDATA
        EXTERN ?BDISPATCH
        EXTERN ?BRET
        EXTERN ?DEALLOC_XSTACK8
        EXTERN ?MOVE_LONG8_XDATA_XDATA
        EXTERN ?PUSH_XSTACK_I_ONE
        EXTERN ?PUSH_XSTACK_I_THREE
        EXTERN ?PUSH_XSTACK_I_TWO
        EXTERN ?SS_SHR
        EXTERN ?S_DIV_MOD
        EXTERN ?S_SHL
        EXTERN ?US_DIV_MOD
        EXTERN ?US_SHR
        EXTERN ?US_SWITCH_DENSE
        EXTERN ?V0
        EXTERN ?XSP
        EXTERN ?XSTACK_DISP0_8
        EXTERN __INIT_XDATA_I
        EXTERN __INIT_XDATA_Z

        PUBLIC ??Power_of_2?relay
        FUNCTION ??Power_of_2?relay,0203H
        PUBLIC ??Reset_down_neighbor?relay
        FUNCTION ??Reset_down_neighbor?relay,0203H
        PUBLIC ??SampleApp_HandleKeys?relay
        FUNCTION ??SampleApp_HandleKeys?relay,0203H
        PUBLIC ??SampleApp_Init?relay
        FUNCTION ??SampleApp_Init?relay,0203H
        PUBLIC ??SampleApp_MessageMSGCB?relay
        FUNCTION ??SampleApp_MessageMSGCB?relay,0203H
        PUBLIC ??SampleApp_ProcessEvent?relay
        FUNCTION ??SampleApp_ProcessEvent?relay,0203H
        PUBLIC ??SampleApp_SendFlashMessage?relay
        FUNCTION ??SampleApp_SendFlashMessage?relay,0203H
        PUBLIC ??SampleApp_SendGroupMessage?relay
        FUNCTION ??SampleApp_SendGroupMessage?relay,0203H
        PUBLIC ??SampleApp_SendPeriodicMessage?relay
        FUNCTION ??SampleApp_SendPeriodicMessage?relay,0203H
        PUBLIC ??SampleApp_SendPointToPointMessage?relay
        FUNCTION ??SampleApp_SendPointToPointMessage?relay,0203H
        PUBLIC ??SampleApp_SerialCMD?relay
        FUNCTION ??SampleApp_SerialCMD?relay,0203H
        PUBLIC ??Show_Bit?relay
        FUNCTION ??Show_Bit?relay,0203H
        PUBLIC ??Show_Num?relay
        FUNCTION ??Show_Num?relay,0203H
        PUBLIC ACTIVE
        PUBLIC DATA_SLOT
        PUBLIC Device_ID
        PUBLIC Exchange_Lock
        PUBLIC Exchange_index
        PUBLIC Exchanging_Data
        PUBLIC Exchanging_Neighbor
        PUBLIC Is_AgentNode
        PUBLIC LIFE_TIME
        PUBLIC MAX_Degree
        PUBLIC NEI_NUM
        PUBLIC Nei_Table
        PUBLIC Point_To_Point_DstAddr
        PUBLIC Power_of_2
        FUNCTION Power_of_2,0203H
        ARGFRAME XSTACK, 33, STACK
        ARGFRAME IOVERLAY, 0, STATIC
        ARGFRAME DOVERLAY, 0, STATIC
        PUBLIC Reset_down_neighbor
        FUNCTION Reset_down_neighbor,021203H
        ARGFRAME XSTACK, 33, STACK
        ARGFRAME IOVERLAY, 0, STATIC
        ARGFRAME DOVERLAY, 0, STATIC
        LOCFRAME ISTACK, 2, STACK
        LOCFRAME XSTACK, 21, STACK
        PUBLIC SOURCE_DATA
        PUBLIC SampleAppFlashCounter
        PUBLIC SampleAppPeriodicCounter
        PUBLIC SampleApp_ClusterList
        PUBLIC SampleApp_Flash_DstAddr
        PUBLIC SampleApp_Group
        PUBLIC SampleApp_HandleKeys
        FUNCTION SampleApp_HandleKeys,021203H
        ARGFRAME XSTACK, 12, STACK
        ARGFRAME IOVERLAY, 0, STATIC
        ARGFRAME DOVERLAY, 0, STATIC
        LOCFRAME XSTACK, 10, STACK
        PUBLIC SampleApp_Init
        FUNCTION SampleApp_Init,021203H
        ARGFRAME XSTACK, 0, STACK
        LOCFRAME XSTACK, 14, STACK
        PUBLIC SampleApp_MessageMSGCB
        FUNCTION SampleApp_MessageMSGCB,0a1203H
        ARGFRAME XSTACK, 12, STACK
        ARGFRAME IOVERLAY, 0, STATIC
        ARGFRAME DOVERLAY, 0, STATIC
        LOCFRAME ISTACK, 2, STACK
        LOCFRAME XSTACK, 42, STACK
        PUBLIC SampleApp_NwkState
        PUBLIC SampleApp_Periodic_DstAddr
        PUBLIC SampleApp_ProcessEvent
        FUNCTION SampleApp_ProcessEvent,021203H
        ARGFRAME XSTACK, 0, STACK
        LOCFRAME XSTACK, 12, STACK
        PUBLIC SampleApp_SendFlashMessage
        FUNCTION SampleApp_SendFlashMessage,021203H
        ARGFRAME XSTACK, 0, STACK
        LOCFRAME ISTACK, 1, STACK
        LOCFRAME XSTACK, 22, STACK
        PUBLIC SampleApp_SendGroupMessage
        FUNCTION SampleApp_SendGroupMessage,021203H
        ARGFRAME XSTACK, 12, STACK
        ARGFRAME IOVERLAY, 0, STATIC
        ARGFRAME DOVERLAY, 0, STATIC
        LOCFRAME XSTACK, 19, STACK
        PUBLIC SampleApp_SendPeriodicMessage
        FUNCTION SampleApp_SendPeriodicMessage,021203H
        ARGFRAME XSTACK, 0, STACK
        LOCFRAME XSTACK, 19, STACK
        PUBLIC SampleApp_SendPointToPointMessage
        FUNCTION SampleApp_SendPointToPointMessage,021203H
        ARGFRAME XSTACK, 12, STACK
        ARGFRAME IOVERLAY, 0, STATIC
        ARGFRAME DOVERLAY, 0, STATIC
        LOCFRAME ISTACK, 2, STACK
        LOCFRAME XSTACK, 26, STACK
        PUBLIC SampleApp_SerialCMD
        FUNCTION SampleApp_SerialCMD,021203H
        ARGFRAME XSTACK, 12, STACK
        ARGFRAME IOVERLAY, 0, STATIC
        ARGFRAME DOVERLAY, 0, STATIC
        LOCFRAME XSTACK, 12, STACK
        PUBLIC SampleApp_SimpleDesc
        PUBLIC SampleApp_TaskID
        PUBLIC SampleApp_TransID
        PUBLIC SampleApp_epDesc
        PUBLIC Show_Bit
        FUNCTION Show_Bit,021203H
        ARGFRAME XSTACK, 33, STACK
        ARGFRAME IOVERLAY, 0, STATIC
        ARGFRAME DOVERLAY, 0, STATIC
        LOCFRAME ISTACK, 2, STACK
        LOCFRAME XSTACK, 15, STACK
        PUBLIC Show_Num
        FUNCTION Show_Num,021203H
        ARGFRAME XSTACK, 33, STACK
        ARGFRAME IOVERLAY, 0, STATIC
        ARGFRAME DOVERLAY, 0, STATIC
        LOCFRAME ISTACK, 1, STACK
        LOCFRAME XSTACK, 15, STACK
        PUBLIC Slot_Size
        PUBLIC Waiting_Request
        PUBLIC _TURN
        
        CFI Names cfiNames0
        CFI StackFrame CFA_SP SP IDATA
        CFI StackFrame CFA_PSP16 PSP16 XDATA
        CFI StackFrame CFA_XSP16 XSP16 XDATA
        CFI StaticOverlayFrame CFA_IOVERLAY IOVERLAY
        CFI StaticOverlayFrame CFA_DOVERLAY DOVERLAY
        CFI Resource `PSW.CY`:1, `B.BR0`:1, `B.BR1`:1, `B.BR2`:1, `B.BR3`:1
        CFI Resource `B.BR4`:1, `B.BR5`:1, `B.BR6`:1, `B.BR7`:1, `VB.BR8`:1
        CFI Resource `VB.BR9`:1, `VB.BR10`:1, `VB.BR11`:1, `VB.BR12`:1
        CFI Resource `VB.BR13`:1, `VB.BR14`:1, `VB.BR15`:1, VB:8, B:8, A:8
        CFI Resource PSW:8, DPL0:8, DPH0:8, R0:8, R1:8, R2:8, R3:8, R4:8, R5:8
        CFI Resource R6:8, R7:8, V0:8, V1:8, V2:8, V3:8, V4:8, V5:8, V6:8, V7:8
        CFI Resource V8:8, V9:8, V10:8, V11:8, V12:8, V13:8, V14:8, V15:8, SP:8
        CFI Resource PSPH:8, PSPL:8, PSP16:16, XSPH:8, XSPL:8, XSP16:16
        CFI VirtualResource ?RET:24
        CFI Resource ?BRET_EXT:8
        CFI VirtualResource ?RET_HIGH:8, ?RET_LOW:8
        CFI ResourceParts PSP16 PSPH, PSPL
        CFI ResourceParts XSP16 XSPH, XSPL
        CFI ResourceParts ?RET ?BRET_EXT, ?RET_HIGH, ?RET_LOW
        CFI EndNames cfiNames0
        
        CFI Common cfiCommon0 Using cfiNames0
        CFI CodeAlign 1
        CFI DataAlign -1
        CFI ReturnAddress ?RET CODE
        CFI CFA_DOVERLAY Used
        CFI CFA_IOVERLAY Used
        CFI CFA_SP SP+-3
        CFI CFA_PSP16 PSP16+0
        CFI CFA_XSP16 XSP16+0
        CFI `PSW.CY` SameValue
        CFI `B.BR0` SameValue
        CFI `B.BR1` SameValue
        CFI `B.BR2` SameValue
        CFI `B.BR3` SameValue
        CFI `B.BR4` SameValue
        CFI `B.BR5` SameValue
        CFI `B.BR6` SameValue
        CFI `B.BR7` SameValue
        CFI `VB.BR8` SameValue
        CFI `VB.BR9` SameValue
        CFI `VB.BR10` SameValue
        CFI `VB.BR11` SameValue
        CFI `VB.BR12` SameValue
        CFI `VB.BR13` SameValue
        CFI `VB.BR14` SameValue
        CFI `VB.BR15` SameValue
        CFI VB SameValue
        CFI B Undefined
        CFI A Undefined
        CFI PSW SameValue
        CFI DPL0 SameValue
        CFI DPH0 SameValue
        CFI R0 Undefined
        CFI R1 Undefined
        CFI R2 Undefined
        CFI R3 Undefined
        CFI R4 Undefined
        CFI R5 Undefined
        CFI R6 SameValue
        CFI R7 SameValue
        CFI V0 SameValue
        CFI V1 SameValue
        CFI V2 SameValue
        CFI V3 SameValue
        CFI V4 SameValue
        CFI V5 SameValue
        CFI V6 SameValue
        CFI V7 SameValue
        CFI V8 SameValue
        CFI V9 SameValue
        CFI V10 SameValue
        CFI V11 SameValue
        CFI V12 SameValue
        CFI V13 SameValue
        CFI V14 SameValue
        CFI V15 SameValue
        CFI PSPH Undefined
        CFI PSPL Undefined
        CFI XSPH Undefined
        CFI XSPL Undefined
        CFI ?RET Concat
        CFI ?BRET_EXT Frame(CFA_SP, 3)
        CFI ?RET_HIGH Frame(CFA_SP, 2)
        CFI ?RET_LOW Frame(CFA_SP, 1)
        CFI EndCommon cfiCommon0
        
        
        CFI Common cfiCommon1 Using cfiNames0
        CFI CodeAlign 1
        CFI DataAlign -1
        CFI ReturnAddress ?RET CODE
        CFI CFA_DOVERLAY Used
        CFI CFA_IOVERLAY Used
        CFI CFA_SP SP+-2
        CFI CFA_PSP16 PSP16+0
        CFI CFA_XSP16 XSP16+0
        CFI `PSW.CY` SameValue
        CFI `B.BR0` SameValue
        CFI `B.BR1` SameValue
        CFI `B.BR2` SameValue
        CFI `B.BR3` SameValue
        CFI `B.BR4` SameValue
        CFI `B.BR5` SameValue
        CFI `B.BR6` SameValue
        CFI `B.BR7` SameValue
        CFI `VB.BR8` SameValue
        CFI `VB.BR9` SameValue
        CFI `VB.BR10` SameValue
        CFI `VB.BR11` SameValue
        CFI `VB.BR12` SameValue
        CFI `VB.BR13` SameValue
        CFI `VB.BR14` SameValue
        CFI `VB.BR15` SameValue
        CFI VB SameValue
        CFI B SameValue
        CFI A SameValue
        CFI PSW SameValue
        CFI DPL0 SameValue
        CFI DPH0 SameValue
        CFI R0 SameValue
        CFI R1 SameValue
        CFI R2 SameValue
        CFI R3 SameValue
        CFI R4 SameValue
        CFI R5 SameValue
        CFI R6 SameValue
        CFI R7 SameValue
        CFI V0 SameValue
        CFI V1 SameValue
        CFI V2 SameValue
        CFI V3 SameValue
        CFI V4 SameValue
        CFI V5 SameValue
        CFI V6 SameValue
        CFI V7 SameValue
        CFI V8 SameValue
        CFI V9 SameValue
        CFI V10 SameValue
        CFI V11 SameValue
        CFI V12 SameValue
        CFI V13 SameValue
        CFI V14 SameValue
        CFI V15 SameValue
        CFI PSPH Undefined
        CFI PSPL Undefined
        CFI XSPH Undefined
        CFI XSPL Undefined
        CFI ?RET Concat
        CFI ?BRET_EXT SameValue
        CFI ?RET_HIGH Frame(CFA_SP, 2)
        CFI ?RET_LOW Frame(CFA_SP, 1)
        CFI EndCommon cfiCommon1
        
HalUARTWrite        SYMBOL "HalUARTWrite"
MT_UartInit         SYMBOL "MT_UartInit"
MT_UartRegisterTaskID SYMBOL "MT_UartRegisterTaskID"
afRegister          SYMBOL "afRegister"
RegisterForKeys     SYMBOL "RegisterForKeys"
osal_memcpy         SYMBOL "osal_memcpy"
aps_AddGroup        SYMBOL "aps_AddGroup"
HalLcdWriteString   SYMBOL "HalLcdWriteString"
osal_msg_receive    SYMBOL "osal_msg_receive"
osal_start_timerEx  SYMBOL "osal_start_timerEx"
osal_msg_deallocate SYMBOL "osal_msg_deallocate"
osal_rand           SYMBOL "osal_rand"
AF_DataRequest      SYMBOL "AF_DataRequest"
HalLedBlink         SYMBOL "HalLedBlink"
aps_FindGroup       SYMBOL "aps_FindGroup"
aps_RemoveGroup     SYMBOL "aps_RemoveGroup"
osal_getClock       SYMBOL "osal_getClock"
srand               SYMBOL "srand"
rand                SYMBOL "rand"
??AF_DataRequest?relay SYMBOL "?relay", AF_DataRequest
??HalLcdWriteString?relay SYMBOL "?relay", HalLcdWriteString
??HalLedBlink?relay SYMBOL "?relay", HalLedBlink
??HalUARTWrite?relay SYMBOL "?relay", HalUARTWrite
??MT_UartInit?relay SYMBOL "?relay", MT_UartInit
??MT_UartRegisterTaskID?relay SYMBOL "?relay", MT_UartRegisterTaskID
??RegisterForKeys?relay SYMBOL "?relay", RegisterForKeys
??afRegister?relay  SYMBOL "?relay", afRegister
??aps_AddGroup?relay SYMBOL "?relay", aps_AddGroup
??aps_FindGroup?relay SYMBOL "?relay", aps_FindGroup
??aps_RemoveGroup?relay SYMBOL "?relay", aps_RemoveGroup
??osal_getClock?relay SYMBOL "?relay", osal_getClock
??osal_memcpy?relay SYMBOL "?relay", osal_memcpy
??osal_msg_deallocate?relay SYMBOL "?relay", osal_msg_deallocate
??osal_msg_receive?relay SYMBOL "?relay", osal_msg_receive
??osal_rand?relay   SYMBOL "?relay", osal_rand
??osal_start_timerEx?relay SYMBOL "?relay", osal_start_timerEx
??rand?relay        SYMBOL "?relay", rand
??srand?relay       SYMBOL "?relay", srand
Power_of_2          SYMBOL "Power_of_2"
??Power_of_2?relay  SYMBOL "?relay", Power_of_2
Reset_down_neighbor SYMBOL "Reset_down_neighbor"
??Reset_down_neighbor?relay SYMBOL "?relay", Reset_down_neighbor
SampleApp_HandleKeys SYMBOL "SampleApp_HandleKeys"
??SampleApp_HandleKeys?relay SYMBOL "?relay", SampleApp_HandleKeys
SampleApp_Init      SYMBOL "SampleApp_Init"
??SampleApp_Init?relay SYMBOL "?relay", SampleApp_Init
SampleApp_MessageMSGCB SYMBOL "SampleApp_MessageMSGCB"
??SampleApp_MessageMSGCB?relay SYMBOL "?relay", SampleApp_MessageMSGCB
SampleApp_ProcessEvent SYMBOL "SampleApp_ProcessEvent"
??SampleApp_ProcessEvent?relay SYMBOL "?relay", SampleApp_ProcessEvent
SampleApp_SendFlashMessage SYMBOL "SampleApp_SendFlashMessage"
??SampleApp_SendFlashMessage?relay SYMBOL "?relay", SampleApp_SendFlashMessage
SampleApp_SendGroupMessage SYMBOL "SampleApp_SendGroupMessage"
??SampleApp_SendGroupMessage?relay SYMBOL "?relay", SampleApp_SendGroupMessage
SampleApp_SendPeriodicMessage SYMBOL "SampleApp_SendPeriodicMessage"
??SampleApp_SendPeriodicMessage?relay SYMBOL "?relay", SampleApp_SendPeriodicMessage
SampleApp_SendPointToPointMessage SYMBOL "SampleApp_SendPointToPointMessage"
??SampleApp_SendPointToPointMessage?relay SYMBOL "?relay", SampleApp_SendPointToPointMessage
SampleApp_SerialCMD SYMBOL "SampleApp_SerialCMD"
??SampleApp_SerialCMD?relay SYMBOL "?relay", SampleApp_SerialCMD
Show_Bit            SYMBOL "Show_Bit"
??Show_Bit?relay    SYMBOL "?relay", Show_Bit
Show_Num            SYMBOL "Show_Num"
??Show_Num?relay    SYMBOL "?relay", Show_Num

        EXTERN HalUARTWrite
        FUNCTION HalUARTWrite,0202H
        ARGFRAME ISTACK, 0, STACK
        ARGFRAME PSTACK, 0, STACK
        ARGFRAME XSTACK, 33, STACK
        ARGFRAME IOVERLAY, 0, STATIC
        ARGFRAME DOVERLAY, 0, STATIC
        EXTERN MT_UartInit
        FUNCTION MT_UartInit,0202H
        ARGFRAME ISTACK, 0, STACK
        ARGFRAME PSTACK, 0, STACK
        ARGFRAME XSTACK, 11, STACK
        ARGFRAME IOVERLAY, 0, STATIC
        ARGFRAME DOVERLAY, 0, STATIC
        EXTERN MT_UartRegisterTaskID
        FUNCTION MT_UartRegisterTaskID,0202H
        ARGFRAME ISTACK, 0, STACK
        ARGFRAME PSTACK, 0, STACK
        ARGFRAME XSTACK, 11, STACK
        ARGFRAME IOVERLAY, 0, STATIC
        ARGFRAME DOVERLAY, 0, STATIC
        EXTERN afRegister
        FUNCTION afRegister,0202H
        ARGFRAME ISTACK, 0, STACK
        ARGFRAME PSTACK, 0, STACK
        ARGFRAME XSTACK, 11, STACK
        ARGFRAME IOVERLAY, 0, STATIC
        ARGFRAME DOVERLAY, 0, STATIC
        EXTERN RegisterForKeys
        FUNCTION RegisterForKeys,0202H
        ARGFRAME ISTACK, 0, STACK
        ARGFRAME PSTACK, 0, STACK
        ARGFRAME XSTACK, 11, STACK
        ARGFRAME IOVERLAY, 0, STATIC
        ARGFRAME DOVERLAY, 0, STATIC
        EXTERN osal_memcpy
        FUNCTION osal_memcpy,0202H
        ARGFRAME ISTACK, 0, STACK
        ARGFRAME PSTACK, 0, STACK
        ARGFRAME XSTACK, 14, STACK
        ARGFRAME IOVERLAY, 0, STATIC
        ARGFRAME DOVERLAY, 0, STATIC
        EXTERN aps_AddGroup
        FUNCTION aps_AddGroup,0202H
        ARGFRAME ISTACK, 0, STACK
        ARGFRAME PSTACK, 0, STACK
        ARGFRAME XSTACK, 11, STACK
        ARGFRAME IOVERLAY, 0, STATIC
        ARGFRAME DOVERLAY, 0, STATIC
        EXTERN HalLcdWriteString
        FUNCTION HalLcdWriteString,0202H
        ARGFRAME ISTACK, 0, STACK
        ARGFRAME PSTACK, 0, STACK
        ARGFRAME XSTACK, 11, STACK
        ARGFRAME IOVERLAY, 0, STATIC
        ARGFRAME DOVERLAY, 0, STATIC
        EXTERN osal_msg_receive
        FUNCTION osal_msg_receive,0202H
        ARGFRAME ISTACK, 0, STACK
        ARGFRAME PSTACK, 0, STACK
        ARGFRAME XSTACK, 12, STACK
        ARGFRAME IOVERLAY, 0, STATIC
        ARGFRAME DOVERLAY, 0, STATIC
        EXTERN osal_start_timerEx
        FUNCTION osal_start_timerEx,0202H
        ARGFRAME ISTACK, 0, STACK
        ARGFRAME PSTACK, 0, STACK
        ARGFRAME XSTACK, 12, STACK
        ARGFRAME IOVERLAY, 0, STATIC
        ARGFRAME DOVERLAY, 0, STATIC
        EXTERN osal_msg_deallocate
        FUNCTION osal_msg_deallocate,0202H
        ARGFRAME ISTACK, 0, STACK
        ARGFRAME PSTACK, 0, STACK
        ARGFRAME XSTACK, 12, STACK
        ARGFRAME IOVERLAY, 0, STATIC
        ARGFRAME DOVERLAY, 0, STATIC
        EXTERN osal_rand
        FUNCTION osal_rand,0202H
        ARGFRAME ISTACK, 0, STACK
        ARGFRAME PSTACK, 0, STACK
        ARGFRAME XSTACK, 12, STACK
        ARGFRAME IOVERLAY, 0, STATIC
        ARGFRAME DOVERLAY, 0, STATIC
        EXTERN AF_DataRequest
        FUNCTION AF_DataRequest,0202H
        ARGFRAME ISTACK, 0, STACK
        ARGFRAME PSTACK, 0, STACK
        ARGFRAME XSTACK, 42, STACK
        ARGFRAME IOVERLAY, 0, STATIC
        ARGFRAME DOVERLAY, 0, STATIC
        EXTERN HalLedBlink
        FUNCTION HalLedBlink,0202H
        ARGFRAME ISTACK, 0, STACK
        ARGFRAME PSTACK, 0, STACK
        ARGFRAME XSTACK, 33, STACK
        ARGFRAME IOVERLAY, 0, STATIC
        ARGFRAME DOVERLAY, 0, STATIC
        EXTERN aps_FindGroup
        FUNCTION aps_FindGroup,0202H
        ARGFRAME ISTACK, 0, STACK
        ARGFRAME PSTACK, 0, STACK
        ARGFRAME XSTACK, 10, STACK
        ARGFRAME IOVERLAY, 0, STATIC
        ARGFRAME DOVERLAY, 0, STATIC
        EXTERN aps_RemoveGroup
        FUNCTION aps_RemoveGroup,0202H
        ARGFRAME ISTACK, 0, STACK
        ARGFRAME PSTACK, 0, STACK
        ARGFRAME XSTACK, 10, STACK
        ARGFRAME IOVERLAY, 0, STATIC
        ARGFRAME DOVERLAY, 0, STATIC
        EXTERN Onboard_soft_reset
        FUNCTION Onboard_soft_reset,0202H
        ARGFRAME ISTACK, 0, STACK
        ARGFRAME PSTACK, 0, STACK
        ARGFRAME XSTACK, 33, STACK
        ARGFRAME IOVERLAY, 0, STATIC
        ARGFRAME DOVERLAY, 0, STATIC
        EXTERN osal_getClock
        FUNCTION osal_getClock,0202H
        ARGFRAME ISTACK, 0, STACK
        ARGFRAME PSTACK, 0, STACK
        ARGFRAME XSTACK, 33, STACK
        ARGFRAME IOVERLAY, 0, STATIC
        ARGFRAME DOVERLAY, 0, STATIC
        EXTERN srand
        FUNCTION srand,010202H
        ARGFRAME ISTACK, 0, STACK
        ARGFRAME PSTACK, 0, STACK
        ARGFRAME XSTACK, 33, STACK
        ARGFRAME IOVERLAY, 0, STATIC
        ARGFRAME DOVERLAY, 0, STATIC
        EXTERN rand
        FUNCTION rand,010202H
        ARGFRAME ISTACK, 0, STACK
        ARGFRAME PSTACK, 0, STACK
        ARGFRAME XSTACK, 33, STACK
        ARGFRAME IOVERLAY, 0, STATIC
        ARGFRAME DOVERLAY, 0, STATIC
        EXTERN ??AF_DataRequest?relay
        FUNCTION ??AF_DataRequest?relay,00H
        EXTERN ??HalLcdWriteString?relay
        FUNCTION ??HalLcdWriteString?relay,00H
        EXTERN ??HalLedBlink?relay
        FUNCTION ??HalLedBlink?relay,00H
        EXTERN ??HalUARTWrite?relay
        FUNCTION ??HalUARTWrite?relay,00H
        EXTERN ??MT_UartInit?relay
        FUNCTION ??MT_UartInit?relay,00H
        EXTERN ??MT_UartRegisterTaskID?relay
        FUNCTION ??MT_UartRegisterTaskID?relay,00H
        EXTERN ??RegisterForKeys?relay
        FUNCTION ??RegisterForKeys?relay,00H
        EXTERN ??afRegister?relay
        FUNCTION ??afRegister?relay,00H
        EXTERN ??aps_AddGroup?relay
        FUNCTION ??aps_AddGroup?relay,00H
        EXTERN ??aps_FindGroup?relay
        FUNCTION ??aps_FindGroup?relay,00H
        EXTERN ??aps_RemoveGroup?relay
        FUNCTION ??aps_RemoveGroup?relay,00H
        EXTERN ??osal_getClock?relay
        FUNCTION ??osal_getClock?relay,00H
        EXTERN ??osal_memcpy?relay
        FUNCTION ??osal_memcpy?relay,00H
        EXTERN ??osal_msg_deallocate?relay
        FUNCTION ??osal_msg_deallocate?relay,00H
        EXTERN ??osal_msg_receive?relay
        FUNCTION ??osal_msg_receive?relay,00H
        EXTERN ??osal_rand?relay
        FUNCTION ??osal_rand?relay,00H
        EXTERN ??osal_start_timerEx?relay
        FUNCTION ??osal_start_timerEx?relay,00H
        EXTERN ??rand?relay
        FUNCTION ??rand?relay,00H
        EXTERN ??srand?relay
        FUNCTION ??srand?relay,00H

// F:\ZStack-CC2530(2019.09.07)\ZStack-CC2530-2.5.1a\Projects\zstack\Samples\SampleApp-Router\Source\SampleApp.c
//    1 /**************************************************************************************************
//    2   Filename:       SampleApp.c
//    3   Revised:        $Date: 2009-03-18 15:56:27 -0700 (Wed, 18 Mar 2009) $
//    4   Revision:       $Revision: 19453 $
//    5 
//    6   Description:    Router普通路由器节点
//    7 
//    8 
//    9   Copyright 2007 Texas Instruments Incorporated. All rights reserved.
//   10 
//   11   IMPORTANT: Your use of this Software is limited to those specific rights
//   12   granted under the terms of a software license agreement between the user
//   13   who downloaded the software, his/her employer (which must be your employer)
//   14   and Texas Instruments Incorporated (the "License").  You may not use this
//   15   Software unless you agree to abide by the terms of the License. The License
//   16   limits your use, and you acknowledge, that the Software may not be modified,
//   17   copied or distributed unless embedded on a Texas Instruments microcontroller
//   18   or used solely and exclusively in conjunction with a Texas Instruments radio
//   19   frequency transceiver, which is integrated into your product.  Other than for
//   20   the foregoing purpose, you may not use, reproduce, copy, prepare derivative
//   21   works of, modify, distribute, perform, display or sell this Software and/or
//   22   its documentation for any purpose.
//   23 
//   24   YOU FURTHER ACKNOWLEDGE AND AGREE THAT THE SOFTWARE AND DOCUMENTATION ARE
//   25   PROVIDED AS IS?WITHOUT WARRANTY OF ANY KIND, EITHER EXPRESS OR IMPLIED,
//   26   INCLUDING WITHOUT LIMITATION, ANY WARRANTY OF MERCHANTABILITY, TITLE,
//   27   NON-INFRINGEMENT AND FITNESS FOR A PARTICULAR PURPOSE. IN NO EVENT SHALL
//   28   TEXAS INSTRUMENTS OR ITS LICENSORS BE LIABLE OR OBLIGATED UNDER CONTRACT,
//   29   NEGLIGENCE, STRICT LIABILITY, CONTRIBUTION, BREACH OF WARRANTY, OR OTHER
//   30   LEGAL EQUITABLE THEORY ANY DIRECT OR INDIRECT DAMAGES OR EXPENSES
//   31   INCLUDING BUT NOT LIMITED TO ANY INCIDENTAL, SPECIAL, INDIRECT, PUNITIVE
//   32   OR CONSEQUENTIAL DAMAGES, LOST PROFITS OR LOST DATA, COST OF PROCUREMENT
//   33   OF SUBSTITUTE GOODS, TECHNOLOGY, SERVICES, OR ANY CLAIMS BY THIRD PARTIES
//   34   (INCLUDING BUT NOT LIMITED TO ANY DEFENSE THEREOF), OR OTHER SIMILAR COSTS.
//   35 
//   36   Should you have any questions regarding your right to use this Software,
//   37   contact Texas Instruments Incorporated at www.TI.com.
//   38 **************************************************************************************************/
//   39 
//   40 /*********************************************************************
//   41   This application isn't intended to do anything useful, it is
//   42   intended to be a simple example of an application's structure.
//   43 
//   44   This application sends it's messages either as broadcast or
//   45   broadcast filtered group messages.  The other (more normal)
//   46   message addressing is unicast.  Most of the other sample
//   47   applications are written to support the unicast message model.
//   48 
//   49   Key control:
//   50     SW1:  Sends a flash command to all devices in Group 1.
//   51     SW2:  Adds/Removes (toggles) this device in and out
//   52           of Group 1.  This will enable and disable the
//   53           reception of the flash command.
//   54 *********************************************************************/
//   55 
//   56 /*********************************************************************
//   57  * INCLUDES
//   58  */
//   59 #include "OSAL.h"
//   60 #include "ZGlobals.h"
//   61 #include "AF.h"
//   62 #include "aps_groups.h"
//   63 #include "ZDApp.h"
//   64 #include "MT.h"  //透传中CMD_SERIAL_MSG的定义
//   65 
//   66 #include "SampleApp.h"
//   67 #include "SampleAppHw.h"
//   68 
//   69 #include "OnBoard.h"
//   70 #include "string.h"
//   71 
//   72 /* HAL */
//   73 #include "hal_lcd.h"
//   74 #include "hal_led.h"
//   75 #include "hal_key.h"
//   76 
//   77 extern uint16 NLME_GetShortAddr( void ); //获取自身短地址
//   78 extern void NLME_UpdateLinkStatus( void ); //更新连接状态
//   79 
//   80 
//   81 /*********************************************************************
//   82  * CONSTANTS
//   83  */
//   84 //用户引入的头文件
//   85 #include "MT_UART.h"
//   86 #include <stdio.h>
//   87 #include "nwk_util.h"
//   88 #include <stdlib.h>
//   89 #include "OSAL_Clock.h"
//   90 #include <math.h>
//   91 
//   92 
//   93 /*********** 注意: 每个设备不一样,记得修改!  **********/
//   94 
//   95 
//   96 //uint8 SOURCE_DATA = 1<<0;    //采集的数据 1
//   97 //uint8 Device_ID  = 0;    //设备ID
//   98 
//   99 //uint8 SOURCE_DATA = 1<<1;    //采集的数据 2l
//  100 //uint8 Device_ID  = 1;    //设备ID
//  101 
//  102 //uint8 SOURCE_DATA = 1<<2;    //采集的数据 3
//  103 //uint8 Device_ID  = 2;    //设备ID
//  104 

        RSEG XDATA_I:XDATA:NOROOT(0)
//  105 uint8 SOURCE_DATA = 1<<3;      //采集的数据 4
SOURCE_DATA:
        DATA8
        DS 1
        REQUIRE `?<Initializer for SOURCE_DATA>`
        REQUIRE __INIT_XDATA_I

        RSEG XDATA_I:XDATA:NOROOT(0)
//  106 uint8 Device_ID  = 3;      //设备ID
Device_ID:
        DATA8
        DS 1
        REQUIRE `?<Initializer for Device_ID>`
        REQUIRE __INIT_XDATA_I
//  107 
//  108 
//  109 /*********************************************************************
//  110  * MACROS
//  111  */
//  112 #define random(x) (rand() % x)
//  113 #define uchar unsigned char
//  114 #define Node_Num uint8 3  //网络中节点的数量
//  115 
//  116 
//  117 /*********************************************************************
//  118  * TYPEDEFS
//  119  */
//  120 /*<><><><><><><><><><><><><><><><><><><><><><><><><><><><><><><><><><><><><><><><><><><><>
//  121  * GLOBAL VARIABLES 全局变量
//  122  */

        RSEG XDATA_I:XDATA:NOROOT(0)
//  123 int8 LIFE_TIME=5;               //邻居活跃度初始值
LIFE_TIME:
        DATA8
        DS 1
        REQUIRE `?<Initializer for LIFE_TIME>`
        REQUIRE __INIT_XDATA_I

        RSEG XDATA_Z:XDATA:NOROOT(0)
        DATA8
//  124 int8 NEI_NUM = 0;               //邻居数量
NEI_NUM:
        DS 1
        REQUIRE __INIT_XDATA_Z

        RSEG XDATA_Z:XDATA:NOROOT(0)
        DATA8
//  125 int16 Nei_Table[3] = {0};       //邻居表
Nei_Table:
        DS 6
        REQUIRE __INIT_XDATA_Z

        RSEG XDATA_Z:XDATA:NOROOT(0)
        DATA8
//  126 unsigned short ACTIVE[3] = {0}; //邻居活跃度列表
ACTIVE:
        DS 6
        REQUIRE __INIT_XDATA_Z

        RSEG XDATA_Z:XDATA:NOROOT(0)
        DATA8
//  127 int8 _TURN = 0;                 //发送轮次控制
_TURN:
        DS 1
        REQUIRE __INIT_XDATA_Z
//  128 
//  129 
//  130 /*#######################以下是Router节点的配置############################*/
//  131 
//  132 /*一个码字的组成*/
//  133 typedef struct Encoded_PKT  //编码过的码字
//  134 {
//  135     /*数据域*/
//  136     short data; //码字数据
//  137     /*编码信息,由哪几个节点的数据包组成*/
//  138     uint16 Degree_ID;
//  139 }PKT;
//  140 
//  141 

        RSEG XDATA_ROM_C:CONST:REORDER:NOROOT(0)
        DATA16
//  142 const int Slot_Size = 6;        //码字槽大小
Slot_Size:
        DW 6
//  143 

        RSEG XDATA_Z:XDATA:NOROOT(0)
        DATA8
//  144 PKT DATA_SLOT[5+1];             //码字结构体数组,0位保存自身数据,用1-5位来进行码字交换
DATA_SLOT:
        DS 24
        REQUIRE __INIT_XDATA_Z
//  145 
//  146 

        RSEG XDATA_I:XDATA:NOROOT(0)
//  147 unsigned short MAX_Degree = 1;  //初始化允许的最大度
MAX_Degree:
        DATA16
        DS 2
        REQUIRE `?<Initializer for MAX_Degree>`
        REQUIRE __INIT_XDATA_I
//  148 //uint8 Decoded_X[100] = {0};     //初始化已解码的码字数组
//  149 //uint8 Undecoded_Y[100] = {0};   //初始化未解码的复杂码字数组

        RSEG XDATA_Z:XDATA:NOROOT(0)
        DATA16
//  150 int16 Exchanging_Neighbor;      //待进行码字交换的邻居
Exchanging_Neighbor:
        DS 2
        REQUIRE __INIT_XDATA_Z

        RSEG XDATA_Z:XDATA:NOROOT(0)
        DATA8
//  151 uint8 Exchanging_Data;          //待交换的码字
Exchanging_Data:
        DS 1
        REQUIRE __INIT_XDATA_Z

        RSEG XDATA_Z:XDATA:NOROOT(0)
        DATA8
//  152 uint8 Exchange_index;           //待交换的码字的索引
Exchange_index:
        DS 1
        REQUIRE __INIT_XDATA_Z
//  153 

        RSEG XDATA_Z:XDATA:NOROOT(0)
        DATA8
//  154 uint8 Waiting_Request = FALSE;   //是否在等待对方返回交换的数据包回应
Waiting_Request:
        DS 1
        REQUIRE __INIT_XDATA_Z

        RSEG XDATA_Z:XDATA:NOROOT(0)
        DATA8
//  155 uint8 Exchange_Lock = FALSE;     //码字槽操作锁
Exchange_Lock:
        DS 1
        REQUIRE __INIT_XDATA_Z

        RSEG XDATA_Z:XDATA:NOROOT(0)
        DATA16
//  156 unsigned short Is_AgentNode = FALSE; //是否是代理节点
Is_AgentNode:
        DS 2
        REQUIRE __INIT_XDATA_Z
//  157 /*<><><><><><><><><><><><><><><><><><><><><><><><><><><><><><><><><><><><><><><><><><><><>
//  158 * end
//  159 */
//  160 
//  161 
//  162 
//  163 
//  164 // This list should be filled with Application specific Cluster IDs.

        RSEG XDATA_ROM_C:CONST:REORDER:NOROOT(0)
        DATA8
//  165 const cId_t SampleApp_ClusterList[SAMPLEAPP_MAX_CLUSTERS] =
SampleApp_ClusterList:
        DATA16
        DW 1
        DW 2
        DW 0
        DW 0
//  166 {
//  167   SAMPLEAPP_PERIODIC_CLUSTERID,
//  168   SAMPLEAPP_FLASH_CLUSTERID
//  169 };
//  170 

        RSEG XDATA_ROM_C:CONST:REORDER:NOROOT(0)
        DATA8
//  171 const SimpleDescriptionFormat_t SampleApp_SimpleDesc =
SampleApp_SimpleDesc:
        DB 20
        DATA16
        DW 3848
        DW 1
        DATA8
        DB 0
        DB 4
        DATA16
        DW SampleApp_ClusterList
        DATA8
        DB 4
        DATA16
        DW SampleApp_ClusterList
//  172 {
//  173   SAMPLEAPP_ENDPOINT,              //  int Endpoint;
//  174   SAMPLEAPP_PROFID,                //  uint16 AppProfId[2];
//  175   SAMPLEAPP_DEVICEID,              //  uint16 AppDeviceId[2];
//  176   SAMPLEAPP_DEVICE_VERSION,        //  int   AppDevVer:4;
//  177   SAMPLEAPP_FLAGS,                 //  int   AppFlags:4;
//  178   SAMPLEAPP_MAX_CLUSTERS,          //  uint8  AppNumInClusters;
//  179   (cId_t *)SampleApp_ClusterList,  //  uint8 *pAppInClusterList;
//  180   SAMPLEAPP_MAX_CLUSTERS,          //  uint8  AppNumInClusters;
//  181   (cId_t *)SampleApp_ClusterList   //  uint8 *pAppInClusterList;
//  182 };
//  183 
//  184 // This is the Endpoint/Interface description.  It is defined here, but
//  185 // filled-in in SampleApp_Init().  Another way to go would be to fill
//  186 // in the structure here and make it a "const" (in code space).  The
//  187 // way it's defined in this sample app it is define in RAM.

        RSEG XDATA_Z:XDATA:NOROOT(0)
        DATA8
//  188 endPointDesc_t SampleApp_epDesc;
SampleApp_epDesc:
        DS 6
        REQUIRE __INIT_XDATA_Z
//  189 
//  190 /*********************************************************************
//  191  * EXTERNAL VARIABLES
//  192  */
//  193 
//  194 /*********************************************************************
//  195  * EXTERNAL FUNCTIONS
//  196  */
//  197 
//  198 /*********************************************************************
//  199  * LOCAL VARIABLES
//  200  */

        RSEG XDATA_Z:XDATA:NOROOT(0)
        DATA8
//  201 uint8 SampleApp_TaskID;   // Task ID for internal task/event processing
SampleApp_TaskID:
        DS 1
        REQUIRE __INIT_XDATA_Z
//  202                           // This variable will be received when
//  203                           // SampleApp_Init() is called.

        RSEG XDATA_Z:XDATA:NOROOT(0)
        DATA8
//  204 devStates_t SampleApp_NwkState;
SampleApp_NwkState:
        DS 1
        REQUIRE __INIT_XDATA_Z
//  205 

        RSEG XDATA_Z:XDATA:NOROOT(0)
        DATA8
//  206 uint8 SampleApp_TransID;  // This is the unique message ID (counter)
SampleApp_TransID:
        DS 1
        REQUIRE __INIT_XDATA_Z
//  207 

        RSEG XDATA_Z:XDATA:NOROOT(0)
        DATA8
//  208 afAddrType_t SampleApp_Periodic_DstAddr;
SampleApp_Periodic_DstAddr:
        DS 12
        REQUIRE __INIT_XDATA_Z

        RSEG XDATA_Z:XDATA:NOROOT(0)
        DATA8
//  209 afAddrType_t SampleApp_Flash_DstAddr; //组播
SampleApp_Flash_DstAddr:
        DS 12
        REQUIRE __INIT_XDATA_Z
//  210 

        RSEG XDATA_Z:XDATA:NOROOT(0)
        DATA8
//  211 afAddrType_t Point_To_Point_DstAddr; //WeBee点对点通信定义
Point_To_Point_DstAddr:
        DS 12
        REQUIRE __INIT_XDATA_Z
//  212 

        RSEG XDATA_Z:XDATA:NOROOT(0)
        DATA8
//  213 aps_Group_t SampleApp_Group; //分组内容
SampleApp_Group:
        DS 18
        REQUIRE __INIT_XDATA_Z
//  214 

        RSEG XDATA_Z:XDATA:NOROOT(0)
        DATA8
//  215 uint8 SampleAppPeriodicCounter = 0;
SampleAppPeriodicCounter:
        DS 1
        REQUIRE __INIT_XDATA_Z

        RSEG XDATA_Z:XDATA:NOROOT(0)
        DATA8
//  216 uint8 SampleAppFlashCounter = 0;
SampleAppFlashCounter:
        DS 1
        REQUIRE __INIT_XDATA_Z
//  217 
//  218 /*********************************************************************
//  219  * LOCAL FUNCTIONS     函数声明
//  220  */
//  221 void SampleApp_HandleKeys( uint8 shift, uint8 keys );
//  222 void SampleApp_MessageMSGCB( afIncomingMSGPacket_t *pckt );
//  223 void SampleApp_SendPeriodicMessage( void );
//  224 void SampleApp_SendFlashMessage( uint16 flashTime );
//  225 void SampleApp_SerialCMD(mtOSALSerialData_t *cmdMsg); // 串口通信
//  226 void SampleApp_SendPointToPointMessage( void ); //点对点
//  227 void SampleApp_SendGroupMessage( void );// 网蜂组播通讯发送函数定义
//  228 void Reset_down_neighbor(int16 nei_addr); //重置邻居设备函数
//  229 void Show_Bit(uint16 X, uint8 N); //串口打印一个8位比特二进制数字
//  230 void Show_Num(uint16 X);  //串口打印8bit数字
//  231 uint16 Power_of_2(uint8 X);
//  232 /*********************************************************************
//  233  * NETWORK LAYER CALLBACKS
//  234  */
//  235 
//  236 /*********************************************************************
//  237  * PUBLIC FUNCTIONS
//  238  */
//  239 

        RSEG BANKED_CODE:CODE:NOROOT(0)
//  240 void Show_Bit( uint16 X, uint8 N )
Show_Bit:
        CFI Block cfiBlock0 Using cfiCommon0
        CFI Function Show_Bit
        CODE
//  241 {
        FUNCALL Show_Bit, HalUARTWrite
        LOCFRAME ISTACK, 0, STACK
        LOCFRAME PSTACK, 0, STACK
        LOCFRAME XSTACK, 15, STACK
        LOCFRAME IOVERLAY, 0, STATIC
        LOCFRAME DOVERLAY, 0, STATIC
        ARGFRAME ISTACK, 0, STACK
        ARGFRAME PSTACK, 0, STACK
        ARGFRAME XSTACK, 15, STACK
        ARGFRAME IOVERLAY, 0, STATIC
        ARGFRAME DOVERLAY, 0, STATIC
        MOV     A,#-0xd
        LCALL   ?BANKED_ENTER_XDATA
        CFI DPH0 load(1, XDATA, add(CFA_XSP16, literal(-1)))
        CFI DPL0 load(1, XDATA, add(CFA_XSP16, literal(-2)))
        CFI ?BRET_EXT load(1, XDATA, add(CFA_XSP16, literal(-3)))
        CFI ?RET_HIGH load(1, XDATA, add(CFA_XSP16, literal(-4)))
        CFI ?RET_LOW load(1, XDATA, add(CFA_XSP16, literal(-5)))
        CFI R7 load(1, XDATA, add(CFA_XSP16, literal(-6)))
        CFI V4 load(1, XDATA, add(CFA_XSP16, literal(-7)))
        CFI V3 load(1, XDATA, add(CFA_XSP16, literal(-8)))
        CFI V2 load(1, XDATA, add(CFA_XSP16, literal(-9)))
        CFI V1 load(1, XDATA, add(CFA_XSP16, literal(-10)))
        CFI V0 load(1, XDATA, add(CFA_XSP16, literal(-11)))
        CFI VB load(1, XDATA, add(CFA_XSP16, literal(-12)))
        CFI R6 load(1, XDATA, add(CFA_XSP16, literal(-13)))
        CFI CFA_SP SP+0
        CFI CFA_XSP16 add(XSP16, 13)
        ; Saved register size: 13
        ; Auto size: 2
        MOV     A,#-0x2
        LCALL   ?ALLOC_XSTACK8
        CFI CFA_XSP16 add(XSP16, 15)
        MOV     ?V0 + 0,R2
        MOV     ?V0 + 1,R3
//  242   uchar Bit[2] = {'0','1'};
        MOV     DPL,?XSP + 0
        MOV     DPH,?XSP + 1
        MOV     R4,DPL
        MOV     R5,DPH
        MOV     DPH,#(`?<Constant {48, 49}>` >> 8) & 0xff
        MOV     DPL,#`?<Constant {48, 49}>` & 0xff
        MOV     A,#0x2
        LCALL   ?MOVE_LONG8_XDATA_XDATA
//  243   uint8 index;
//  244   for(short j=N-1;j>=0;--j)
        MOV     A,R1
        ADD     A,#-0x1
        MOV     R6,A
        CLR     A
        SJMP    ??Show_Bit_0
//  245   {
//  246     index = (X>>j) & 1;
//  247     HalUARTWrite(0,&Bit[index],1);
??Show_Bit_1:
        ; Setup parameters for call to function HalUARTWrite
        MOV     R4,#0x1
        MOV     R5,#0x0
        MOV     ?V0 + 2,?V0 + 0
        MOV     ?V0 + 3,?V0 + 1
        MOV     A,R6
        MOV     R0,#?V0 + 2
        LCALL   ?US_SHR
        MOV     A,?V0 + 2
        ANL     A,#0x1
        MOV     R0,A
        MOV     DPL,?XSP + 0
        MOV     DPH,?XSP + 1
        MOV     A,DPL
        ADD     A,R0
        MOV     R2,A
        MOV     A,DPH
        LCALL   ?Subroutine11 & 0xFFFF
//  248   }
??CrossCallReturnLabel_21:
        MOV     A,R6
        ADD     A,#-0x1
        DEC     R6
        MOV     A,R7
??Show_Bit_0:
        ADDC    A,#-0x1
        MOV     R7,A
        CLR     C
        MOV     A,R7
        LCALL   ??Subroutine72_0 & 0xFFFF
??CrossCallReturnLabel_148:
        JNC     ??Show_Bit_1
//  249 //  HalUARTWrite(0,"\n",1);
//  250 }
        MOV     A,#0x2
        LCALL   ?DEALLOC_XSTACK8
        CFI CFA_XSP16 add(XSP16, 13)
        MOV     R7,#0x5
        LJMP    ?BANKED_LEAVE_XDATA
        CFI EndBlock cfiBlock0
//  251 

        RSEG BANKED_CODE:CODE:NOROOT(0)
//  252 void Show_Num( uint16 X )
Show_Num:
        CFI Block cfiBlock1 Using cfiCommon0
        CFI Function Show_Num
        CODE
//  253 {
        FUNCALL Show_Num, HalUARTWrite
        LOCFRAME ISTACK, 0, STACK
        LOCFRAME PSTACK, 0, STACK
        LOCFRAME XSTACK, 15, STACK
        LOCFRAME IOVERLAY, 0, STATIC
        LOCFRAME DOVERLAY, 0, STATIC
        ARGFRAME ISTACK, 0, STACK
        ARGFRAME PSTACK, 0, STACK
        ARGFRAME XSTACK, 15, STACK
        ARGFRAME IOVERLAY, 0, STATIC
        ARGFRAME DOVERLAY, 0, STATIC
        FUNCALL Show_Num, HalUARTWrite
        LOCFRAME ISTACK, 0, STACK
        LOCFRAME PSTACK, 0, STACK
        LOCFRAME XSTACK, 15, STACK
        LOCFRAME IOVERLAY, 0, STATIC
        LOCFRAME DOVERLAY, 0, STATIC
        ARGFRAME ISTACK, 0, STACK
        ARGFRAME PSTACK, 0, STACK
        ARGFRAME XSTACK, 15, STACK
        ARGFRAME IOVERLAY, 0, STATIC
        ARGFRAME DOVERLAY, 0, STATIC
        MOV     A,#-0xa
        LCALL   ?BANKED_ENTER_XDATA
        CFI DPH0 load(1, XDATA, add(CFA_XSP16, literal(-1)))
        CFI DPL0 load(1, XDATA, add(CFA_XSP16, literal(-2)))
        CFI ?BRET_EXT load(1, XDATA, add(CFA_XSP16, literal(-3)))
        CFI ?RET_HIGH load(1, XDATA, add(CFA_XSP16, literal(-4)))
        CFI ?RET_LOW load(1, XDATA, add(CFA_XSP16, literal(-5)))
        CFI R7 load(1, XDATA, add(CFA_XSP16, literal(-6)))
        CFI V1 load(1, XDATA, add(CFA_XSP16, literal(-7)))
        CFI V0 load(1, XDATA, add(CFA_XSP16, literal(-8)))
        CFI VB load(1, XDATA, add(CFA_XSP16, literal(-9)))
        CFI R6 load(1, XDATA, add(CFA_XSP16, literal(-10)))
        CFI CFA_SP SP+0
        CFI CFA_XSP16 add(XSP16, 10)
        ; Saved register size: 10
        ; Auto size: 5
        MOV     A,#-0x5
        LCALL   ?ALLOC_XSTACK8
        CFI CFA_XSP16 add(XSP16, 15)
        MOV     A,R2
        MOV     R4,A
        MOV     A,R3
        MOV     R5,A
//  254   if(X == 0)
        MOV     A,R4
        ORL     A,R5
        JNZ     ??Show_Num_0
//  255   {
//  256     HalUARTWrite(0,"0",1);
        ; Setup parameters for call to function HalUARTWrite
        MOV     R4,#0x1
        MOV     R5,#0x0
        MOV     R2,#`?<Constant "0">` & 0xff
        MOV     R3,#(`?<Constant "0">` >> 8) & 0xff
        MOV     R1,#0x0
        LCALL   ??HalUARTWrite?relay
//  257   }
//  258   else
//  259   {
//  260     uint8 N = 0;
//  261     uint8 Num[4];
//  262     
//  263     while(X)
//  264     {
//  265       Num[N++] = X % 10;
//  266       X /=10;
//  267       
//  268     }
//  269     while(N > 0)
//  270     {
//  271       uchar temp = '0' + Num[--N];
//  272       HalUARTWrite(0,&temp,1);
//  273     }
//  274   }
//  275   
//  276   
//  277 }
??Show_Num_1:
        MOV     A,#0x5
        LJMP    ?Subroutine0 & 0xFFFF
??Show_Num_0:
        MOV     R6,#0x0
??Show_Num_2:
        MOV     A,R4
        MOV     R0,A
        MOV     A,R5
        MOV     R1,A
        MOV     R2,#0xa
        MOV     R3,#0x0
        LCALL   ?US_DIV_MOD
        MOV     ?V0 + 0,R6
        MOV     A,#0x1
        LCALL   ?XSTACK_DISP0_8
        LCALL   ?Subroutine24 & 0xFFFF
??CrossCallReturnLabel_44:
        MOV     A,R2
        MOVX    @DPTR,A
        INC     R6
        MOV     A,R4
        MOV     R0,A
        MOV     A,R5
        MOV     R1,A
        MOV     R2,#0xa
        MOV     R3,#0x0
        LCALL   ?US_DIV_MOD
        MOV     ?V0 + 0,R0
        MOV     ?V0 + 1,R1
        MOV     R4,?V0 + 0
        MOV     R5,?V0 + 1
        MOV     A,R4
        ORL     A,R5
        JNZ     ??Show_Num_2
??Show_Num_3:
        MOV     A,R6
        JZ      ??Show_Num_1
        DEC     R6
        MOV     ?V0 + 0,R6
        MOV     A,#0x1
        LCALL   ?XSTACK_DISP0_8
        LCALL   ?Subroutine24 & 0xFFFF
??CrossCallReturnLabel_45:
        LCALL   ?Subroutine47 & 0xFFFF
??CrossCallReturnLabel_74:
        SJMP    ??Show_Num_3
        CFI EndBlock cfiBlock1

        RSEG BANKED_CODE:CODE:NOROOT(0)
?Subroutine24:
        CFI Block cfiCond2 Using cfiCommon0
        CFI NoFunction
        CFI Conditional ??CrossCallReturnLabel_44
        CFI R6 load(1, XDATA, add(CFA_XSP16, literal(-10)))
        CFI VB load(1, XDATA, add(CFA_XSP16, literal(-9)))
        CFI V0 load(1, XDATA, add(CFA_XSP16, literal(-8)))
        CFI V1 load(1, XDATA, add(CFA_XSP16, literal(-7)))
        CFI R7 load(1, XDATA, add(CFA_XSP16, literal(-6)))
        CFI ?RET_LOW load(1, XDATA, add(CFA_XSP16, literal(-5)))
        CFI ?RET_HIGH load(1, XDATA, add(CFA_XSP16, literal(-4)))
        CFI ?BRET_EXT load(1, XDATA, add(CFA_XSP16, literal(-3)))
        CFI DPL0 load(1, XDATA, add(CFA_XSP16, literal(-2)))
        CFI DPH0 load(1, XDATA, add(CFA_XSP16, literal(-1)))
        CFI CFA_SP SP+0
        CFI CFA_XSP16 add(XSP16, 15)
        CFI Block cfiCond3 Using cfiCommon0
        CFI (cfiCond3) NoFunction
        CFI (cfiCond3) Conditional ??CrossCallReturnLabel_45
        CFI (cfiCond3) R6 load(1, XDATA, add(CFA_XSP16, literal(-10)))
        CFI (cfiCond3) VB load(1, XDATA, add(CFA_XSP16, literal(-9)))
        CFI (cfiCond3) V0 load(1, XDATA, add(CFA_XSP16, literal(-8)))
        CFI (cfiCond3) V1 load(1, XDATA, add(CFA_XSP16, literal(-7)))
        CFI (cfiCond3) R7 load(1, XDATA, add(CFA_XSP16, literal(-6)))
        CFI (cfiCond3) ?RET_LOW load(1, XDATA, add(CFA_XSP16, literal(-5)))
        CFI (cfiCond3) ?RET_HIGH load(1, XDATA, add(CFA_XSP16, literal(-4)))
        CFI (cfiCond3) ?BRET_EXT load(1, XDATA, add(CFA_XSP16, literal(-3)))
        CFI (cfiCond3) DPL0 load(1, XDATA, add(CFA_XSP16, literal(-2)))
        CFI (cfiCond3) DPH0 load(1, XDATA, add(CFA_XSP16, literal(-1)))
        CFI (cfiCond3) CFA_SP SP+0
        CFI (cfiCond3) CFA_XSP16 add(XSP16, 15)
        CFI Block cfiPicker4 Using cfiCommon1
        CFI (cfiPicker4) NoFunction
        CFI (cfiPicker4) Picker
        MOV     A,DPL
        ADD     A,?V0 + 0
        MOV     DPL,A
        MOV     A,DPH
        ADDC    A,#0x0
        MOV     DPH,A
        RET
        CFI EndBlock cfiCond2
        CFI EndBlock cfiCond3
        CFI EndBlock cfiPicker4
//  278 
//  279 

        RSEG BANKED_CODE:CODE:NOROOT(0)
//  280 uint16 Power_of_2( uint8 X )
Power_of_2:
        CFI Block cfiBlock5 Using cfiCommon0
        CFI Function Power_of_2
        CODE
//  281 {
        ; Saved register size: 0
        ; Auto size: 0
//  282   if(X == 0)
        MOV     A,R1
        JNZ     ??Power_of_2_0
//  283     return 1;
        MOV     R2,#0x1
        MOV     R3,#0x0
        SJMP    ??Power_of_2_1
//  284   else
//  285   {
//  286     uint16 temp = 2;
??Power_of_2_0:
        MOV     R2,#0x2
        MOV     R3,#0x0
//  287     for(uchar i=2;i<=X;++i)
        MOV     R0,#0x2
        SJMP    ??Power_of_2_2
//  288     {
//  289       temp *=2;
??Power_of_2_3:
        MOV     A,R2
        CLR     C
        RLC     A
        MOV     R2,A
        MOV     A,R3
        RLC     A
        MOV     R3,A
//  290     }
        INC     R0
??Power_of_2_2:
        MOV     A,R1
        CLR     C
        SUBB    A,R0
        JNC     ??Power_of_2_3
//  291     return temp;
??Power_of_2_1:
        LJMP    ?BRET
        CFI EndBlock cfiBlock5
//  292   }
//  293     
//  294 }
//  295 /*********************************************************************
//  296  * @fn      SampleApp_Init   应用初始化
//  297  *
//  298  * @brief   Initialization function for the Generic App Task.
//  299  *          This is called during initialization and should contain
//  300  *          any application specific initialization (ie. hardware
//  301  *          initialization/setup, table initialization, power up
//  302  *          notificaiton ... ).
//  303  *
//  304  * @param   task_id - the ID assigned by OSAL.  This ID should be
//  305  *                    used to send messages and set timers.
//  306  *
//  307  * @return  none
//  308  */
//  309 
//  310 

        RSEG BANKED_CODE:CODE:NOROOT(0)
//  311 void SampleApp_Init( uint8 task_id )
SampleApp_Init:
        CFI Block cfiBlock6 Using cfiCommon0
        CFI Function SampleApp_Init
        CODE
//  312 {
        FUNCALL SampleApp_Init, MT_UartInit
        LOCFRAME ISTACK, 0, STACK
        LOCFRAME PSTACK, 0, STACK
        LOCFRAME XSTACK, 11, STACK
        LOCFRAME IOVERLAY, 0, STATIC
        LOCFRAME DOVERLAY, 0, STATIC
        ARGFRAME ISTACK, 0, STACK
        ARGFRAME PSTACK, 0, STACK
        ARGFRAME XSTACK, 11, STACK
        ARGFRAME IOVERLAY, 0, STATIC
        ARGFRAME DOVERLAY, 0, STATIC
        FUNCALL SampleApp_Init, MT_UartRegisterTaskID
        LOCFRAME ISTACK, 0, STACK
        LOCFRAME PSTACK, 0, STACK
        LOCFRAME XSTACK, 11, STACK
        LOCFRAME IOVERLAY, 0, STATIC
        LOCFRAME DOVERLAY, 0, STATIC
        ARGFRAME ISTACK, 0, STACK
        ARGFRAME PSTACK, 0, STACK
        ARGFRAME XSTACK, 11, STACK
        ARGFRAME IOVERLAY, 0, STATIC
        ARGFRAME DOVERLAY, 0, STATIC
        FUNCALL SampleApp_Init, HalUARTWrite
        LOCFRAME ISTACK, 0, STACK
        LOCFRAME PSTACK, 0, STACK
        LOCFRAME XSTACK, 11, STACK
        LOCFRAME IOVERLAY, 0, STATIC
        LOCFRAME DOVERLAY, 0, STATIC
        ARGFRAME ISTACK, 0, STACK
        ARGFRAME PSTACK, 0, STACK
        ARGFRAME XSTACK, 11, STACK
        ARGFRAME IOVERLAY, 0, STATIC
        ARGFRAME DOVERLAY, 0, STATIC
        FUNCALL SampleApp_Init, Power_of_2
        LOCFRAME ISTACK, 0, STACK
        LOCFRAME PSTACK, 0, STACK
        LOCFRAME XSTACK, 11, STACK
        LOCFRAME IOVERLAY, 0, STATIC
        LOCFRAME DOVERLAY, 0, STATIC
        ARGFRAME ISTACK, 0, STACK
        ARGFRAME PSTACK, 0, STACK
        ARGFRAME XSTACK, 11, STACK
        ARGFRAME IOVERLAY, 0, STATIC
        ARGFRAME DOVERLAY, 0, STATIC
        FUNCALL SampleApp_Init, afRegister
        LOCFRAME ISTACK, 0, STACK
        LOCFRAME PSTACK, 0, STACK
        LOCFRAME XSTACK, 11, STACK
        LOCFRAME IOVERLAY, 0, STATIC
        LOCFRAME DOVERLAY, 0, STATIC
        ARGFRAME ISTACK, 0, STACK
        ARGFRAME PSTACK, 0, STACK
        ARGFRAME XSTACK, 11, STACK
        ARGFRAME IOVERLAY, 0, STATIC
        ARGFRAME DOVERLAY, 0, STATIC
        FUNCALL SampleApp_Init, RegisterForKeys
        LOCFRAME ISTACK, 0, STACK
        LOCFRAME PSTACK, 0, STACK
        LOCFRAME XSTACK, 11, STACK
        LOCFRAME IOVERLAY, 0, STATIC
        LOCFRAME DOVERLAY, 0, STATIC
        ARGFRAME ISTACK, 0, STACK
        ARGFRAME PSTACK, 0, STACK
        ARGFRAME XSTACK, 11, STACK
        ARGFRAME IOVERLAY, 0, STATIC
        ARGFRAME DOVERLAY, 0, STATIC
        FUNCALL SampleApp_Init, osal_memcpy
        LOCFRAME ISTACK, 0, STACK
        LOCFRAME PSTACK, 0, STACK
        LOCFRAME XSTACK, 14, STACK
        LOCFRAME IOVERLAY, 0, STATIC
        LOCFRAME DOVERLAY, 0, STATIC
        ARGFRAME ISTACK, 0, STACK
        ARGFRAME PSTACK, 0, STACK
        ARGFRAME XSTACK, 14, STACK
        ARGFRAME IOVERLAY, 0, STATIC
        ARGFRAME DOVERLAY, 0, STATIC
        FUNCALL SampleApp_Init, aps_AddGroup
        LOCFRAME ISTACK, 0, STACK
        LOCFRAME PSTACK, 0, STACK
        LOCFRAME XSTACK, 11, STACK
        LOCFRAME IOVERLAY, 0, STATIC
        LOCFRAME DOVERLAY, 0, STATIC
        ARGFRAME ISTACK, 0, STACK
        ARGFRAME PSTACK, 0, STACK
        ARGFRAME XSTACK, 11, STACK
        ARGFRAME IOVERLAY, 0, STATIC
        ARGFRAME DOVERLAY, 0, STATIC
        FUNCALL SampleApp_Init, HalLcdWriteString
        LOCFRAME ISTACK, 0, STACK
        LOCFRAME PSTACK, 0, STACK
        LOCFRAME XSTACK, 11, STACK
        LOCFRAME IOVERLAY, 0, STATIC
        LOCFRAME DOVERLAY, 0, STATIC
        ARGFRAME ISTACK, 0, STACK
        ARGFRAME PSTACK, 0, STACK
        ARGFRAME XSTACK, 11, STACK
        ARGFRAME IOVERLAY, 0, STATIC
        ARGFRAME DOVERLAY, 0, STATIC
        MOV     A,#-0xb
        LCALL   ?BANKED_ENTER_XDATA
        CFI DPH0 load(1, XDATA, add(CFA_XSP16, literal(-1)))
        CFI DPL0 load(1, XDATA, add(CFA_XSP16, literal(-2)))
        CFI ?BRET_EXT load(1, XDATA, add(CFA_XSP16, literal(-3)))
        CFI ?RET_HIGH load(1, XDATA, add(CFA_XSP16, literal(-4)))
        CFI ?RET_LOW load(1, XDATA, add(CFA_XSP16, literal(-5)))
        CFI R7 load(1, XDATA, add(CFA_XSP16, literal(-6)))
        CFI V2 load(1, XDATA, add(CFA_XSP16, literal(-7)))
        CFI V1 load(1, XDATA, add(CFA_XSP16, literal(-8)))
        CFI V0 load(1, XDATA, add(CFA_XSP16, literal(-9)))
        CFI VB load(1, XDATA, add(CFA_XSP16, literal(-10)))
        CFI R6 load(1, XDATA, add(CFA_XSP16, literal(-11)))
        CFI CFA_SP SP+0
        CFI CFA_XSP16 add(XSP16, 11)
        ; Saved register size: 11
        ; Auto size: 0
        MOV     A,R1
        MOV     R6,A
//  313   SampleApp_TaskID = task_id;
        MOV     DPTR,#SampleApp_TaskID
        MOVX    @DPTR,A
//  314   SampleApp_NwkState = DEV_INIT;
        MOV     DPTR,#SampleApp_NwkState
        MOV     A,#0x1
        MOVX    @DPTR,A
//  315   SampleApp_TransID = 0;
        MOV     DPTR,#SampleApp_TransID
        CLR     A
        MOVX    @DPTR,A
//  316   MT_UartInit(); //初始化UART
        ; Setup parameters for call to function MT_UartInit
        LCALL   ??MT_UartInit?relay
//  317   MT_UartRegisterTaskID(task_id);// 登记任务号
        ; Setup parameters for call to function MT_UartRegisterTaskID
        MOV     A,R6
        MOV     R1,A
        LCALL   ??MT_UartRegisterTaskID?relay
//  318   HalUARTWrite(0, "System is started.\n\n", 20); // （串口 0 ，'字符’,字符个数）
        ; Setup parameters for call to function HalUARTWrite
        MOV     R4,#0x14
        MOV     R5,#0x0
        MOV     R2,#`?<Constant "System is started.\\n\\n">` & 0xff
        MOV     R3,#(`?<Constant "System is started.\\n\\n">` >> 8) & 0xff
        MOV     R1,#0x0
        LCALL   ??HalUARTWrite?relay
//  319 
//  320 
//  321   //路由表初始化
//  322   for(short i=0;i<3;++i)
        MOV     R2,#0x0
        MOV     R3,#0x0
//  323   {
//  324     Nei_Table[i] += 65534;
??SampleApp_Init_0:
        MOV     A,R2
        MOV     R0,A
        MOV     A,R3
        LCALL   ?Subroutine7 & 0xFFFF
??CrossCallReturnLabel_100:
        ADD     A,#-0x2
        MOVX    @DPTR,A
        INC     DPTR
        MOVX    A,@DPTR
        ADDC    A,#-0x1
        MOVX    @DPTR,A
//  325     ACTIVE[i] += LIFE_TIME;  //邻居活跃度初始化
        MOV     DPTR,#LIFE_TIME
        MOVX    A,@DPTR
        MOV     R4,A
        RLC     A
        SUBB    A,0xE0 /* A   */
        MOV     R5,A
        LCALL   ?Subroutine12 & 0xFFFF
//  326   }
??CrossCallReturnLabel_23:
        MOVX    A,@DPTR
        ADD     A,R4
        MOVX    @DPTR,A
        INC     DPTR
        MOVX    A,@DPTR
        ADDC    A,R5
        LCALL   ?Subroutine26 & 0xFFFF
??CrossCallReturnLabel_46:
        SUBB    A,#0x3
        LCALL   ?Subroutine19 & 0xFFFF
??CrossCallReturnLabel_150:
        JC      ??SampleApp_Init_0
//  327 
//  328 
//  329   uint16 Source_DATA_info = Power_of_2(Device_ID);
        ; Setup parameters for call to function Power_of_2
        LCALL   ?Subroutine34 & 0xFFFF
??CrossCallReturnLabel_57:
        MOV     ?V0 + 0,R2
        MOV     ?V0 + 1,R3
        MOV     R4,?V0 + 0
        MOV     R5,?V0 + 1
//  330   //给码字槽赋初值(除了sink节点)
//  331   for(short i=0;i<6;++i)
        MOV     R2,#0x0
        MOV     R3,#0x0
//  332   {
//  333     DATA_SLOT[i].data = SOURCE_DATA;    //给码字槽赋初值
??SampleApp_Init_1:
        MOV     ?V0 + 0,R2
        MOV     ?V0 + 1,R3
        MOV     A,#0x2
        MOV     R0,#?V0 + 0
        LCALL   ?S_SHL
        LCALL   ?Subroutine59 & 0xFFFF
//  334     DATA_SLOT[i].Degree_ID = Source_DATA_info; //给码字赋节点信息
//  335 //    
//  336   }
??CrossCallReturnLabel_91:
        MOV     DPTR,#SOURCE_DATA
        MOVX    A,@DPTR
        MOV     DPL,R0
        MOV     DPH,R1
        LCALL   ?Subroutine48 & 0xFFFF
??CrossCallReturnLabel_96:
        MOV     A,R4
        MOVX    @DPTR,A
        INC     DPTR
        MOV     A,R5
        LCALL   ?Subroutine26 & 0xFFFF
??CrossCallReturnLabel_47:
        SUBB    A,#0x6
        LCALL   ?Subroutine19 & 0xFFFF
??CrossCallReturnLabel_151:
        JC      ??SampleApp_Init_1
//  337 
//  338 //  uint8 X = 1;
//  339 //  uint8 Y = 4;
//  340 //  printf(" %d\n",X|Y);
//  341  
//  342   
//  343   
//  344   
//  345   
//  346   
//  347   
//  348   
//  349   
//  350   
//  351   
//  352 
//  353   // Device hardware initialization can be added here or in main() (Zmain.c).
//  354   // If the hardware is application specific - add it here.
//  355   // If the hardware is other parts of the device add it in main().
//  356 
//  357  #if defined ( BUILD_ALL_DEVICES )
//  358   // The "Demo" target is setup to have BUILD_ALL_DEVICES and HOLD_AUTO_START
//  359   // We are looking at a jumper (defined in SampleAppHw.c) to be jumpered
//  360   // together - if they are - we will start up a coordinator. Otherwise,
//  361   // the device will start as a router.
//  362   if ( readCoordinatorJumper() )
//  363     zgDeviceLogicalType = ZG_DEVICETYPE_COORDINATOR;
//  364   else
//  365     zgDeviceLogicalType = ZG_DEVICETYPE_ROUTER;
//  366 #endif // BUILD_ALL_DEVICES
//  367 
//  368 #if defined ( HOLD_AUTO_START )
//  369   // HOLD_AUTO_START is a compile option that will surpress ZDApp
//  370   //  from starting the device and wait for the application to
//  371   //  start the device.
//  372   ZDOInitDevice(0);
//  373 #endif
//  374 
//  375 
//  376 
//  377   //WeBee点对点通讯定义
//  378   Point_To_Point_DstAddr.addrMode = (afAddrMode_t)Addr16Bit; //点播模式
        MOV     DPTR,#Point_To_Point_DstAddr + 8
        MOV     A,#0x2
        MOVX    @DPTR,A
//  379   Point_To_Point_DstAddr.endPoint = SAMPLEAPP_ENDPOINT;
        INC     DPTR
        MOV     A,#0x14
        MOVX    @DPTR,A
//  380   Point_To_Point_DstAddr.addr.shortAddr = 0xB6AE; //发给协调器
        MOV     DPTR,#Point_To_Point_DstAddr
        MOV     A,#-0x52
        MOVX    @DPTR,A
        INC     DPTR
        MOV     A,#-0x4a
        MOVX    @DPTR,A
//  381 
//  382 
//  383 
//  384 
//  385 
//  386 
//  387   // Setup for the periodic message's destination address
//  388   // Broadcast to everyone     广播方式定义
//  389   SampleApp_Periodic_DstAddr.addrMode = (afAddrMode_t)AddrBroadcast;
        MOV     DPTR,#SampleApp_Periodic_DstAddr + 8
        MOV     A,#0xf
        MOVX    @DPTR,A
//  390   SampleApp_Periodic_DstAddr.endPoint = SAMPLEAPP_ENDPOINT;
        INC     DPTR
        MOV     A,#0x14
        MOVX    @DPTR,A
//  391   SampleApp_Periodic_DstAddr.addr.shortAddr = 0xFFFF;//发送给所有设备,睡眠中的节点由父节点暂存直到超时
        MOV     DPTR,#SampleApp_Periodic_DstAddr
        MOV     A,#-0x1
        MOVX    @DPTR,A
        INC     DPTR
        MOVX    @DPTR,A
//  392   //0xFFFD 发送给非睡眠状态的所有设备
//  393   //0xFFFC 发送给所有路由器以及协调器
//  394 
//  395 
//  396 
//  397 
//  398   //组播Group1设置
//  399   // Setup for the flash command's destination address - Group 1
//  400   SampleApp_Flash_DstAddr.addrMode = (afAddrMode_t)afAddrGroup;
        MOV     DPTR,#SampleApp_Flash_DstAddr + 8
        MOV     A,#0x1
        MOVX    @DPTR,A
//  401   SampleApp_Flash_DstAddr.endPoint = SAMPLEAPP_ENDPOINT;  //endpoint 端点
        INC     DPTR
        MOV     A,#0x14
        MOVX    @DPTR,A
//  402   SampleApp_Flash_DstAddr.addr.shortAddr = SAMPLEAPP_FLASH_GROUP;
        MOV     DPTR,#SampleApp_Flash_DstAddr
        MOV     A,#0x2
        MOVX    @DPTR,A
        INC     DPTR
        CLR     A
        MOVX    @DPTR,A
//  403 
//  404 
//  405 
//  406 
//  407 
//  408   // Fill out the endpoint description.
//  409   SampleApp_epDesc.endPoint = SAMPLEAPP_ENDPOINT;
        MOV     DPTR,#SampleApp_epDesc
        MOV     A,#0x14
        MOVX    @DPTR,A
//  410   SampleApp_epDesc.task_id = &SampleApp_TaskID;
        INC     DPTR
        MOV     A,#SampleApp_TaskID & 0xff
        MOVX    @DPTR,A
        INC     DPTR
        MOV     A,#(SampleApp_TaskID >> 8) & 0xff
        MOVX    @DPTR,A
//  411   SampleApp_epDesc.simpleDesc
//  412             = (SimpleDescriptionFormat_t *)&SampleApp_SimpleDesc;
        INC     DPTR
        MOV     A,#SampleApp_SimpleDesc & 0xff
        MOVX    @DPTR,A
        INC     DPTR
        MOV     A,#(SampleApp_SimpleDesc >> 8) & 0xff
        MOVX    @DPTR,A
//  413   SampleApp_epDesc.latencyReq = noLatencyReqs;
        INC     DPTR
        CLR     A
        MOVX    @DPTR,A
//  414 
//  415   // Register the endpoint description with the AF
//  416   afRegister( &SampleApp_epDesc );
        ; Setup parameters for call to function afRegister
        MOV     R2,#SampleApp_epDesc & 0xff
        MOV     R3,#(SampleApp_epDesc >> 8) & 0xff
        LCALL   ??afRegister?relay
//  417 
//  418   // Register for all key events - This app will handle all key events
//  419   RegisterForKeys( SampleApp_TaskID );
        ; Setup parameters for call to function RegisterForKeys
        MOV     DPTR,#SampleApp_TaskID
        MOVX    A,@DPTR
        MOV     R1,A
        LCALL   ??RegisterForKeys?relay
//  420 
//  421 
//  422 
//  423   /***********设置 Group_ID*************/
//  424   // By default, all devices start out in Group 1
//  425   SampleApp_Group.ID = SAMPLEAPP_FLASH_GROUP; //0x0001
        MOV     DPTR,#SampleApp_Group
        MOV     A,#0x2
        MOVX    @DPTR,A
        INC     DPTR
        CLR     A
        MOVX    @DPTR,A
//  426   osal_memcpy( SampleApp_Group.name, "Group 1", 7  );
        ; Setup parameters for call to function osal_memcpy
        MOV     ?V0 + 0,#`?<Constant "Group 1">` & 0xff
        MOV     ?V0 + 1,#(`?<Constant "Group 1">` >> 8) & 0xff
        MOV     ?V0 + 2,A
        MOV     R0,#?V0 + 0
        LCALL   ?PUSH_XSTACK_I_THREE
        CFI CFA_XSP16 add(XSP16, 14)
        MOV     R4,#0x7
        MOV     R5,#0x0
        MOV     R2,#(SampleApp_Group + 2) & 0xff
        MOV     R3,#((SampleApp_Group + 2) >> 8) & 0xff
        LCALL   ??osal_memcpy?relay
        MOV     A,#0x3
        LCALL   ?DEALLOC_XSTACK8
        CFI CFA_XSP16 add(XSP16, 11)
//  427   aps_AddGroup( SAMPLEAPP_ENDPOINT, &SampleApp_Group );
        ; Setup parameters for call to function aps_AddGroup
        MOV     R2,#SampleApp_Group & 0xff
        MOV     R3,#(SampleApp_Group >> 8) & 0xff
        MOV     R1,#0x14
        LCALL   ??aps_AddGroup?relay
//  428 
//  429 
//  430 
//  431 #if defined ( LCD_SUPPORTED )
//  432   HalLcdWriteString( "SampleApp", HAL_LCD_LINE_1 );
        ; Setup parameters for call to function HalLcdWriteString
        MOV     R1,#0x1
        MOV     R2,#`?<Constant "SampleApp">` & 0xff
        MOV     R3,#(`?<Constant "SampleApp">` >> 8) & 0xff
        LCALL   ??HalLcdWriteString?relay
//  433 #endif
//  434 }
        MOV     R7,#0x3
        LJMP    ?BANKED_LEAVE_XDATA
        CFI EndBlock cfiBlock6

        RSEG BANKED_CODE:CODE:NOROOT(0)
?Subroutine48:
        CFI Block cfiCond7 Using cfiCommon0
        CFI NoFunction
        CFI Conditional ??CrossCallReturnLabel_96
        CFI R6 load(1, XDATA, add(CFA_XSP16, literal(-11)))
        CFI VB load(1, XDATA, add(CFA_XSP16, literal(-10)))
        CFI V0 load(1, XDATA, add(CFA_XSP16, literal(-9)))
        CFI V1 load(1, XDATA, add(CFA_XSP16, literal(-8)))
        CFI V2 load(1, XDATA, add(CFA_XSP16, literal(-7)))
        CFI R7 load(1, XDATA, add(CFA_XSP16, literal(-6)))
        CFI ?RET_LOW load(1, XDATA, add(CFA_XSP16, literal(-5)))
        CFI ?RET_HIGH load(1, XDATA, add(CFA_XSP16, literal(-4)))
        CFI ?BRET_EXT load(1, XDATA, add(CFA_XSP16, literal(-3)))
        CFI DPL0 load(1, XDATA, add(CFA_XSP16, literal(-2)))
        CFI DPH0 load(1, XDATA, add(CFA_XSP16, literal(-1)))
        CFI CFA_SP SP+0
        CFI CFA_XSP16 add(XSP16, 11)
        CFI Block cfiCond8 Using cfiCommon0
        CFI (cfiCond8) NoFunction
        CFI (cfiCond8) Conditional ??CrossCallReturnLabel_97, ??CrossCallReturnLabel_39
        CFI (cfiCond8) R6 load(1, XDATA, add(CFA_XSP16, literal(-20)))
        CFI (cfiCond8) VB load(1, XDATA, add(CFA_XSP16, literal(-19)))
        CFI (cfiCond8) V0 load(1, XDATA, add(CFA_XSP16, literal(-18)))
        CFI (cfiCond8) V1 load(1, XDATA, add(CFA_XSP16, literal(-17)))
        CFI (cfiCond8) V2 load(1, XDATA, add(CFA_XSP16, literal(-16)))
        CFI (cfiCond8) V3 load(1, XDATA, add(CFA_XSP16, literal(-15)))
        CFI (cfiCond8) V4 load(1, XDATA, add(CFA_XSP16, literal(-14)))
        CFI (cfiCond8) V5 load(1, XDATA, add(CFA_XSP16, literal(-13)))
        CFI (cfiCond8) V6 load(1, XDATA, add(CFA_XSP16, literal(-12)))
        CFI (cfiCond8) V7 load(1, XDATA, add(CFA_XSP16, literal(-11)))
        CFI (cfiCond8) V8 load(1, XDATA, add(CFA_XSP16, literal(-10)))
        CFI (cfiCond8) V9 load(1, XDATA, add(CFA_XSP16, literal(-9)))
        CFI (cfiCond8) V10 load(1, XDATA, add(CFA_XSP16, literal(-8)))
        CFI (cfiCond8) V11 load(1, XDATA, add(CFA_XSP16, literal(-7)))
        CFI (cfiCond8) R7 load(1, XDATA, add(CFA_XSP16, literal(-6)))
        CFI (cfiCond8) ?RET_LOW load(1, XDATA, add(CFA_XSP16, literal(-5)))
        CFI (cfiCond8) ?RET_HIGH load(1, XDATA, add(CFA_XSP16, literal(-4)))
        CFI (cfiCond8) ?BRET_EXT load(1, XDATA, add(CFA_XSP16, literal(-3)))
        CFI (cfiCond8) DPL0 load(1, XDATA, add(CFA_XSP16, literal(-2)))
        CFI (cfiCond8) DPH0 load(1, XDATA, add(CFA_XSP16, literal(-1)))
        CFI (cfiCond8) CFA_SP SP+0
        CFI (cfiCond8) CFA_XSP16 add(XSP16, 33)
        CFI Block cfiCond9 Using cfiCommon0
        CFI (cfiCond9) NoFunction
        CFI (cfiCond9) Conditional ??CrossCallReturnLabel_97, ??CrossCallReturnLabel_40
        CFI (cfiCond9) R6 load(1, XDATA, add(CFA_XSP16, literal(-20)))
        CFI (cfiCond9) VB load(1, XDATA, add(CFA_XSP16, literal(-19)))
        CFI (cfiCond9) V0 load(1, XDATA, add(CFA_XSP16, literal(-18)))
        CFI (cfiCond9) V1 load(1, XDATA, add(CFA_XSP16, literal(-17)))
        CFI (cfiCond9) V2 load(1, XDATA, add(CFA_XSP16, literal(-16)))
        CFI (cfiCond9) V3 load(1, XDATA, add(CFA_XSP16, literal(-15)))
        CFI (cfiCond9) V4 load(1, XDATA, add(CFA_XSP16, literal(-14)))
        CFI (cfiCond9) V5 load(1, XDATA, add(CFA_XSP16, literal(-13)))
        CFI (cfiCond9) V6 load(1, XDATA, add(CFA_XSP16, literal(-12)))
        CFI (cfiCond9) V7 load(1, XDATA, add(CFA_XSP16, literal(-11)))
        CFI (cfiCond9) V8 load(1, XDATA, add(CFA_XSP16, literal(-10)))
        CFI (cfiCond9) V9 load(1, XDATA, add(CFA_XSP16, literal(-9)))
        CFI (cfiCond9) V10 load(1, XDATA, add(CFA_XSP16, literal(-8)))
        CFI (cfiCond9) V11 load(1, XDATA, add(CFA_XSP16, literal(-7)))
        CFI (cfiCond9) R7 load(1, XDATA, add(CFA_XSP16, literal(-6)))
        CFI (cfiCond9) ?RET_LOW load(1, XDATA, add(CFA_XSP16, literal(-5)))
        CFI (cfiCond9) ?RET_HIGH load(1, XDATA, add(CFA_XSP16, literal(-4)))
        CFI (cfiCond9) ?BRET_EXT load(1, XDATA, add(CFA_XSP16, literal(-3)))
        CFI (cfiCond9) DPL0 load(1, XDATA, add(CFA_XSP16, literal(-2)))
        CFI (cfiCond9) DPH0 load(1, XDATA, add(CFA_XSP16, literal(-1)))
        CFI (cfiCond9) CFA_SP SP+0
        CFI (cfiCond9) CFA_XSP16 add(XSP16, 33)
        CFI Block cfiPicker10 Using cfiCommon1
        CFI (cfiPicker10) NoFunction
        CFI (cfiPicker10) Picker
        MOVX    @DPTR,A
        INC     DPTR
        CLR     A
        CFI EndBlock cfiCond7
        CFI EndBlock cfiCond8
        CFI EndBlock cfiCond9
        CFI EndBlock cfiPicker10
        REQUIRE ??Subroutine62_0
        ; // Fall through to label ??Subroutine62_0

        RSEG BANKED_CODE:CODE:NOROOT(0)
??Subroutine62_0:
        CFI Block cfiCond11 Using cfiCommon0
        CFI NoFunction
        CFI Conditional ??CrossCallReturnLabel_98
        CFI R6 load(1, XDATA, add(CFA_XSP16, literal(-12)))
        CFI VB load(1, XDATA, add(CFA_XSP16, literal(-11)))
        CFI V0 load(1, XDATA, add(CFA_XSP16, literal(-10)))
        CFI V1 load(1, XDATA, add(CFA_XSP16, literal(-9)))
        CFI V2 load(1, XDATA, add(CFA_XSP16, literal(-8)))
        CFI V3 load(1, XDATA, add(CFA_XSP16, literal(-7)))
        CFI R7 load(1, XDATA, add(CFA_XSP16, literal(-6)))
        CFI ?RET_LOW load(1, XDATA, add(CFA_XSP16, literal(-5)))
        CFI ?RET_HIGH load(1, XDATA, add(CFA_XSP16, literal(-4)))
        CFI ?BRET_EXT load(1, XDATA, add(CFA_XSP16, literal(-3)))
        CFI DPL0 load(1, XDATA, add(CFA_XSP16, literal(-2)))
        CFI DPH0 load(1, XDATA, add(CFA_XSP16, literal(-1)))
        CFI CFA_SP SP+0
        CFI CFA_XSP16 add(XSP16, 17)
        CFI Block cfiCond12 Using cfiCommon0
        CFI (cfiCond12) NoFunction
        CFI (cfiCond12) Conditional ??CrossCallReturnLabel_96
        CFI (cfiCond12) R6 load(1, XDATA, add(CFA_XSP16, literal(-11)))
        CFI (cfiCond12) VB load(1, XDATA, add(CFA_XSP16, literal(-10)))
        CFI (cfiCond12) V0 load(1, XDATA, add(CFA_XSP16, literal(-9)))
        CFI (cfiCond12) V1 load(1, XDATA, add(CFA_XSP16, literal(-8)))
        CFI (cfiCond12) V2 load(1, XDATA, add(CFA_XSP16, literal(-7)))
        CFI (cfiCond12) R7 load(1, XDATA, add(CFA_XSP16, literal(-6)))
        CFI (cfiCond12) ?RET_LOW load(1, XDATA, add(CFA_XSP16, literal(-5)))
        CFI (cfiCond12) ?RET_HIGH load(1, XDATA, add(CFA_XSP16, literal(-4)))
        CFI (cfiCond12) ?BRET_EXT load(1, XDATA, add(CFA_XSP16, literal(-3)))
        CFI (cfiCond12) DPL0 load(1, XDATA, add(CFA_XSP16, literal(-2)))
        CFI (cfiCond12) DPH0 load(1, XDATA, add(CFA_XSP16, literal(-1)))
        CFI (cfiCond12) CFA_SP SP+0
        CFI (cfiCond12) CFA_XSP16 add(XSP16, 11)
        CFI Block cfiCond13 Using cfiCommon0
        CFI (cfiCond13) NoFunction
        CFI (cfiCond13) Conditional ??CrossCallReturnLabel_97, ??CrossCallReturnLabel_39
        CFI (cfiCond13) R6 load(1, XDATA, add(CFA_XSP16, literal(-20)))
        CFI (cfiCond13) VB load(1, XDATA, add(CFA_XSP16, literal(-19)))
        CFI (cfiCond13) V0 load(1, XDATA, add(CFA_XSP16, literal(-18)))
        CFI (cfiCond13) V1 load(1, XDATA, add(CFA_XSP16, literal(-17)))
        CFI (cfiCond13) V2 load(1, XDATA, add(CFA_XSP16, literal(-16)))
        CFI (cfiCond13) V3 load(1, XDATA, add(CFA_XSP16, literal(-15)))
        CFI (cfiCond13) V4 load(1, XDATA, add(CFA_XSP16, literal(-14)))
        CFI (cfiCond13) V5 load(1, XDATA, add(CFA_XSP16, literal(-13)))
        CFI (cfiCond13) V6 load(1, XDATA, add(CFA_XSP16, literal(-12)))
        CFI (cfiCond13) V7 load(1, XDATA, add(CFA_XSP16, literal(-11)))
        CFI (cfiCond13) V8 load(1, XDATA, add(CFA_XSP16, literal(-10)))
        CFI (cfiCond13) V9 load(1, XDATA, add(CFA_XSP16, literal(-9)))
        CFI (cfiCond13) V10 load(1, XDATA, add(CFA_XSP16, literal(-8)))
        CFI (cfiCond13) V11 load(1, XDATA, add(CFA_XSP16, literal(-7)))
        CFI (cfiCond13) R7 load(1, XDATA, add(CFA_XSP16, literal(-6)))
        CFI (cfiCond13) ?RET_LOW load(1, XDATA, add(CFA_XSP16, literal(-5)))
        CFI (cfiCond13) ?RET_HIGH load(1, XDATA, add(CFA_XSP16, literal(-4)))
        CFI (cfiCond13) ?BRET_EXT load(1, XDATA, add(CFA_XSP16, literal(-3)))
        CFI (cfiCond13) DPL0 load(1, XDATA, add(CFA_XSP16, literal(-2)))
        CFI (cfiCond13) DPH0 load(1, XDATA, add(CFA_XSP16, literal(-1)))
        CFI (cfiCond13) CFA_SP SP+0
        CFI (cfiCond13) CFA_XSP16 add(XSP16, 33)
        CFI Block cfiCond14 Using cfiCommon0
        CFI (cfiCond14) NoFunction
        CFI (cfiCond14) Conditional ??CrossCallReturnLabel_97, ??CrossCallReturnLabel_40
        CFI (cfiCond14) R6 load(1, XDATA, add(CFA_XSP16, literal(-20)))
        CFI (cfiCond14) VB load(1, XDATA, add(CFA_XSP16, literal(-19)))
        CFI (cfiCond14) V0 load(1, XDATA, add(CFA_XSP16, literal(-18)))
        CFI (cfiCond14) V1 load(1, XDATA, add(CFA_XSP16, literal(-17)))
        CFI (cfiCond14) V2 load(1, XDATA, add(CFA_XSP16, literal(-16)))
        CFI (cfiCond14) V3 load(1, XDATA, add(CFA_XSP16, literal(-15)))
        CFI (cfiCond14) V4 load(1, XDATA, add(CFA_XSP16, literal(-14)))
        CFI (cfiCond14) V5 load(1, XDATA, add(CFA_XSP16, literal(-13)))
        CFI (cfiCond14) V6 load(1, XDATA, add(CFA_XSP16, literal(-12)))
        CFI (cfiCond14) V7 load(1, XDATA, add(CFA_XSP16, literal(-11)))
        CFI (cfiCond14) V8 load(1, XDATA, add(CFA_XSP16, literal(-10)))
        CFI (cfiCond14) V9 load(1, XDATA, add(CFA_XSP16, literal(-9)))
        CFI (cfiCond14) V10 load(1, XDATA, add(CFA_XSP16, literal(-8)))
        CFI (cfiCond14) V11 load(1, XDATA, add(CFA_XSP16, literal(-7)))
        CFI (cfiCond14) R7 load(1, XDATA, add(CFA_XSP16, literal(-6)))
        CFI (cfiCond14) ?RET_LOW load(1, XDATA, add(CFA_XSP16, literal(-5)))
        CFI (cfiCond14) ?RET_HIGH load(1, XDATA, add(CFA_XSP16, literal(-4)))
        CFI (cfiCond14) ?BRET_EXT load(1, XDATA, add(CFA_XSP16, literal(-3)))
        CFI (cfiCond14) DPL0 load(1, XDATA, add(CFA_XSP16, literal(-2)))
        CFI (cfiCond14) DPH0 load(1, XDATA, add(CFA_XSP16, literal(-1)))
        CFI (cfiCond14) CFA_SP SP+0
        CFI (cfiCond14) CFA_XSP16 add(XSP16, 33)
        CFI Block cfiPicker15 Using cfiCommon1
        CFI (cfiPicker15) NoFunction
        CFI (cfiPicker15) Picker
        MOVX    @DPTR,A
        MOV     DPL,R0
        MOV     DPH,R1
        INC     DPTR
        INC     DPTR
        RET
        CFI EndBlock cfiCond11
        CFI EndBlock cfiCond12
        CFI EndBlock cfiCond13
        CFI EndBlock cfiCond14
        CFI EndBlock cfiPicker15

        RSEG BANKED_CODE:CODE:NOROOT(0)
?Subroutine26:
        CFI Block cfiCond16 Using cfiCommon0
        CFI NoFunction
        CFI Conditional ??CrossCallReturnLabel_46
        CFI R6 load(1, XDATA, add(CFA_XSP16, literal(-11)))
        CFI VB load(1, XDATA, add(CFA_XSP16, literal(-10)))
        CFI V0 load(1, XDATA, add(CFA_XSP16, literal(-9)))
        CFI V1 load(1, XDATA, add(CFA_XSP16, literal(-8)))
        CFI V2 load(1, XDATA, add(CFA_XSP16, literal(-7)))
        CFI R7 load(1, XDATA, add(CFA_XSP16, literal(-6)))
        CFI ?RET_LOW load(1, XDATA, add(CFA_XSP16, literal(-5)))
        CFI ?RET_HIGH load(1, XDATA, add(CFA_XSP16, literal(-4)))
        CFI ?BRET_EXT load(1, XDATA, add(CFA_XSP16, literal(-3)))
        CFI DPL0 load(1, XDATA, add(CFA_XSP16, literal(-2)))
        CFI DPH0 load(1, XDATA, add(CFA_XSP16, literal(-1)))
        CFI CFA_SP SP+0
        CFI CFA_XSP16 add(XSP16, 11)
        CFI Block cfiCond17 Using cfiCommon0
        CFI (cfiCond17) NoFunction
        CFI (cfiCond17) Conditional ??CrossCallReturnLabel_47
        CFI (cfiCond17) R6 load(1, XDATA, add(CFA_XSP16, literal(-11)))
        CFI (cfiCond17) VB load(1, XDATA, add(CFA_XSP16, literal(-10)))
        CFI (cfiCond17) V0 load(1, XDATA, add(CFA_XSP16, literal(-9)))
        CFI (cfiCond17) V1 load(1, XDATA, add(CFA_XSP16, literal(-8)))
        CFI (cfiCond17) V2 load(1, XDATA, add(CFA_XSP16, literal(-7)))
        CFI (cfiCond17) R7 load(1, XDATA, add(CFA_XSP16, literal(-6)))
        CFI (cfiCond17) ?RET_LOW load(1, XDATA, add(CFA_XSP16, literal(-5)))
        CFI (cfiCond17) ?RET_HIGH load(1, XDATA, add(CFA_XSP16, literal(-4)))
        CFI (cfiCond17) ?BRET_EXT load(1, XDATA, add(CFA_XSP16, literal(-3)))
        CFI (cfiCond17) DPL0 load(1, XDATA, add(CFA_XSP16, literal(-2)))
        CFI (cfiCond17) DPH0 load(1, XDATA, add(CFA_XSP16, literal(-1)))
        CFI (cfiCond17) CFA_SP SP+0
        CFI (cfiCond17) CFA_XSP16 add(XSP16, 11)
        CFI Block cfiPicker18 Using cfiCommon1
        CFI (cfiPicker18) NoFunction
        CFI (cfiPicker18) Picker
        MOVX    @DPTR,A
        MOV     A,R2
        ADD     A,#0x1
        INC     R2
        MOV     A,R3
        ADDC    A,#0x0
        MOV     R3,A
        CLR     C
        MOV     A,R2
        RET
        CFI EndBlock cfiCond16
        CFI EndBlock cfiCond17
        CFI EndBlock cfiPicker18

        RSEG BANKED_CODE:CODE:NOROOT(0)
?Subroutine7:
        CFI Block cfiCond19 Using cfiCommon0
        CFI NoFunction
        CFI Conditional ??CrossCallReturnLabel_100
        CFI R6 load(1, XDATA, add(CFA_XSP16, literal(-11)))
        CFI VB load(1, XDATA, add(CFA_XSP16, literal(-10)))
        CFI V0 load(1, XDATA, add(CFA_XSP16, literal(-9)))
        CFI V1 load(1, XDATA, add(CFA_XSP16, literal(-8)))
        CFI V2 load(1, XDATA, add(CFA_XSP16, literal(-7)))
        CFI R7 load(1, XDATA, add(CFA_XSP16, literal(-6)))
        CFI ?RET_LOW load(1, XDATA, add(CFA_XSP16, literal(-5)))
        CFI ?RET_HIGH load(1, XDATA, add(CFA_XSP16, literal(-4)))
        CFI ?BRET_EXT load(1, XDATA, add(CFA_XSP16, literal(-3)))
        CFI DPL0 load(1, XDATA, add(CFA_XSP16, literal(-2)))
        CFI DPH0 load(1, XDATA, add(CFA_XSP16, literal(-1)))
        CFI CFA_SP SP+0
        CFI CFA_XSP16 add(XSP16, 11)
        CFI Block cfiCond20 Using cfiCommon0
        CFI (cfiCond20) NoFunction
        CFI (cfiCond20) Conditional ??CrossCallReturnLabel_101
        CFI (cfiCond20) R6 load(1, XDATA, add(CFA_XSP16, literal(-12)))
        CFI (cfiCond20) VB load(1, XDATA, add(CFA_XSP16, literal(-11)))
        CFI (cfiCond20) V0 load(1, XDATA, add(CFA_XSP16, literal(-10)))
        CFI (cfiCond20) V1 load(1, XDATA, add(CFA_XSP16, literal(-9)))
        CFI (cfiCond20) V2 load(1, XDATA, add(CFA_XSP16, literal(-8)))
        CFI (cfiCond20) V3 load(1, XDATA, add(CFA_XSP16, literal(-7)))
        CFI (cfiCond20) R7 load(1, XDATA, add(CFA_XSP16, literal(-6)))
        CFI (cfiCond20) ?RET_LOW load(1, XDATA, add(CFA_XSP16, literal(-5)))
        CFI (cfiCond20) ?RET_HIGH load(1, XDATA, add(CFA_XSP16, literal(-4)))
        CFI (cfiCond20) ?BRET_EXT load(1, XDATA, add(CFA_XSP16, literal(-3)))
        CFI (cfiCond20) DPL0 load(1, XDATA, add(CFA_XSP16, literal(-2)))
        CFI (cfiCond20) DPH0 load(1, XDATA, add(CFA_XSP16, literal(-1)))
        CFI (cfiCond20) CFA_SP SP+0
        CFI (cfiCond20) CFA_XSP16 add(XSP16, 17)
        CFI Block cfiPicker21 Using cfiCommon1
        CFI (cfiPicker21) NoFunction
        CFI (cfiPicker21) Picker
        MOV     R1,A
        MOV     A,R0
        CLR     C
        RLC     A
        MOV     R0,A
        MOV     A,R1
        CFI EndBlock cfiCond19
        CFI EndBlock cfiCond20
        CFI EndBlock cfiPicker21
        REQUIRE ??Subroutine63_0
        ; // Fall through to label ??Subroutine63_0

        RSEG BANKED_CODE:CODE:NOROOT(0)
??Subroutine63_0:
        CFI Block cfiCond22 Using cfiCommon0
        CFI NoFunction
        CFI Conditional ??CrossCallReturnLabel_99
        CFI R6 load(1, XDATA, add(CFA_XSP16, literal(-10)))
        CFI VB load(1, XDATA, add(CFA_XSP16, literal(-9)))
        CFI V0 load(1, XDATA, add(CFA_XSP16, literal(-8)))
        CFI V1 load(1, XDATA, add(CFA_XSP16, literal(-7)))
        CFI R7 load(1, XDATA, add(CFA_XSP16, literal(-6)))
        CFI ?RET_LOW load(1, XDATA, add(CFA_XSP16, literal(-5)))
        CFI ?RET_HIGH load(1, XDATA, add(CFA_XSP16, literal(-4)))
        CFI ?BRET_EXT load(1, XDATA, add(CFA_XSP16, literal(-3)))
        CFI DPL0 load(1, XDATA, add(CFA_XSP16, literal(-2)))
        CFI DPH0 load(1, XDATA, add(CFA_XSP16, literal(-1)))
        CFI CFA_SP SP+0
        CFI CFA_XSP16 add(XSP16, 10)
        CFI Block cfiCond23 Using cfiCommon0
        CFI (cfiCond23) NoFunction
        CFI (cfiCond23) Conditional ??CrossCallReturnLabel_100
        CFI (cfiCond23) R6 load(1, XDATA, add(CFA_XSP16, literal(-11)))
        CFI (cfiCond23) VB load(1, XDATA, add(CFA_XSP16, literal(-10)))
        CFI (cfiCond23) V0 load(1, XDATA, add(CFA_XSP16, literal(-9)))
        CFI (cfiCond23) V1 load(1, XDATA, add(CFA_XSP16, literal(-8)))
        CFI (cfiCond23) V2 load(1, XDATA, add(CFA_XSP16, literal(-7)))
        CFI (cfiCond23) R7 load(1, XDATA, add(CFA_XSP16, literal(-6)))
        CFI (cfiCond23) ?RET_LOW load(1, XDATA, add(CFA_XSP16, literal(-5)))
        CFI (cfiCond23) ?RET_HIGH load(1, XDATA, add(CFA_XSP16, literal(-4)))
        CFI (cfiCond23) ?BRET_EXT load(1, XDATA, add(CFA_XSP16, literal(-3)))
        CFI (cfiCond23) DPL0 load(1, XDATA, add(CFA_XSP16, literal(-2)))
        CFI (cfiCond23) DPH0 load(1, XDATA, add(CFA_XSP16, literal(-1)))
        CFI (cfiCond23) CFA_SP SP+0
        CFI (cfiCond23) CFA_XSP16 add(XSP16, 11)
        CFI Block cfiCond24 Using cfiCommon0
        CFI (cfiCond24) NoFunction
        CFI (cfiCond24) Conditional ??CrossCallReturnLabel_101
        CFI (cfiCond24) R6 load(1, XDATA, add(CFA_XSP16, literal(-12)))
        CFI (cfiCond24) VB load(1, XDATA, add(CFA_XSP16, literal(-11)))
        CFI (cfiCond24) V0 load(1, XDATA, add(CFA_XSP16, literal(-10)))
        CFI (cfiCond24) V1 load(1, XDATA, add(CFA_XSP16, literal(-9)))
        CFI (cfiCond24) V2 load(1, XDATA, add(CFA_XSP16, literal(-8)))
        CFI (cfiCond24) V3 load(1, XDATA, add(CFA_XSP16, literal(-7)))
        CFI (cfiCond24) R7 load(1, XDATA, add(CFA_XSP16, literal(-6)))
        CFI (cfiCond24) ?RET_LOW load(1, XDATA, add(CFA_XSP16, literal(-5)))
        CFI (cfiCond24) ?RET_HIGH load(1, XDATA, add(CFA_XSP16, literal(-4)))
        CFI (cfiCond24) ?BRET_EXT load(1, XDATA, add(CFA_XSP16, literal(-3)))
        CFI (cfiCond24) DPL0 load(1, XDATA, add(CFA_XSP16, literal(-2)))
        CFI (cfiCond24) DPH0 load(1, XDATA, add(CFA_XSP16, literal(-1)))
        CFI (cfiCond24) CFA_SP SP+0
        CFI (cfiCond24) CFA_XSP16 add(XSP16, 17)
        CFI Block cfiPicker25 Using cfiCommon1
        CFI (cfiPicker25) NoFunction
        CFI (cfiPicker25) Picker
        LCALL   ?Subroutine45 & 0xFFFF
??CrossCallReturnLabel_103:
        MOVX    A,@DPTR
        RET
        CFI EndBlock cfiCond22
        CFI EndBlock cfiCond23
        CFI EndBlock cfiCond24
        CFI EndBlock cfiPicker25
//  435 
//  436 /*********************************************************************
//  437  * @fn      SampleApp_ProcessEvent
//  438  *
//  439  *        ******************应用处理程序***************************
//  440  *
//  441  * @brief   Generic Application Task event processor.  This function
//  442  *          is called to process all events for the task.  Events
//  443  *          include timers, messages and any other user defined events.
//  444  *
//  445  * @param   task_id  - The OSAL assigned task ID.
//  446  * @param   events - events to process.  This is a bit map and can
//  447  *                   contain more than one event.
//  448  *
//  449  * @return  none
//  450  */

        RSEG BANKED_CODE:CODE:NOROOT(0)
//  451 uint16 SampleApp_ProcessEvent( uint8 task_id, uint16 events )
SampleApp_ProcessEvent:
        CFI Block cfiBlock26 Using cfiCommon0
        CFI Function SampleApp_ProcessEvent
        CODE
//  452 {
        FUNCALL SampleApp_ProcessEvent, osal_msg_receive
        LOCFRAME ISTACK, 0, STACK
        LOCFRAME PSTACK, 0, STACK
        LOCFRAME XSTACK, 12, STACK
        LOCFRAME IOVERLAY, 0, STATIC
        LOCFRAME DOVERLAY, 0, STATIC
        ARGFRAME ISTACK, 0, STACK
        ARGFRAME PSTACK, 0, STACK
        ARGFRAME XSTACK, 12, STACK
        ARGFRAME IOVERLAY, 0, STATIC
        ARGFRAME DOVERLAY, 0, STATIC
        FUNCALL SampleApp_ProcessEvent, osal_start_timerEx
        LOCFRAME ISTACK, 0, STACK
        LOCFRAME PSTACK, 0, STACK
        LOCFRAME XSTACK, 12, STACK
        LOCFRAME IOVERLAY, 0, STATIC
        LOCFRAME DOVERLAY, 0, STATIC
        ARGFRAME ISTACK, 0, STACK
        ARGFRAME PSTACK, 0, STACK
        ARGFRAME XSTACK, 12, STACK
        ARGFRAME IOVERLAY, 0, STATIC
        ARGFRAME DOVERLAY, 0, STATIC
        FUNCALL SampleApp_ProcessEvent, osal_msg_deallocate
        LOCFRAME ISTACK, 0, STACK
        LOCFRAME PSTACK, 0, STACK
        LOCFRAME XSTACK, 12, STACK
        LOCFRAME IOVERLAY, 0, STATIC
        LOCFRAME DOVERLAY, 0, STATIC
        ARGFRAME ISTACK, 0, STACK
        ARGFRAME PSTACK, 0, STACK
        ARGFRAME XSTACK, 12, STACK
        ARGFRAME IOVERLAY, 0, STATIC
        ARGFRAME DOVERLAY, 0, STATIC
        FUNCALL SampleApp_ProcessEvent, osal_msg_receive
        LOCFRAME ISTACK, 0, STACK
        LOCFRAME PSTACK, 0, STACK
        LOCFRAME XSTACK, 12, STACK
        LOCFRAME IOVERLAY, 0, STATIC
        LOCFRAME DOVERLAY, 0, STATIC
        ARGFRAME ISTACK, 0, STACK
        ARGFRAME PSTACK, 0, STACK
        ARGFRAME XSTACK, 12, STACK
        ARGFRAME IOVERLAY, 0, STATIC
        ARGFRAME DOVERLAY, 0, STATIC
        FUNCALL SampleApp_ProcessEvent, SampleApp_SerialCMD
        LOCFRAME ISTACK, 0, STACK
        LOCFRAME PSTACK, 0, STACK
        LOCFRAME XSTACK, 12, STACK
        LOCFRAME IOVERLAY, 0, STATIC
        LOCFRAME DOVERLAY, 0, STATIC
        ARGFRAME ISTACK, 0, STACK
        ARGFRAME PSTACK, 0, STACK
        ARGFRAME XSTACK, 12, STACK
        ARGFRAME IOVERLAY, 0, STATIC
        ARGFRAME DOVERLAY, 0, STATIC
        FUNCALL SampleApp_ProcessEvent, SampleApp_HandleKeys
        LOCFRAME ISTACK, 0, STACK
        LOCFRAME PSTACK, 0, STACK
        LOCFRAME XSTACK, 12, STACK
        LOCFRAME IOVERLAY, 0, STATIC
        LOCFRAME DOVERLAY, 0, STATIC
        ARGFRAME ISTACK, 0, STACK
        ARGFRAME PSTACK, 0, STACK
        ARGFRAME XSTACK, 12, STACK
        ARGFRAME IOVERLAY, 0, STATIC
        ARGFRAME DOVERLAY, 0, STATIC
        FUNCALL SampleApp_ProcessEvent, SampleApp_MessageMSGCB
        LOCFRAME ISTACK, 0, STACK
        LOCFRAME PSTACK, 0, STACK
        LOCFRAME XSTACK, 12, STACK
        LOCFRAME IOVERLAY, 0, STATIC
        LOCFRAME DOVERLAY, 0, STATIC
        ARGFRAME ISTACK, 0, STACK
        ARGFRAME PSTACK, 0, STACK
        ARGFRAME XSTACK, 12, STACK
        ARGFRAME IOVERLAY, 0, STATIC
        ARGFRAME DOVERLAY, 0, STATIC
        FUNCALL SampleApp_ProcessEvent, SampleApp_SendGroupMessage
        LOCFRAME ISTACK, 0, STACK
        LOCFRAME PSTACK, 0, STACK
        LOCFRAME XSTACK, 12, STACK
        LOCFRAME IOVERLAY, 0, STATIC
        LOCFRAME DOVERLAY, 0, STATIC
        ARGFRAME ISTACK, 0, STACK
        ARGFRAME PSTACK, 0, STACK
        ARGFRAME XSTACK, 12, STACK
        ARGFRAME IOVERLAY, 0, STATIC
        ARGFRAME DOVERLAY, 0, STATIC
        FUNCALL SampleApp_ProcessEvent, SampleApp_SendPointToPointMessage
        LOCFRAME ISTACK, 0, STACK
        LOCFRAME PSTACK, 0, STACK
        LOCFRAME XSTACK, 12, STACK
        LOCFRAME IOVERLAY, 0, STATIC
        LOCFRAME DOVERLAY, 0, STATIC
        ARGFRAME ISTACK, 0, STACK
        ARGFRAME PSTACK, 0, STACK
        ARGFRAME XSTACK, 12, STACK
        ARGFRAME IOVERLAY, 0, STATIC
        ARGFRAME DOVERLAY, 0, STATIC
        FUNCALL SampleApp_ProcessEvent, osal_rand
        LOCFRAME ISTACK, 0, STACK
        LOCFRAME PSTACK, 0, STACK
        LOCFRAME XSTACK, 12, STACK
        LOCFRAME IOVERLAY, 0, STATIC
        LOCFRAME DOVERLAY, 0, STATIC
        ARGFRAME ISTACK, 0, STACK
        ARGFRAME PSTACK, 0, STACK
        ARGFRAME XSTACK, 12, STACK
        ARGFRAME IOVERLAY, 0, STATIC
        ARGFRAME DOVERLAY, 0, STATIC
        FUNCALL SampleApp_ProcessEvent, osal_start_timerEx
        LOCFRAME ISTACK, 0, STACK
        LOCFRAME PSTACK, 0, STACK
        LOCFRAME XSTACK, 12, STACK
        LOCFRAME IOVERLAY, 0, STATIC
        LOCFRAME DOVERLAY, 0, STATIC
        ARGFRAME ISTACK, 0, STACK
        ARGFRAME PSTACK, 0, STACK
        ARGFRAME XSTACK, 12, STACK
        ARGFRAME IOVERLAY, 0, STATIC
        ARGFRAME DOVERLAY, 0, STATIC
        MOV     A,#-0xc
        LCALL   ?BANKED_ENTER_XDATA
        CFI DPH0 load(1, XDATA, add(CFA_XSP16, literal(-1)))
        CFI DPL0 load(1, XDATA, add(CFA_XSP16, literal(-2)))
        CFI ?BRET_EXT load(1, XDATA, add(CFA_XSP16, literal(-3)))
        CFI ?RET_HIGH load(1, XDATA, add(CFA_XSP16, literal(-4)))
        CFI ?RET_LOW load(1, XDATA, add(CFA_XSP16, literal(-5)))
        CFI R7 load(1, XDATA, add(CFA_XSP16, literal(-6)))
        CFI V3 load(1, XDATA, add(CFA_XSP16, literal(-7)))
        CFI V2 load(1, XDATA, add(CFA_XSP16, literal(-8)))
        CFI V1 load(1, XDATA, add(CFA_XSP16, literal(-9)))
        CFI V0 load(1, XDATA, add(CFA_XSP16, literal(-10)))
        CFI VB load(1, XDATA, add(CFA_XSP16, literal(-11)))
        CFI R6 load(1, XDATA, add(CFA_XSP16, literal(-12)))
        CFI CFA_SP SP+0
        CFI CFA_XSP16 add(XSP16, 12)
        ; Saved register size: 12
        ; Auto size: 0
        MOV     A,R2
        MOV     R6,A
        MOV     A,R3
        MOV     R7,A
//  453   afIncomingMSGPacket_t *MSGpkt;
//  454   (void)task_id;  // Intentionally unreferenced parameter
//  455 
//  456   if ( events & SYS_EVENT_MSG ) //系统信息发送事件
        ANL     A,#0x80
        JNZ     $+5
        LJMP    ??SampleApp_ProcessEvent_0 & 0xFFFF
//  457   {
//  458     MSGpkt = (afIncomingMSGPacket_t *)osal_msg_receive( SampleApp_TaskID );
        ; Setup parameters for call to function osal_msg_receive
        SJMP    ??SampleApp_ProcessEvent_1
//  459     while ( MSGpkt )
//  460     {
//  461       switch ( MSGpkt->hdr.event )
//  462       {
//  463         case CMD_SERIAL_MSG:    // 串口收到数据后由MT_UART层传递过的数据，用网蜂方法接收，编译时不定义MT相关内容
//  464             SampleApp_SerialCMD((mtOSALSerialData_t *)MSGpkt);
//  465             break;
//  466 
//  467         // Received when a key is pressed
//  468         case KEY_CHANGE: //按键事件及处理函数
//  469           //HalUARTWrite(0, "KEY ", 4);
//  470           SampleApp_HandleKeys( ((keyChange_t *)MSGpkt)->state, ((keyChange_t *)MSGpkt)->keys );
//  471           break;
//  472 
//  473         // Received when a messages is received (OTA) for this endpoint
//  474         // 接收处理函数
//  475         case AF_INCOMING_MSG_CMD:
//  476           SampleApp_MessageMSGCB( MSGpkt );
//  477           break;
//  478 
//  479         // Received whenever the device changes state in the network
//  480         case ZDO_STATE_CHANGE:  //网络状态改变，如未连接上网络
//  481           SampleApp_NwkState = (devStates_t)(MSGpkt->hdr.status);
??SampleApp_ProcessEvent_2:
        INC     DPTR
        MOVX    A,@DPTR
        MOV     DPTR,#SampleApp_NwkState
        MOVX    @DPTR,A
//  482           if ( (SampleApp_NwkState == DEV_ZB_COORD) //协调器
//  483               || (SampleApp_NwkState == DEV_ROUTER) //路由器
//  484               || (SampleApp_NwkState == DEV_END_DEVICE) ) //终端 都执行
        XRL     A,#0x9
        JZ      ??SampleApp_ProcessEvent_3
        MOVX    A,@DPTR
        XRL     A,#0x7
        JZ      ??SampleApp_ProcessEvent_3
        MOVX    A,@DPTR
        XRL     A,#0x6
        JNZ     ??SampleApp_ProcessEvent_4
//  485           {
//  486             // Start sending the periodic message in a regular interval.
//  487             osal_start_timerEx( SampleApp_TaskID,
//  488                               SAMPLEAPP_SEND_PERIODIC_MSG_EVT,
//  489                               SAMPLEAPP_SEND_PERIODIC_MSG_TIMEOUT );
??SampleApp_ProcessEvent_3:
        ; Setup parameters for call to function osal_start_timerEx
        MOV     R4,#-0x78
        MOV     R5,#0x13
        MOV     R2,#0x1
        MOV     R3,#0x0
        MOV     DPTR,#SampleApp_TaskID
        MOVX    A,@DPTR
        MOV     R1,A
        LCALL   ??osal_start_timerEx?relay
//  490           }
//  491           else
//  492           {
//  493             // Device is no longer in the network
//  494 //              HalUARTWrite(0,"网络断开",8);
//  495           }
//  496           break;
//  497 
//  498         default:
//  499           break;
//  500       }
//  501 
//  502       // Release the memory
//  503       osal_msg_deallocate( (uint8 *)MSGpkt );
??SampleApp_ProcessEvent_4:
        ; Setup parameters for call to function osal_msg_deallocate
        MOV     R2,?V0 + 0
        MOV     R3,?V0 + 1
        LCALL   ??osal_msg_deallocate?relay
//  504 
//  505       // Next - if one is available
//  506       MSGpkt = (afIncomingMSGPacket_t *)osal_msg_receive( SampleApp_TaskID );
        ; Setup parameters for call to function osal_msg_receive
??SampleApp_ProcessEvent_1:
        MOV     DPTR,#SampleApp_TaskID
        MOVX    A,@DPTR
        MOV     R1,A
        LCALL   ??osal_msg_receive?relay
        MOV     ?V0 + 0,R2
        MOV     ?V0 + 1,R3
        MOV     A,?V0 + 0
        ORL     A,?V0 + 1
        JZ      ??SampleApp_ProcessEvent_5
        MOV     DPL,?V0 + 0
        MOV     DPH,?V0 + 1
        MOVX    A,@DPTR
        DEC     A
        JZ      ??SampleApp_ProcessEvent_6
        ADD     A,#-0x19
        JZ      ??SampleApp_ProcessEvent_7
        ADD     A,#0x5a
        JZ      ??SampleApp_ProcessEvent_8
        ADD     A,#-0x11
        JZ      ??SampleApp_ProcessEvent_2
        SJMP    ??SampleApp_ProcessEvent_4
??SampleApp_ProcessEvent_6:
        ; Setup parameters for call to function SampleApp_SerialCMD
        MOV     R2,?V0 + 0
        MOV     R3,?V0 + 1
        LCALL   ??SampleApp_SerialCMD?relay
        SJMP    ??SampleApp_ProcessEvent_4
??SampleApp_ProcessEvent_8:
        ; Setup parameters for call to function SampleApp_HandleKeys
        INC     DPTR
        INC     DPTR
        INC     DPTR
        MOVX    A,@DPTR
        MOV     R2,A
        MOV     DPL,?V0 + 0
        MOV     DPH,?V0 + 1
        INC     DPTR
        INC     DPTR
        MOVX    A,@DPTR
        MOV     R1,A
        LCALL   ??SampleApp_HandleKeys?relay
        SJMP    ??SampleApp_ProcessEvent_4
??SampleApp_ProcessEvent_7:
        ; Setup parameters for call to function SampleApp_MessageMSGCB
        MOV     R2,?V0 + 0
        MOV     R3,?V0 + 1
        LCALL   ??SampleApp_MessageMSGCB?relay
        SJMP    ??SampleApp_ProcessEvent_4
//  507     }
//  508 
//  509     // return unprocessed events
//  510     return (events ^ SYS_EVENT_MSG);
??SampleApp_ProcessEvent_5:
        MOV     A,R6
        MOV     R2,A
        MOV     A,R7
        XRL     A,#0x80
??SampleApp_ProcessEvent_9:
        MOV     R3,A
        SJMP    ??SampleApp_ProcessEvent_10
//  511   }
//  512 
//  513   // Send a message out - This event is generated by a timer
//  514   //  (setup in SampleApp_Init()).
//  515   if ( events & SAMPLEAPP_SEND_PERIODIC_MSG_EVT )  //*****周期性发送函数*****
??SampleApp_ProcessEvent_0:
        MOV     A,R6
        MOV     C,0xE0 /* A   */.0
        JNC     ??SampleApp_ProcessEvent_11
//  516   {
//  517 
//  518 
//  519 /***********************************周期性发送函数****************************************/
//  520 
//  521     /*Send the periodic message*/
//  522     //SampleApp_SendPeriodicMessage(); //用户周期性广播发送函数
//  523 
//  524     if(_TURN == 0){
        MOV     DPTR,#_TURN
        MOVX    A,@DPTR
        JNZ     ??SampleApp_ProcessEvent_12
//  525       /*Group*/
//  526       SampleApp_SendGroupMessage(); //组播通讯程序
        ; Setup parameters for call to function SampleApp_SendGroupMessage
        LCALL   ??SampleApp_SendGroupMessage?relay
//  527       _TURN = 1;
        MOV     DPTR,#_TURN
        MOV     A,#0x1
        SJMP    ??SampleApp_ProcessEvent_13
//  528     }
//  529 
//  530     else{
//  531       /*Point_to_Point*/
//  532       SampleApp_SendPointToPointMessage(); //点对点发送函数
??SampleApp_ProcessEvent_12:
        ; Setup parameters for call to function SampleApp_SendPointToPointMessage
        LCALL   ??SampleApp_SendPointToPointMessage?relay
//  533       _TURN = 0;
        MOV     DPTR,#_TURN
        CLR     A
??SampleApp_ProcessEvent_13:
        MOVX    @DPTR,A
//  534     }
//  535 
//  536 /**********************************周期性发送函数*****************************************/
//  537 
//  538 
//  539 
//  540 
//  541     // Setup to send message again in normal period (+ a little jitter)
//  542     osal_start_timerEx( SampleApp_TaskID, SAMPLEAPP_SEND_PERIODIC_MSG_EVT,
//  543                        (SAMPLEAPP_SEND_PERIODIC_MSG_TIMEOUT + (osal_rand() & 0x00FF)) );
        ; Setup parameters for call to function osal_rand
        LCALL   ??osal_rand?relay
        ; Setup parameters for call to function osal_start_timerEx
        MOV     A,R2
        ADD     A,#-0x78
        MOV     R4,A
        CLR     A
        ADDC    A,#0x13
        MOV     R5,A
        MOV     R2,#0x1
        MOV     R3,#0x0
        MOV     DPTR,#SampleApp_TaskID
        MOVX    A,@DPTR
        MOV     R1,A
        LCALL   ??osal_start_timerEx?relay
//  544 
//  545     // return unprocessed events
//  546     return (events ^ SAMPLEAPP_SEND_PERIODIC_MSG_EVT);
        MOV     A,R6
        XRL     A,#0x1
        MOV     R2,A
        MOV     A,R7
        SJMP    ??SampleApp_ProcessEvent_9
//  547 
//  548   }
//  549 
//  550   // Discard unknown events
//  551   return 0;
??SampleApp_ProcessEvent_11:
        MOV     R2,#0x0
        MOV     R3,#0x0
        CFI EndBlock cfiBlock26
??SampleApp_ProcessEvent_10:
        REQUIRE ?Subroutine1
        ; // Fall through to label ?Subroutine1
//  552 }

        RSEG BANKED_CODE:CODE:NOROOT(0)
?Subroutine1:
        CFI Block cfiBlock27 Using cfiCommon0
        CFI NoFunction
        CFI CFA_SP SP+0
        CFI CFA_XSP16 add(XSP16, 12)
        CFI VB load(1, XDATA, add(CFA_XSP16, literal(-11)))
        CFI DPL0 load(1, XDATA, add(CFA_XSP16, literal(-2)))
        CFI DPH0 load(1, XDATA, add(CFA_XSP16, literal(-1)))
        CFI R6 load(1, XDATA, add(CFA_XSP16, literal(-12)))
        CFI R7 load(1, XDATA, add(CFA_XSP16, literal(-6)))
        CFI V0 load(1, XDATA, add(CFA_XSP16, literal(-10)))
        CFI V1 load(1, XDATA, add(CFA_XSP16, literal(-9)))
        CFI V2 load(1, XDATA, add(CFA_XSP16, literal(-8)))
        CFI V3 load(1, XDATA, add(CFA_XSP16, literal(-7)))
        CFI ?BRET_EXT load(1, XDATA, add(CFA_XSP16, literal(-3)))
        CFI ?RET_HIGH load(1, XDATA, add(CFA_XSP16, literal(-4)))
        CFI ?RET_LOW load(1, XDATA, add(CFA_XSP16, literal(-5)))
        MOV     R7,#0x4
        LJMP    ?BANKED_LEAVE_XDATA
        CFI EndBlock cfiBlock27
//  553 
//  554 
//  555 
//  556 
//  557 
//  558 
//  559 
//  560 /********************************************************
//  561                     组播 发送函数
//  562 *********************************************************/

        RSEG BANKED_CODE:CODE:NOROOT(0)
//  563 void SampleApp_SendGroupMessage( void )
SampleApp_SendGroupMessage:
        CFI Block cfiBlock28 Using cfiCommon0
        CFI Function SampleApp_SendGroupMessage
        CODE
//  564 {
        FUNCALL SampleApp_SendGroupMessage, AF_DataRequest
        LOCFRAME ISTACK, 0, STACK
        LOCFRAME PSTACK, 0, STACK
        LOCFRAME XSTACK, 19, STACK
        LOCFRAME IOVERLAY, 0, STATIC
        LOCFRAME DOVERLAY, 0, STATIC
        ARGFRAME ISTACK, 0, STACK
        ARGFRAME PSTACK, 0, STACK
        ARGFRAME XSTACK, 19, STACK
        ARGFRAME IOVERLAY, 0, STATIC
        ARGFRAME DOVERLAY, 0, STATIC
        MOV     A,#-0xa
        LCALL   ?BANKED_ENTER_XDATA
        CFI DPH0 load(1, XDATA, add(CFA_XSP16, literal(-1)))
        CFI DPL0 load(1, XDATA, add(CFA_XSP16, literal(-2)))
        CFI ?BRET_EXT load(1, XDATA, add(CFA_XSP16, literal(-3)))
        CFI ?RET_HIGH load(1, XDATA, add(CFA_XSP16, literal(-4)))
        CFI ?RET_LOW load(1, XDATA, add(CFA_XSP16, literal(-5)))
        CFI R7 load(1, XDATA, add(CFA_XSP16, literal(-6)))
        CFI V1 load(1, XDATA, add(CFA_XSP16, literal(-7)))
        CFI V0 load(1, XDATA, add(CFA_XSP16, literal(-8)))
        CFI VB load(1, XDATA, add(CFA_XSP16, literal(-9)))
        CFI R6 load(1, XDATA, add(CFA_XSP16, literal(-10)))
        CFI CFA_SP SP+0
        CFI CFA_XSP16 add(XSP16, 10)
        ; Saved register size: 10
        ; Auto size: 0
//  565   //uint8 data[10]={'G','R','O','U','P',' ','1',' ','r','4'};// 自定义数据
//  566   if ( AF_DataRequest( & SampleApp_Flash_DstAddr,
//  567                       &SampleApp_epDesc,
//  568                       SAMPLEAPP_FLASH_CLUSTERID,
//  569                       1,
//  570                       (uint8*)&SampleAppPeriodicCounter, //要发送的内容
//  571                       &SampleApp_TransID,
//  572                       AF_DISCV_ROUTE,
//  573                       AF_DEFAULT_RADIUS ) == afStatus_SUCCESS )
        ; Setup parameters for call to function AF_DataRequest
        MOV     ?V0 + 0,#0x1e
        MOV     R0,#?V0 + 0
        LCALL   ?PUSH_XSTACK_I_ONE
        CFI CFA_XSP16 add(XSP16, 11)
        MOV     ?V0 + 0,#SampleApp_TransID & 0xff
        MOV     ?V0 + 1,#(SampleApp_TransID >> 8) & 0xff
        MOV     R0,#?V0 + 0
        LCALL   ?PUSH_XSTACK_I_TWO
        CFI CFA_XSP16 add(XSP16, 13)
        MOV     ?V0 + 0,#SampleAppPeriodicCounter & 0xff
        MOV     ?V0 + 1,#(SampleAppPeriodicCounter >> 8) & 0xff
        MOV     R0,#?V0 + 0
        LCALL   ?PUSH_XSTACK_I_TWO
        CFI CFA_XSP16 add(XSP16, 15)
        MOV     ?V0 + 0,#0x1
        MOV     ?V0 + 1,#0x0
        MOV     R0,#?V0 + 0
        LCALL   ?PUSH_XSTACK_I_TWO
        CFI CFA_XSP16 add(XSP16, 17)
        MOV     ?V0 + 0,#0x2
        MOV     R0,#?V0 + 0
        LCALL   ?PUSH_XSTACK_I_TWO
        CFI CFA_XSP16 add(XSP16, 19)
        MOV     R1,#0x20
        MOV     R4,#SampleApp_epDesc & 0xff
        MOV     R5,#(SampleApp_epDesc >> 8) & 0xff
        MOV     R2,#SampleApp_Flash_DstAddr & 0xff
        MOV     R3,#(SampleApp_Flash_DstAddr >> 8) & 0xff
        LCALL   ??Subroutine65_0 & 0xFFFF
??CrossCallReturnLabel_113:
        LJMP    ?Subroutine0 & 0xFFFF
        CFI EndBlock cfiBlock28
//  574   {
//  575   }
//  576   else
//  577   {
//  578     // Error occurred in request to send.
//  579   }
//  580 }
//  581 
//  582 
//  583 /*********************************************************************
//  584  * @fn      SampleApp_SendPeriodicMessage
//  585  *
//  586  * @brief   Send the periodic message.
//  587  *
//  588  * @param   none
//  589  *
//  590  * @return  none
//  591  *
//  592  *********************************************************
//  593                     周期性广播 发送函数
//  594  **********************************************************/

        RSEG BANKED_CODE:CODE:NOROOT(0)
//  595 void SampleApp_SendPeriodicMessage( void )
SampleApp_SendPeriodicMessage:
        CFI Block cfiBlock29 Using cfiCommon0
        CFI Function SampleApp_SendPeriodicMessage
        CODE
//  596 {
        FUNCALL SampleApp_SendPeriodicMessage, AF_DataRequest
        LOCFRAME ISTACK, 0, STACK
        LOCFRAME PSTACK, 0, STACK
        LOCFRAME XSTACK, 19, STACK
        LOCFRAME IOVERLAY, 0, STATIC
        LOCFRAME DOVERLAY, 0, STATIC
        ARGFRAME ISTACK, 0, STACK
        ARGFRAME PSTACK, 0, STACK
        ARGFRAME XSTACK, 19, STACK
        ARGFRAME IOVERLAY, 0, STATIC
        ARGFRAME DOVERLAY, 0, STATIC
        FUNCALL SampleApp_SendPeriodicMessage, HalLedBlink
        LOCFRAME ISTACK, 0, STACK
        LOCFRAME PSTACK, 0, STACK
        LOCFRAME XSTACK, 10, STACK
        LOCFRAME IOVERLAY, 0, STATIC
        LOCFRAME DOVERLAY, 0, STATIC
        ARGFRAME ISTACK, 0, STACK
        ARGFRAME PSTACK, 0, STACK
        ARGFRAME XSTACK, 10, STACK
        ARGFRAME IOVERLAY, 0, STATIC
        ARGFRAME DOVERLAY, 0, STATIC
        MOV     A,#-0xa
        LCALL   ?BANKED_ENTER_XDATA
        CFI DPH0 load(1, XDATA, add(CFA_XSP16, literal(-1)))
        CFI DPL0 load(1, XDATA, add(CFA_XSP16, literal(-2)))
        CFI ?BRET_EXT load(1, XDATA, add(CFA_XSP16, literal(-3)))
        CFI ?RET_HIGH load(1, XDATA, add(CFA_XSP16, literal(-4)))
        CFI ?RET_LOW load(1, XDATA, add(CFA_XSP16, literal(-5)))
        CFI R7 load(1, XDATA, add(CFA_XSP16, literal(-6)))
        CFI V1 load(1, XDATA, add(CFA_XSP16, literal(-7)))
        CFI V0 load(1, XDATA, add(CFA_XSP16, literal(-8)))
        CFI VB load(1, XDATA, add(CFA_XSP16, literal(-9)))
        CFI R6 load(1, XDATA, add(CFA_XSP16, literal(-10)))
        CFI CFA_SP SP+0
        CFI CFA_XSP16 add(XSP16, 10)
        ; Saved register size: 10
        ; Auto size: 0
//  597   unsigned int flashTime=1000;
//  598   if ( AF_DataRequest( &SampleApp_Periodic_DstAddr, &SampleApp_epDesc,
//  599                        SAMPLEAPP_PERIODIC_CLUSTERID,
//  600                        1,  //数据长度
//  601                        (uint8*)&SampleAppPeriodicCounter, //要发送的内容
//  602                        &SampleApp_TransID,
//  603                        AF_DISCV_ROUTE,
//  604                        AF_DEFAULT_RADIUS ) == afStatus_SUCCESS )
        ; Setup parameters for call to function AF_DataRequest
        MOV     ?V0 + 0,#0x1e
        MOV     R0,#?V0 + 0
        LCALL   ?PUSH_XSTACK_I_ONE
        CFI CFA_XSP16 add(XSP16, 11)
        MOV     ?V0 + 0,#SampleApp_TransID & 0xff
        MOV     ?V0 + 1,#(SampleApp_TransID >> 8) & 0xff
        MOV     R0,#?V0 + 0
        LCALL   ?PUSH_XSTACK_I_TWO
        CFI CFA_XSP16 add(XSP16, 13)
        MOV     ?V0 + 0,#SampleAppPeriodicCounter & 0xff
        MOV     ?V0 + 1,#(SampleAppPeriodicCounter >> 8) & 0xff
        MOV     R0,#?V0 + 0
        LCALL   ?PUSH_XSTACK_I_TWO
        CFI CFA_XSP16 add(XSP16, 15)
        MOV     ?V0 + 0,#0x1
        MOV     ?V0 + 1,#0x0
        MOV     R0,#?V0 + 0
        LCALL   ?PUSH_XSTACK_I_TWO
        CFI CFA_XSP16 add(XSP16, 17)
        MOV     R0,#?V0 + 0
        LCALL   ?PUSH_XSTACK_I_TWO
        CFI CFA_XSP16 add(XSP16, 19)
        MOV     R1,#0x20
        MOV     R4,#SampleApp_epDesc & 0xff
        MOV     R5,#(SampleApp_epDesc >> 8) & 0xff
        MOV     R2,#SampleApp_Periodic_DstAddr & 0xff
        MOV     R3,#(SampleApp_Periodic_DstAddr >> 8) & 0xff
        LCALL   ??Subroutine65_0 & 0xFFFF
??CrossCallReturnLabel_114:
        LCALL   ?DEALLOC_XSTACK8
        CFI CFA_XSP16 add(XSP16, 10)
        MOV     A,R1
        JNZ     ??SampleApp_SendPeriodicMessage_0
//  605   {
//  606     HalLedBlink( HAL_LED_1, 1, 60, (flashTime / 3) );
        ; Setup parameters for call to function HalLedBlink
        MOV     R4,#0x4d
        MOV     R5,#0x1
        MOV     R3,#0x3c
        MOV     R2,#0x1
        MOV     R1,#0x1
        LCALL   ??HalLedBlink?relay
//  607   }
//  608   else
//  609   {
//  610     // Error occurred in request to send.
//  611   }
//  612 }
??SampleApp_SendPeriodicMessage_0:
        LJMP    ??Subroutine76_0 & 0xFFFF
        CFI EndBlock cfiBlock29
//  613 
//  614 
//  615 /*********************************************************************
//  616  * @fn      SampleApp_SendFlashMessage
//  617  *
//  618  * @brief   Send the flash message to group 1.
//  619  *
//  620  * @param   flashTime - in milliseconds
//  621  *
//  622  * @return  none
//  623  */

        RSEG BANKED_CODE:CODE:NOROOT(0)
//  624 void SampleApp_SendFlashMessage( uint16 flashTime )
SampleApp_SendFlashMessage:
        CFI Block cfiBlock30 Using cfiCommon0
        CFI Function SampleApp_SendFlashMessage
        CODE
//  625 {
        FUNCALL SampleApp_SendFlashMessage, AF_DataRequest
        LOCFRAME ISTACK, 0, STACK
        LOCFRAME PSTACK, 0, STACK
        LOCFRAME XSTACK, 22, STACK
        LOCFRAME IOVERLAY, 0, STATIC
        LOCFRAME DOVERLAY, 0, STATIC
        ARGFRAME ISTACK, 0, STACK
        ARGFRAME PSTACK, 0, STACK
        ARGFRAME XSTACK, 22, STACK
        ARGFRAME IOVERLAY, 0, STATIC
        ARGFRAME DOVERLAY, 0, STATIC
        MOV     A,#-0xa
        LCALL   ?BANKED_ENTER_XDATA
        CFI DPH0 load(1, XDATA, add(CFA_XSP16, literal(-1)))
        CFI DPL0 load(1, XDATA, add(CFA_XSP16, literal(-2)))
        CFI ?BRET_EXT load(1, XDATA, add(CFA_XSP16, literal(-3)))
        CFI ?RET_HIGH load(1, XDATA, add(CFA_XSP16, literal(-4)))
        CFI ?RET_LOW load(1, XDATA, add(CFA_XSP16, literal(-5)))
        CFI R7 load(1, XDATA, add(CFA_XSP16, literal(-6)))
        CFI V1 load(1, XDATA, add(CFA_XSP16, literal(-7)))
        CFI V0 load(1, XDATA, add(CFA_XSP16, literal(-8)))
        CFI VB load(1, XDATA, add(CFA_XSP16, literal(-9)))
        CFI R6 load(1, XDATA, add(CFA_XSP16, literal(-10)))
        CFI CFA_SP SP+0
        CFI CFA_XSP16 add(XSP16, 10)
        ; Saved register size: 10
        ; Auto size: 3
        MOV     A,#-0x3
        LCALL   ?ALLOC_XSTACK8
        CFI CFA_XSP16 add(XSP16, 13)
//  626   uint8 buffer[3];
//  627   buffer[0] = (uint8)(SampleAppFlashCounter++);
        MOV     DPTR,#SampleAppFlashCounter
        MOVX    A,@DPTR
        MOV     DPL,?XSP + 0
        MOV     DPH,?XSP + 1
        MOVX    @DPTR,A
        MOV     DPTR,#SampleAppFlashCounter
        MOVX    A,@DPTR
        INC     A
        MOVX    @DPTR,A
//  628   buffer[1] = LO_UINT16( flashTime );
        MOV     A,#0x1
        LCALL   ?XSTACK_DISP0_8
        MOV     A,R2
        MOVX    @DPTR,A
//  629   buffer[2] = HI_UINT16( flashTime );
        MOV     A,#0x2
        LCALL   ?XSTACK_DISP0_8
        MOV     A,R3
        LCALL   ??Subroutine70_0 & 0xFFFF
//  630 
//  631   if ( AF_DataRequest( &SampleApp_Flash_DstAddr, &SampleApp_epDesc,
//  632                        SAMPLEAPP_FLASH_CLUSTERID,
//  633                        3,
//  634                        buffer,
//  635                        &SampleApp_TransID,
//  636                        AF_DISCV_ROUTE,
//  637                        AF_DEFAULT_RADIUS ) == afStatus_SUCCESS )
??CrossCallReturnLabel_141:
        LCALL   ?PUSH_XSTACK_I_ONE
        CFI CFA_XSP16 add(XSP16, 14)
        MOV     ?V0 + 0,#SampleApp_TransID & 0xff
        MOV     ?V0 + 1,#(SampleApp_TransID >> 8) & 0xff
        MOV     R0,#?V0 + 0
        LCALL   ?PUSH_XSTACK_I_TWO
        CFI CFA_XSP16 add(XSP16, 16)
        MOV     A,#0x3
        LCALL   ?XSTACK_DISP0_8
        MOV     ?V0 + 0,DPL
        MOV     ?V0 + 1,DPH
        MOV     R0,#?V0 + 0
        LCALL   ?PUSH_XSTACK_I_TWO
        CFI CFA_XSP16 add(XSP16, 18)
        MOV     ?V0 + 0,#0x3
        MOV     ?V0 + 1,#0x0
        MOV     R0,#?V0 + 0
        LCALL   ?PUSH_XSTACK_I_TWO
        CFI CFA_XSP16 add(XSP16, 20)
        MOV     ?V0 + 0,#0x2
        MOV     R0,#?V0 + 0
        LCALL   ?PUSH_XSTACK_I_TWO
        CFI CFA_XSP16 add(XSP16, 22)
        MOV     R1,#0x20
        MOV     R4,#SampleApp_epDesc & 0xff
        MOV     R5,#(SampleApp_epDesc >> 8) & 0xff
        MOV     R2,#SampleApp_Flash_DstAddr & 0xff
        MOV     R3,#(SampleApp_Flash_DstAddr >> 8) & 0xff
        LCALL   ??Subroutine65_0 & 0xFFFF
??CrossCallReturnLabel_115:
        LCALL   ?DEALLOC_XSTACK8
        CFI CFA_XSP16 add(XSP16, 13)
//  638   {
//  639   }
//  640   else
//  641   {
//  642     // Error occurred in request to send.
//  643   }
//  644 }
        MOV     A,#0x3
        LJMP    ?Subroutine0 & 0xFFFF
        CFI EndBlock cfiBlock30
//  645 
//  646 
//  647 
//  648 
//  649 /*********************************************************************
//  650  * Event Generation Functions
//  651  */
//  652 /*********************************************************************
//  653  * @fn      SampleApp_HandleKeys 按键处理函数
//  654  *
//  655  * @brief   Handles all key events for this device.
//  656  *
//  657  * @param   shift - true if in shift/alt.
//  658  * @param   keys - bit field for key events. Valid entries:
//  659  *                 HAL_KEY_SW_2
//  660  *                 HAL_KEY_SW_1
//  661  *
//  662  * @return  none
//  663  */

        RSEG BANKED_CODE:CODE:NOROOT(0)
//  664 void SampleApp_HandleKeys( uint8 shift, uint8 keys )
SampleApp_HandleKeys:
        CFI Block cfiBlock31 Using cfiCommon0
        CFI Function SampleApp_HandleKeys
        CODE
//  665 {
        FUNCALL SampleApp_HandleKeys, aps_FindGroup
        LOCFRAME ISTACK, 0, STACK
        LOCFRAME PSTACK, 0, STACK
        LOCFRAME XSTACK, 10, STACK
        LOCFRAME IOVERLAY, 0, STATIC
        LOCFRAME DOVERLAY, 0, STATIC
        ARGFRAME ISTACK, 0, STACK
        ARGFRAME PSTACK, 0, STACK
        ARGFRAME XSTACK, 10, STACK
        ARGFRAME IOVERLAY, 0, STATIC
        ARGFRAME DOVERLAY, 0, STATIC
        FUNCALL SampleApp_HandleKeys, aps_RemoveGroup
        LOCFRAME ISTACK, 0, STACK
        LOCFRAME PSTACK, 0, STACK
        LOCFRAME XSTACK, 10, STACK
        LOCFRAME IOVERLAY, 0, STATIC
        LOCFRAME DOVERLAY, 0, STATIC
        ARGFRAME ISTACK, 0, STACK
        ARGFRAME PSTACK, 0, STACK
        ARGFRAME XSTACK, 10, STACK
        ARGFRAME IOVERLAY, 0, STATIC
        ARGFRAME DOVERLAY, 0, STATIC
        FUNCALL SampleApp_HandleKeys, aps_AddGroup
        LOCFRAME ISTACK, 0, STACK
        LOCFRAME PSTACK, 0, STACK
        LOCFRAME XSTACK, 10, STACK
        LOCFRAME IOVERLAY, 0, STATIC
        LOCFRAME DOVERLAY, 0, STATIC
        ARGFRAME ISTACK, 0, STACK
        ARGFRAME PSTACK, 0, STACK
        ARGFRAME XSTACK, 10, STACK
        ARGFRAME IOVERLAY, 0, STATIC
        ARGFRAME DOVERLAY, 0, STATIC
        FUNCALL SampleApp_HandleKeys, HalUARTWrite
        LOCFRAME ISTACK, 0, STACK
        LOCFRAME PSTACK, 0, STACK
        LOCFRAME XSTACK, 10, STACK
        LOCFRAME IOVERLAY, 0, STATIC
        LOCFRAME DOVERLAY, 0, STATIC
        ARGFRAME ISTACK, 0, STACK
        ARGFRAME PSTACK, 0, STACK
        ARGFRAME XSTACK, 10, STACK
        ARGFRAME IOVERLAY, 0, STATIC
        ARGFRAME DOVERLAY, 0, STATIC
        FUNCALL SampleApp_HandleKeys, Show_Bit
        LOCFRAME ISTACK, 0, STACK
        LOCFRAME PSTACK, 0, STACK
        LOCFRAME XSTACK, 10, STACK
        LOCFRAME IOVERLAY, 0, STATIC
        LOCFRAME DOVERLAY, 0, STATIC
        ARGFRAME ISTACK, 0, STACK
        ARGFRAME PSTACK, 0, STACK
        ARGFRAME XSTACK, 10, STACK
        ARGFRAME IOVERLAY, 0, STATIC
        ARGFRAME DOVERLAY, 0, STATIC
        FUNCALL SampleApp_HandleKeys, HalUARTWrite
        LOCFRAME ISTACK, 0, STACK
        LOCFRAME PSTACK, 0, STACK
        LOCFRAME XSTACK, 10, STACK
        LOCFRAME IOVERLAY, 0, STATIC
        LOCFRAME DOVERLAY, 0, STATIC
        ARGFRAME ISTACK, 0, STACK
        ARGFRAME PSTACK, 0, STACK
        ARGFRAME XSTACK, 10, STACK
        ARGFRAME IOVERLAY, 0, STATIC
        ARGFRAME DOVERLAY, 0, STATIC
        FUNCALL SampleApp_HandleKeys, Power_of_2
        LOCFRAME ISTACK, 0, STACK
        LOCFRAME PSTACK, 0, STACK
        LOCFRAME XSTACK, 10, STACK
        LOCFRAME IOVERLAY, 0, STATIC
        LOCFRAME DOVERLAY, 0, STATIC
        ARGFRAME ISTACK, 0, STACK
        ARGFRAME PSTACK, 0, STACK
        ARGFRAME XSTACK, 10, STACK
        ARGFRAME IOVERLAY, 0, STATIC
        ARGFRAME DOVERLAY, 0, STATIC
        FUNCALL SampleApp_HandleKeys, Show_Bit
        LOCFRAME ISTACK, 0, STACK
        LOCFRAME PSTACK, 0, STACK
        LOCFRAME XSTACK, 10, STACK
        LOCFRAME IOVERLAY, 0, STATIC
        LOCFRAME DOVERLAY, 0, STATIC
        ARGFRAME ISTACK, 0, STACK
        ARGFRAME PSTACK, 0, STACK
        ARGFRAME XSTACK, 10, STACK
        ARGFRAME IOVERLAY, 0, STATIC
        ARGFRAME DOVERLAY, 0, STATIC
        FUNCALL SampleApp_HandleKeys, HalUARTWrite
        LOCFRAME ISTACK, 0, STACK
        LOCFRAME PSTACK, 0, STACK
        LOCFRAME XSTACK, 10, STACK
        LOCFRAME IOVERLAY, 0, STATIC
        LOCFRAME DOVERLAY, 0, STATIC
        ARGFRAME ISTACK, 0, STACK
        ARGFRAME PSTACK, 0, STACK
        ARGFRAME XSTACK, 10, STACK
        ARGFRAME IOVERLAY, 0, STATIC
        ARGFRAME DOVERLAY, 0, STATIC
        FUNCALL SampleApp_HandleKeys, Show_Num
        LOCFRAME ISTACK, 0, STACK
        LOCFRAME PSTACK, 0, STACK
        LOCFRAME XSTACK, 10, STACK
        LOCFRAME IOVERLAY, 0, STATIC
        LOCFRAME DOVERLAY, 0, STATIC
        ARGFRAME ISTACK, 0, STACK
        ARGFRAME PSTACK, 0, STACK
        ARGFRAME XSTACK, 10, STACK
        ARGFRAME IOVERLAY, 0, STATIC
        ARGFRAME DOVERLAY, 0, STATIC
        FUNCALL SampleApp_HandleKeys, HalUARTWrite
        LOCFRAME ISTACK, 0, STACK
        LOCFRAME PSTACK, 0, STACK
        LOCFRAME XSTACK, 10, STACK
        LOCFRAME IOVERLAY, 0, STATIC
        LOCFRAME DOVERLAY, 0, STATIC
        ARGFRAME ISTACK, 0, STACK
        ARGFRAME PSTACK, 0, STACK
        ARGFRAME XSTACK, 10, STACK
        ARGFRAME IOVERLAY, 0, STATIC
        ARGFRAME DOVERLAY, 0, STATIC
        FUNCALL SampleApp_HandleKeys, Show_Bit
        LOCFRAME ISTACK, 0, STACK
        LOCFRAME PSTACK, 0, STACK
        LOCFRAME XSTACK, 10, STACK
        LOCFRAME IOVERLAY, 0, STATIC
        LOCFRAME DOVERLAY, 0, STATIC
        ARGFRAME ISTACK, 0, STACK
        ARGFRAME PSTACK, 0, STACK
        ARGFRAME XSTACK, 10, STACK
        ARGFRAME IOVERLAY, 0, STATIC
        ARGFRAME DOVERLAY, 0, STATIC
        FUNCALL SampleApp_HandleKeys, HalUARTWrite
        LOCFRAME ISTACK, 0, STACK
        LOCFRAME PSTACK, 0, STACK
        LOCFRAME XSTACK, 10, STACK
        LOCFRAME IOVERLAY, 0, STATIC
        LOCFRAME DOVERLAY, 0, STATIC
        ARGFRAME ISTACK, 0, STACK
        ARGFRAME PSTACK, 0, STACK
        ARGFRAME XSTACK, 10, STACK
        ARGFRAME IOVERLAY, 0, STATIC
        ARGFRAME DOVERLAY, 0, STATIC
        FUNCALL SampleApp_HandleKeys, Show_Bit
        LOCFRAME ISTACK, 0, STACK
        LOCFRAME PSTACK, 0, STACK
        LOCFRAME XSTACK, 10, STACK
        LOCFRAME IOVERLAY, 0, STATIC
        LOCFRAME DOVERLAY, 0, STATIC
        ARGFRAME ISTACK, 0, STACK
        ARGFRAME PSTACK, 0, STACK
        ARGFRAME XSTACK, 10, STACK
        ARGFRAME IOVERLAY, 0, STATIC
        ARGFRAME DOVERLAY, 0, STATIC
        FUNCALL SampleApp_HandleKeys, HalUARTWrite
        LOCFRAME ISTACK, 0, STACK
        LOCFRAME PSTACK, 0, STACK
        LOCFRAME XSTACK, 10, STACK
        LOCFRAME IOVERLAY, 0, STATIC
        LOCFRAME DOVERLAY, 0, STATIC
        ARGFRAME ISTACK, 0, STACK
        ARGFRAME PSTACK, 0, STACK
        ARGFRAME XSTACK, 10, STACK
        ARGFRAME IOVERLAY, 0, STATIC
        ARGFRAME DOVERLAY, 0, STATIC
        FUNCALL SampleApp_HandleKeys, HalUARTWrite
        LOCFRAME ISTACK, 0, STACK
        LOCFRAME PSTACK, 0, STACK
        LOCFRAME XSTACK, 10, STACK
        LOCFRAME IOVERLAY, 0, STATIC
        LOCFRAME DOVERLAY, 0, STATIC
        ARGFRAME ISTACK, 0, STACK
        ARGFRAME PSTACK, 0, STACK
        ARGFRAME XSTACK, 10, STACK
        ARGFRAME IOVERLAY, 0, STATIC
        ARGFRAME DOVERLAY, 0, STATIC
        FUNCALL SampleApp_HandleKeys, Show_Num
        LOCFRAME ISTACK, 0, STACK
        LOCFRAME PSTACK, 0, STACK
        LOCFRAME XSTACK, 10, STACK
        LOCFRAME IOVERLAY, 0, STATIC
        LOCFRAME DOVERLAY, 0, STATIC
        ARGFRAME ISTACK, 0, STACK
        ARGFRAME PSTACK, 0, STACK
        ARGFRAME XSTACK, 10, STACK
        ARGFRAME IOVERLAY, 0, STATIC
        ARGFRAME DOVERLAY, 0, STATIC
        FUNCALL SampleApp_HandleKeys, HalUARTWrite
        LOCFRAME ISTACK, 0, STACK
        LOCFRAME PSTACK, 0, STACK
        LOCFRAME XSTACK, 10, STACK
        LOCFRAME IOVERLAY, 0, STATIC
        LOCFRAME DOVERLAY, 0, STATIC
        ARGFRAME ISTACK, 0, STACK
        ARGFRAME PSTACK, 0, STACK
        ARGFRAME XSTACK, 10, STACK
        ARGFRAME IOVERLAY, 0, STATIC
        ARGFRAME DOVERLAY, 0, STATIC
        MOV     A,#-0xa
        LCALL   ?BANKED_ENTER_XDATA
        CFI DPH0 load(1, XDATA, add(CFA_XSP16, literal(-1)))
        CFI DPL0 load(1, XDATA, add(CFA_XSP16, literal(-2)))
        CFI ?BRET_EXT load(1, XDATA, add(CFA_XSP16, literal(-3)))
        CFI ?RET_HIGH load(1, XDATA, add(CFA_XSP16, literal(-4)))
        CFI ?RET_LOW load(1, XDATA, add(CFA_XSP16, literal(-5)))
        CFI R7 load(1, XDATA, add(CFA_XSP16, literal(-6)))
        CFI V1 load(1, XDATA, add(CFA_XSP16, literal(-7)))
        CFI V0 load(1, XDATA, add(CFA_XSP16, literal(-8)))
        CFI VB load(1, XDATA, add(CFA_XSP16, literal(-9)))
        CFI R6 load(1, XDATA, add(CFA_XSP16, literal(-10)))
        CFI CFA_SP SP+0
        CFI CFA_XSP16 add(XSP16, 10)
        ; Saved register size: 10
        ; Auto size: 0
        MOV     A,R2
        MOV     R7,A
//  666   (void)shift;  // Intentionally unreferenced parameter
//  667 
//  668   if ( keys & HAL_KEY_SW_1 )
//  669   {
//  670     /* This key sends the Flash Command is sent to Group 1.
//  671     * This device will not receive the Flash Command from this
//  672     * device (even if it belongs to group 1).
//  673     */
//  674     //SampleApp_SendFlashMessage( SAMPLEAPP_FLASH_DURATION );
//  675   }
//  676 
//  677   if ( keys & HAL_KEY_SW_2 )
        MOV     C,0xE0 /* A   */.1
        JNC     ??SampleApp_HandleKeys_0
//  678   {
//  679     /* The Flashr Command is sent to Group 1.
//  680     * This key toggles this device in and out of group 1.
//  681     * If this device doesn't belong to group 1, this application
//  682     * will not receive the Flash command sent to group 1.
//  683     */
//  684     aps_Group_t *grp;
//  685     grp = aps_FindGroup( SAMPLEAPP_ENDPOINT, SAMPLEAPP_FLASH_GROUP );
//  686     if ( grp )
        ; Setup parameters for call to function aps_FindGroup
        MOV     R2,#0x2
        MOV     R3,#0x0
        MOV     R1,#0x14
        LCALL   ??aps_FindGroup?relay
        MOV     ?V0 + 1,R3
        MOV     A,R2
        ORL     A,?V0 + 1
        JZ      ??SampleApp_HandleKeys_1
//  687     {
//  688       // Remove from the group
//  689       aps_RemoveGroup( SAMPLEAPP_ENDPOINT, SAMPLEAPP_FLASH_GROUP );
        ; Setup parameters for call to function aps_RemoveGroup
        MOV     R2,#0x2
        MOV     R3,#0x0
        MOV     R1,#0x14
        LCALL   ??aps_RemoveGroup?relay
        SJMP    ??SampleApp_HandleKeys_0
//  690     }
//  691     else
//  692     {
//  693       // Add to the flash group
//  694       aps_AddGroup( SAMPLEAPP_ENDPOINT, &SampleApp_Group );
??SampleApp_HandleKeys_1:
        ; Setup parameters for call to function aps_AddGroup
        MOV     R2,#SampleApp_Group & 0xff
        MOV     R3,#(SampleApp_Group >> 8) & 0xff
        MOV     R1,#0x14
        LCALL   ??aps_AddGroup?relay
//  695     }
//  696   }
//  697   //判断按键S2按下，发送数据到串口
//  698   if ( keys & HAL_KEY_SW_6 )
??SampleApp_HandleKeys_0:
        MOV     A,R7
        MOV     C,0xE0 /* A   */.5
        JC      $+5
        LJMP    ??CrossCallReturnLabel_66 & 0xFFFF
//  699   {
//  700 //    int self_addr_10 = NLME_GetShortAddr();
//  701 //    int neig_addr_10;
//  702 //    uchar Self_ADDR[4]; //16进制地址格式
//  703 //    uchar Neig_ADDR[4];
//  704 //    uchar Num[2];
//  705 
//  706     //串口输出自身地址
//  707 //    HalUARTWrite(0,"自身地址为: 0x",strlen("自身地址为: 0x"));
//  708 //    if(self_addr_10 == 0)
//  709 //    {
//  710 //      HalUARTWrite(0,"0000",4);
//  711 //      HalUARTWrite(0,"\n",1);
//  712 //    }
//  713 //    else
//  714 //    {
//  715 //      sprintf((char*)Self_ADDR, "%X", self_addr_10); //10进制整型转换成16进制字符串
//  716 //
//  717 //      for (int i=0;i<4;++i)
//  718 //      {
//  719 //        HalUARTWrite(0,&Self_ADDR[i],1);
//  720 //      }
//  721 //      HalUARTWrite(0,"\n",1);
//  722 //    }
//  723 
//  724     //串口输出源数据
//  725     HalUARTWrite(0,"\nsource_data: ",14);
        ; Setup parameters for call to function HalUARTWrite
        MOV     R4,#0xe
        MOV     R5,#0x0
        MOV     R2,#`?<Constant "\\nsource_data: ">` & 0xff
        MOV     R3,#(`?<Constant "\\nsource_data: ">` >> 8) & 0xff
        LCALL   ??Subroutine71_0 & 0xFFFF
//  726     Show_Bit(SOURCE_DATA,8);
??CrossCallReturnLabel_145:
        MOV     DPTR,#SOURCE_DATA
        LCALL   ?Subroutine30 & 0xFFFF
//  727     HalUARTWrite(0," ",1);
??CrossCallReturnLabel_52:
        MOV     R1,#0x0
        LCALL   ??HalUARTWrite?relay
//  728     Show_Bit(Power_of_2(Device_ID),16);
        ; Setup parameters for call to function Show_Bit
        ; Setup parameters for call to function Power_of_2
        LCALL   ?Subroutine34 & 0xFFFF
??CrossCallReturnLabel_58:
        MOV     A,#0x10
        MOV     R1,A
        LCALL   ?Subroutine39 & 0xFFFF
//  729     HalUARTWrite(0,"\n",1);
//  730 //
//  731     for(int8 p=1;p<6;++p)
??CrossCallReturnLabel_64:
        MOV     R6,#0x1
//  732     {
//  733       Show_Num(p);
??SampleApp_HandleKeys_2:
        ; Setup parameters for call to function Show_Num
        MOV     A,R6
        LCALL   ?Subroutine35 & 0xFFFF
//  734       HalUARTWrite(0,":",1);
//  735       Show_Bit(DATA_SLOT[p].data, 8);
??CrossCallReturnLabel_60:
        MOV     A,R6
        MOV     ?V0 + 0,A
        RLC     A
        SUBB    A,0xE0 /* A   */
        MOV     ?V0 + 1,A
        MOV     A,#0x2
        MOV     R0,#?V0 + 0
        LCALL   ?S_SHL
        MOV     A,#DATA_SLOT & 0xff
        ADD     A,?V0 + 0
        MOV     ?V0 + 0,A
        MOV     A,#(DATA_SLOT >> 8) & 0xff
        ADDC    A,?V0 + 1
        MOV     ?V0 + 1,A
        ; Setup parameters for call to function Show_Bit
        MOV     R1,#0x8
        MOV     DPL,?V0 + 0
        MOV     DPH,A
        LCALL   ?Subroutine31 & 0xFFFF
//  736       HalUARTWrite(0," info:",6);
??CrossCallReturnLabel_54:
        ; Setup parameters for call to function HalUARTWrite
        MOV     R4,#0x6
        MOV     R5,#0x0
        MOV     R2,#`?<Constant " info:">` & 0xff
        MOV     R3,#(`?<Constant " info:">` >> 8) & 0xff
        MOV     R1,#0x0
        LCALL   ??HalUARTWrite?relay
//  737       Show_Bit(DATA_SLOT[p].Degree_ID, 4);
        ; Setup parameters for call to function Show_Bit
        MOV     R1,#0x4
        MOV     DPL,?V0 + 0
        MOV     DPH,?V0 + 1
        INC     DPTR
        INC     DPTR
        LCALL   ?Subroutine31 & 0xFFFF
//  738       HalUARTWrite(0,"\n",1);
??CrossCallReturnLabel_55:
        ; Setup parameters for call to function HalUARTWrite
        MOV     R4,#0x1
        MOV     R5,#0x0
        MOV     R2,#`?<Constant "\\n">` & 0xff
        MOV     R3,#(`?<Constant "\\n">` >> 8) & 0xff
        MOV     R1,#0x0
        LCALL   ??HalUARTWrite?relay
//  739     }
        INC     R6
        MOV     A,R6
        CLR     C
        SUBB    A,#0x6
        MOV     C,0xD0 /* PSW */.2
        XRL     A,PSW
        RLC     A
        JC      ??SampleApp_HandleKeys_2
//  740     
//  741     //显示邻居个数
//  742     uint8 nei_N = 0;
        MOV     ?V0 + 0,#0x0
//  743     for(uchar num_nei=0;num_nei<3;++num_nei)
        MOV     R2,#0x0
//  744     {
//  745       if(Nei_Table[num_nei] != (int16)65534)
??SampleApp_HandleKeys_3:
        MOV     A,R2
        CLR     C
        RLC     A
        MOV     R0,A
        CLR     A
        LCALL   ??Subroutine63_0 & 0xFFFF
??CrossCallReturnLabel_99:
        XRL     A,#0xfe
        JNZ     ??SampleApp_HandleKeys_4
        INC     DPTR
        MOVX    A,@DPTR
        CPL     A
??SampleApp_HandleKeys_4:
        JZ      ??SampleApp_HandleKeys_5
//  746         nei_N++;
        INC     ?V0 + 0
//  747     }
??SampleApp_HandleKeys_5:
        INC     R2
        MOV     A,R2
        CLR     C
        SUBB    A,#0x3
        JC      ??SampleApp_HandleKeys_3
//  748     HalUARTWrite(0,"nei_num:",8);
        ; Setup parameters for call to function HalUARTWrite
        MOV     R4,#0x8
        MOV     R5,#0x0
        MOV     R2,#`?<Constant "nei_num:">` & 0xff
        MOV     R3,#(`?<Constant "nei_num:">` >> 8) & 0xff
        MOV     R1,#0x0
        LCALL   ??HalUARTWrite?relay
//  749     Show_Num(nei_N);
        ; Setup parameters for call to function Show_Num
        MOV     R2,?V0 + 0
        MOV     R3,#0x0
        LCALL   ?Subroutine40 & 0xFFFF
//  750     HalUARTWrite(0,"\n",1);
//  751     
//  752     //串口输出所有邻居地址
//  753 //    for(int i=0;i<3;++i)
//  754 //    {
//  755 //      neig_addr_10 = Nei_Table[i];
//  756 //
//  757 //      sprintf((char*)Num, "%d", i+1);
//  758 //      sprintf((char*)Neig_ADDR, "%X", neig_addr_10);
//  759 //      HalUARTWrite(0,"邻居",strlen("邻居"));
//  760 //      for (int j=0;j<2;++j)
//  761 //      {
//  762 //        HalUARTWrite(0,&Num[j],1);
//  763 //      }
//  764 //
//  765 //      HalUARTWrite(0,": 0x",strlen(": 0x"));
//  766 //
//  767 //      if(neig_addr_10 == 0)
//  768 //      {
//  769 //        HalUARTWrite(0,"0000",4);
//  770 //      }
//  771 //      else
//  772 //      {
//  773 //        for (int j=0;j<4;++j)
//  774 //        {
//  775 //          HalUARTWrite(0,&Neig_ADDR[j],1);
//  776 //        }
//  777 //      }
//  778 //      HalUARTWrite(0,"\n",1);
//  779 //    }
//  780 
//  781 //    HalLedBlink( HAL_LED_3, 2,50, 500 ); //LED3 闪烁提示
//  782   }
//  783 }
??CrossCallReturnLabel_66:
        LJMP    ??Subroutine76_0 & 0xFFFF
        CFI EndBlock cfiBlock31

        RSEG BANKED_CODE:CODE:NOROOT(0)
?Subroutine34:
        CFI Block cfiCond32 Using cfiCommon0
        CFI NoFunction
        CFI Conditional ??CrossCallReturnLabel_57
        CFI R6 load(1, XDATA, add(CFA_XSP16, literal(-11)))
        CFI VB load(1, XDATA, add(CFA_XSP16, literal(-10)))
        CFI V0 load(1, XDATA, add(CFA_XSP16, literal(-9)))
        CFI V1 load(1, XDATA, add(CFA_XSP16, literal(-8)))
        CFI V2 load(1, XDATA, add(CFA_XSP16, literal(-7)))
        CFI R7 load(1, XDATA, add(CFA_XSP16, literal(-6)))
        CFI ?RET_LOW load(1, XDATA, add(CFA_XSP16, literal(-5)))
        CFI ?RET_HIGH load(1, XDATA, add(CFA_XSP16, literal(-4)))
        CFI ?BRET_EXT load(1, XDATA, add(CFA_XSP16, literal(-3)))
        CFI DPL0 load(1, XDATA, add(CFA_XSP16, literal(-2)))
        CFI DPH0 load(1, XDATA, add(CFA_XSP16, literal(-1)))
        CFI CFA_SP SP+0
        CFI CFA_XSP16 add(XSP16, 11)
        CFI Block cfiCond33 Using cfiCommon0
        CFI (cfiCond33) NoFunction
        CFI (cfiCond33) Conditional ??CrossCallReturnLabel_58
        CFI (cfiCond33) R6 load(1, XDATA, add(CFA_XSP16, literal(-10)))
        CFI (cfiCond33) VB load(1, XDATA, add(CFA_XSP16, literal(-9)))
        CFI (cfiCond33) V0 load(1, XDATA, add(CFA_XSP16, literal(-8)))
        CFI (cfiCond33) V1 load(1, XDATA, add(CFA_XSP16, literal(-7)))
        CFI (cfiCond33) R7 load(1, XDATA, add(CFA_XSP16, literal(-6)))
        CFI (cfiCond33) ?RET_LOW load(1, XDATA, add(CFA_XSP16, literal(-5)))
        CFI (cfiCond33) ?RET_HIGH load(1, XDATA, add(CFA_XSP16, literal(-4)))
        CFI (cfiCond33) ?BRET_EXT load(1, XDATA, add(CFA_XSP16, literal(-3)))
        CFI (cfiCond33) DPL0 load(1, XDATA, add(CFA_XSP16, literal(-2)))
        CFI (cfiCond33) DPH0 load(1, XDATA, add(CFA_XSP16, literal(-1)))
        CFI (cfiCond33) CFA_SP SP+0
        CFI (cfiCond33) CFA_XSP16 add(XSP16, 10)
        CFI Block cfiCond34 Using cfiCommon0
        CFI (cfiCond34) NoFunction
        CFI (cfiCond34) Conditional ??CrossCallReturnLabel_59
        CFI (cfiCond34) R6 load(1, XDATA, add(CFA_XSP16, literal(-20)))
        CFI (cfiCond34) VB load(1, XDATA, add(CFA_XSP16, literal(-19)))
        CFI (cfiCond34) V0 load(1, XDATA, add(CFA_XSP16, literal(-18)))
        CFI (cfiCond34) V1 load(1, XDATA, add(CFA_XSP16, literal(-17)))
        CFI (cfiCond34) V2 load(1, XDATA, add(CFA_XSP16, literal(-16)))
        CFI (cfiCond34) V3 load(1, XDATA, add(CFA_XSP16, literal(-15)))
        CFI (cfiCond34) V4 load(1, XDATA, add(CFA_XSP16, literal(-14)))
        CFI (cfiCond34) V5 load(1, XDATA, add(CFA_XSP16, literal(-13)))
        CFI (cfiCond34) V6 load(1, XDATA, add(CFA_XSP16, literal(-12)))
        CFI (cfiCond34) V7 load(1, XDATA, add(CFA_XSP16, literal(-11)))
        CFI (cfiCond34) V8 load(1, XDATA, add(CFA_XSP16, literal(-10)))
        CFI (cfiCond34) V9 load(1, XDATA, add(CFA_XSP16, literal(-9)))
        CFI (cfiCond34) V10 load(1, XDATA, add(CFA_XSP16, literal(-8)))
        CFI (cfiCond34) V11 load(1, XDATA, add(CFA_XSP16, literal(-7)))
        CFI (cfiCond34) R7 load(1, XDATA, add(CFA_XSP16, literal(-6)))
        CFI (cfiCond34) ?RET_LOW load(1, XDATA, add(CFA_XSP16, literal(-5)))
        CFI (cfiCond34) ?RET_HIGH load(1, XDATA, add(CFA_XSP16, literal(-4)))
        CFI (cfiCond34) ?BRET_EXT load(1, XDATA, add(CFA_XSP16, literal(-3)))
        CFI (cfiCond34) DPL0 load(1, XDATA, add(CFA_XSP16, literal(-2)))
        CFI (cfiCond34) DPH0 load(1, XDATA, add(CFA_XSP16, literal(-1)))
        CFI (cfiCond34) CFA_SP SP+0
        CFI (cfiCond34) CFA_XSP16 add(XSP16, 33)
        CFI Block cfiPicker35 Using cfiCommon1
        CFI (cfiPicker35) NoFunction
        CFI (cfiPicker35) Picker
        MOV     DPTR,#Device_ID
        MOVX    A,@DPTR
        MOV     R1,A
        LCALL   ??Power_of_2?relay
        RET
        CFI EndBlock cfiCond32
        CFI EndBlock cfiCond33
        CFI EndBlock cfiCond34
        CFI EndBlock cfiPicker35
//  784 
//  785 
//  786 
//  787 
//  788 
//  789 /*自行定义的 处理串口发来数据包 的函数*/

        RSEG BANKED_CODE:CODE:NOROOT(0)
//  790 void SampleApp_SerialCMD(mtOSALSerialData_t *cmdMsg)
SampleApp_SerialCMD:
        CFI Block cfiBlock36 Using cfiCommon0
        CFI Function SampleApp_SerialCMD
        CODE
//  791 {
        FUNCALL SampleApp_SerialCMD, HalUARTWrite
        LOCFRAME ISTACK, 0, STACK
        LOCFRAME PSTACK, 0, STACK
        LOCFRAME XSTACK, 12, STACK
        LOCFRAME IOVERLAY, 0, STATIC
        LOCFRAME DOVERLAY, 0, STATIC
        ARGFRAME ISTACK, 0, STACK
        ARGFRAME PSTACK, 0, STACK
        ARGFRAME XSTACK, 12, STACK
        ARGFRAME IOVERLAY, 0, STATIC
        ARGFRAME DOVERLAY, 0, STATIC
        FUNCALL SampleApp_SerialCMD, HalUARTWrite
        LOCFRAME ISTACK, 0, STACK
        LOCFRAME PSTACK, 0, STACK
        LOCFRAME XSTACK, 12, STACK
        LOCFRAME IOVERLAY, 0, STATIC
        LOCFRAME DOVERLAY, 0, STATIC
        ARGFRAME ISTACK, 0, STACK
        ARGFRAME PSTACK, 0, STACK
        ARGFRAME XSTACK, 12, STACK
        ARGFRAME IOVERLAY, 0, STATIC
        ARGFRAME DOVERLAY, 0, STATIC
        FUNCALL SampleApp_SerialCMD, HalUARTWrite
        LOCFRAME ISTACK, 0, STACK
        LOCFRAME PSTACK, 0, STACK
        LOCFRAME XSTACK, 12, STACK
        LOCFRAME IOVERLAY, 0, STATIC
        LOCFRAME DOVERLAY, 0, STATIC
        ARGFRAME ISTACK, 0, STACK
        ARGFRAME PSTACK, 0, STACK
        ARGFRAME XSTACK, 12, STACK
        ARGFRAME IOVERLAY, 0, STATIC
        ARGFRAME DOVERLAY, 0, STATIC
        FUNCALL SampleApp_SerialCMD, Show_Num
        LOCFRAME ISTACK, 0, STACK
        LOCFRAME PSTACK, 0, STACK
        LOCFRAME XSTACK, 12, STACK
        LOCFRAME IOVERLAY, 0, STATIC
        LOCFRAME DOVERLAY, 0, STATIC
        ARGFRAME ISTACK, 0, STACK
        ARGFRAME PSTACK, 0, STACK
        ARGFRAME XSTACK, 12, STACK
        ARGFRAME IOVERLAY, 0, STATIC
        ARGFRAME DOVERLAY, 0, STATIC
        FUNCALL SampleApp_SerialCMD, HalUARTWrite
        LOCFRAME ISTACK, 0, STACK
        LOCFRAME PSTACK, 0, STACK
        LOCFRAME XSTACK, 12, STACK
        LOCFRAME IOVERLAY, 0, STATIC
        LOCFRAME DOVERLAY, 0, STATIC
        ARGFRAME ISTACK, 0, STACK
        ARGFRAME PSTACK, 0, STACK
        ARGFRAME XSTACK, 12, STACK
        ARGFRAME IOVERLAY, 0, STATIC
        ARGFRAME DOVERLAY, 0, STATIC
        FUNCALL SampleApp_SerialCMD, Show_Bit
        LOCFRAME ISTACK, 0, STACK
        LOCFRAME PSTACK, 0, STACK
        LOCFRAME XSTACK, 12, STACK
        LOCFRAME IOVERLAY, 0, STATIC
        LOCFRAME DOVERLAY, 0, STATIC
        ARGFRAME ISTACK, 0, STACK
        ARGFRAME PSTACK, 0, STACK
        ARGFRAME XSTACK, 12, STACK
        ARGFRAME IOVERLAY, 0, STATIC
        ARGFRAME DOVERLAY, 0, STATIC
        FUNCALL SampleApp_SerialCMD, HalUARTWrite
        LOCFRAME ISTACK, 0, STACK
        LOCFRAME PSTACK, 0, STACK
        LOCFRAME XSTACK, 12, STACK
        LOCFRAME IOVERLAY, 0, STATIC
        LOCFRAME DOVERLAY, 0, STATIC
        ARGFRAME ISTACK, 0, STACK
        ARGFRAME PSTACK, 0, STACK
        ARGFRAME XSTACK, 12, STACK
        ARGFRAME IOVERLAY, 0, STATIC
        ARGFRAME DOVERLAY, 0, STATIC
        FUNCALL SampleApp_SerialCMD, Show_Bit
        LOCFRAME ISTACK, 0, STACK
        LOCFRAME PSTACK, 0, STACK
        LOCFRAME XSTACK, 12, STACK
        LOCFRAME IOVERLAY, 0, STATIC
        LOCFRAME DOVERLAY, 0, STATIC
        ARGFRAME ISTACK, 0, STACK
        ARGFRAME PSTACK, 0, STACK
        ARGFRAME XSTACK, 12, STACK
        ARGFRAME IOVERLAY, 0, STATIC
        ARGFRAME DOVERLAY, 0, STATIC
        FUNCALL SampleApp_SerialCMD, HalUARTWrite
        LOCFRAME ISTACK, 0, STACK
        LOCFRAME PSTACK, 0, STACK
        LOCFRAME XSTACK, 12, STACK
        LOCFRAME IOVERLAY, 0, STATIC
        LOCFRAME DOVERLAY, 0, STATIC
        ARGFRAME ISTACK, 0, STACK
        ARGFRAME PSTACK, 0, STACK
        ARGFRAME XSTACK, 12, STACK
        ARGFRAME IOVERLAY, 0, STATIC
        ARGFRAME DOVERLAY, 0, STATIC
        FUNCALL SampleApp_SerialCMD, Show_Num
        LOCFRAME ISTACK, 0, STACK
        LOCFRAME PSTACK, 0, STACK
        LOCFRAME XSTACK, 12, STACK
        LOCFRAME IOVERLAY, 0, STATIC
        LOCFRAME DOVERLAY, 0, STATIC
        ARGFRAME ISTACK, 0, STACK
        ARGFRAME PSTACK, 0, STACK
        ARGFRAME XSTACK, 12, STACK
        ARGFRAME IOVERLAY, 0, STATIC
        ARGFRAME DOVERLAY, 0, STATIC
        FUNCALL SampleApp_SerialCMD, HalUARTWrite
        LOCFRAME ISTACK, 0, STACK
        LOCFRAME PSTACK, 0, STACK
        LOCFRAME XSTACK, 12, STACK
        LOCFRAME IOVERLAY, 0, STATIC
        LOCFRAME DOVERLAY, 0, STATIC
        ARGFRAME ISTACK, 0, STACK
        ARGFRAME PSTACK, 0, STACK
        ARGFRAME XSTACK, 12, STACK
        ARGFRAME IOVERLAY, 0, STATIC
        ARGFRAME DOVERLAY, 0, STATIC
        MOV     A,#-0xc
        LCALL   ?BANKED_ENTER_XDATA
        CFI DPH0 load(1, XDATA, add(CFA_XSP16, literal(-1)))
        CFI DPL0 load(1, XDATA, add(CFA_XSP16, literal(-2)))
        CFI ?BRET_EXT load(1, XDATA, add(CFA_XSP16, literal(-3)))
        CFI ?RET_HIGH load(1, XDATA, add(CFA_XSP16, literal(-4)))
        CFI ?RET_LOW load(1, XDATA, add(CFA_XSP16, literal(-5)))
        CFI R7 load(1, XDATA, add(CFA_XSP16, literal(-6)))
        CFI V3 load(1, XDATA, add(CFA_XSP16, literal(-7)))
        CFI V2 load(1, XDATA, add(CFA_XSP16, literal(-8)))
        CFI V1 load(1, XDATA, add(CFA_XSP16, literal(-9)))
        CFI V0 load(1, XDATA, add(CFA_XSP16, literal(-10)))
        CFI VB load(1, XDATA, add(CFA_XSP16, literal(-11)))
        CFI R6 load(1, XDATA, add(CFA_XSP16, literal(-12)))
        CFI CFA_SP SP+0
        CFI CFA_XSP16 add(XSP16, 12)
        ; Saved register size: 12
        ; Auto size: 0
//  792     uint8 i,len,*str=NULL; //len 有用数据长度
//  793     str=cmdMsg->msg; //指向数据开头
        MOV     DPL,R2
        MOV     DPH,R3
        INC     DPTR
        INC     DPTR
        MOVX    A,@DPTR
        MOV     ?V0 + 0,A
        INC     DPTR
        MOVX    A,@DPTR
        MOV     ?V0 + 1,A
//  794     len=*str; //msg 里的第 1 个字节代表后面的数据长度
        MOV     DPL,?V0 + 0
        MOV     DPH,A
        MOVX    A,@DPTR
        MOV     R6,A
//  795     /********打印出串口接收到的数据，用于提示*********/
//  796     HalUARTWrite(0,">> ", 3);
        ; Setup parameters for call to function HalUARTWrite
        MOV     R4,#0x3
        MOV     R5,#0x0
        MOV     R2,#`?<Constant ">> ">` & 0xff
        MOV     R3,#(`?<Constant ">> ">` >> 8) & 0xff
        MOV     R1,#0x0
        LCALL   ??HalUARTWrite?relay
//  797     for(i=1;i<=len;i++)
        MOV     R7,#0x1
        SJMP    ??SampleApp_SerialCMD_0
//  798     {
//  799       HalUARTWrite(0,str+i,1);
??SampleApp_SerialCMD_1:
        ; Setup parameters for call to function HalUARTWrite
        MOV     ?V0 + 2,R7
        MOV     A,?V0 + 0
        ADD     A,?V0 + 2
        MOV     R2,A
        MOV     A,?V0 + 1
        LCALL   ?Subroutine11 & 0xFFFF
//  800     }
??CrossCallReturnLabel_22:
        INC     R7
??SampleApp_SerialCMD_0:
        MOV     A,R6
        CLR     C
        SUBB    A,R7
        MOV     R4,#0x1
        MOV     R5,#0x0
        JNC     ??SampleApp_SerialCMD_1
//  801 
//  802     HalUARTWrite(0,"\n",1 );//换行
        ; Setup parameters for call to function HalUARTWrite
        MOV     R2,#`?<Constant "\\n">` & 0xff
        MOV     R3,#(`?<Constant "\\n">` >> 8) & 0xff
        MOV     R1,#0x0
        LCALL   ??HalUARTWrite?relay
//  803 
//  804     if ( len == 2 && *(str+1) == 'k' && *(str+2) == '1')
        MOV     A,#0x2
        XRL     A,R6
        JNZ     ??SampleApp_SerialCMD_2
        MOV     DPL,?V0 + 0
        MOV     DPH,?V0 + 1
        INC     DPTR
        MOVX    A,@DPTR
        XRL     A,#0x6b
        JNZ     ??SampleApp_SerialCMD_2
        MOV     DPL,?V0 + 0
        MOV     DPH,?V0 + 1
        INC     DPTR
        INC     DPTR
        MOVX    A,@DPTR
        XRL     A,#0x31
        JNZ     ??SampleApp_SerialCMD_2
//  805     {
//  806 
//  807       
//  808       for(int8 p=0;p<1;++p)
        MOV     ?V0 + 0,#0x0
//  809       {
//  810         Show_Num(p);
??SampleApp_SerialCMD_3:
        ; Setup parameters for call to function Show_Num
        MOV     A,?V0 + 0
        LCALL   ?Subroutine35 & 0xFFFF
//  811         HalUARTWrite(0,":",1);
//  812         Show_Bit(DATA_SLOT[p].data, 8);
??CrossCallReturnLabel_61:
        MOV     A,?V0 + 0
        MOV     ?V0 + 2,A
        RLC     A
        SUBB    A,0xE0 /* A   */
        MOV     ?V0 + 3,A
        MOV     A,#0x2
        MOV     R0,#?V0 + 2
        LCALL   ?S_SHL
        MOV     A,#DATA_SLOT & 0xff
        ADD     A,?V0 + 2
        MOV     R6,A
        MOV     A,#(DATA_SLOT >> 8) & 0xff
        ADDC    A,?V0 + 3
        MOV     R7,A
        ; Setup parameters for call to function Show_Bit
        MOV     R1,#0x8
        MOV     DPL,R6
        MOV     DPH,R7
        LCALL   ?Subroutine31 & 0xFFFF
//  813         HalUARTWrite(0," >",2);
??CrossCallReturnLabel_56:
        ; Setup parameters for call to function HalUARTWrite
        MOV     R4,#0x2
        MOV     R5,#0x0
        MOV     R2,#`?<Constant " >">` & 0xff
        MOV     R3,#(`?<Constant " >">` >> 8) & 0xff
        MOV     R1,#0x0
        LCALL   ??HalUARTWrite?relay
//  814         Show_Bit(256, 16);
        ; Setup parameters for call to function Show_Bit
        MOV     R1,#0x10
        MOV     R2,#0x0
        MOV     R3,#0x1
        LCALL   ??Subroutine68_0 & 0xFFFF
//  815         HalUARTWrite(0," ",1);
??CrossCallReturnLabel_126:
        MOV     R1,#0x0
        LCALL   ??HalUARTWrite?relay
//  816         Show_Num(DATA_SLOT[p].Degree_ID);
        ; Setup parameters for call to function Show_Num
        MOV     DPL,R6
        MOV     DPH,R7
        INC     DPTR
        INC     DPTR
        LCALL   ??Subroutine67_0 & 0xFFFF
//  817         HalUARTWrite(0,"\n",1);
//  818       }
??CrossCallReturnLabel_119:
        LCALL   ?Subroutine40 & 0xFFFF
??CrossCallReturnLabel_67:
        INC     ?V0 + 0
        MOV     A,?V0 + 0
        CLR     C
        SUBB    A,#0x1
        MOV     C,0xD0 /* PSW */.2
        XRL     A,PSW
        RLC     A
        JC      ??SampleApp_SerialCMD_3
//  819     }
//  820 
//  821     //模拟异或操作
//  822 //    int8 A[] = {'1','0','0','0','0','0','0','1'};
//  823 //    unsigned char One = '1',Zero = '0';
//  824 //    for (i=0;i<8;++i)
//  825 //    {
//  826 //      if(A[i]-*(str+i+1))
//  827 //      {
//  828 //        HalUARTWrite(0,&One,1);
//  829 //        *(str+1+i) = One;
//  830 //      }
//  831 //      else
//  832 //      {
//  833 //        HalUARTWrite(0,&Zero,1);
//  834 //        *(str+1+i) = Zero;
//  835 //      }
//  836 //
//  837 //    }
//  838 //
//  839 
//  840 }
??SampleApp_SerialCMD_2:
        LJMP    ?Subroutine1 & 0xFFFF
        CFI EndBlock cfiBlock36

        RSEG BANKED_CODE:CODE:NOROOT(0)
?Subroutine40:
        CFI Block cfiCond37 Using cfiCommon0
        CFI NoFunction
        CFI Conditional ??CrossCallReturnLabel_66
        CFI R6 load(1, XDATA, add(CFA_XSP16, literal(-10)))
        CFI VB load(1, XDATA, add(CFA_XSP16, literal(-9)))
        CFI V0 load(1, XDATA, add(CFA_XSP16, literal(-8)))
        CFI V1 load(1, XDATA, add(CFA_XSP16, literal(-7)))
        CFI R7 load(1, XDATA, add(CFA_XSP16, literal(-6)))
        CFI ?RET_LOW load(1, XDATA, add(CFA_XSP16, literal(-5)))
        CFI ?RET_HIGH load(1, XDATA, add(CFA_XSP16, literal(-4)))
        CFI ?BRET_EXT load(1, XDATA, add(CFA_XSP16, literal(-3)))
        CFI DPL0 load(1, XDATA, add(CFA_XSP16, literal(-2)))
        CFI DPH0 load(1, XDATA, add(CFA_XSP16, literal(-1)))
        CFI CFA_SP SP+0
        CFI CFA_XSP16 add(XSP16, 10)
        CFI Block cfiCond38 Using cfiCommon0
        CFI (cfiCond38) NoFunction
        CFI (cfiCond38) Conditional ??CrossCallReturnLabel_67
        CFI (cfiCond38) R6 load(1, XDATA, add(CFA_XSP16, literal(-12)))
        CFI (cfiCond38) VB load(1, XDATA, add(CFA_XSP16, literal(-11)))
        CFI (cfiCond38) V0 load(1, XDATA, add(CFA_XSP16, literal(-10)))
        CFI (cfiCond38) V1 load(1, XDATA, add(CFA_XSP16, literal(-9)))
        CFI (cfiCond38) V2 load(1, XDATA, add(CFA_XSP16, literal(-8)))
        CFI (cfiCond38) V3 load(1, XDATA, add(CFA_XSP16, literal(-7)))
        CFI (cfiCond38) R7 load(1, XDATA, add(CFA_XSP16, literal(-6)))
        CFI (cfiCond38) ?RET_LOW load(1, XDATA, add(CFA_XSP16, literal(-5)))
        CFI (cfiCond38) ?RET_HIGH load(1, XDATA, add(CFA_XSP16, literal(-4)))
        CFI (cfiCond38) ?BRET_EXT load(1, XDATA, add(CFA_XSP16, literal(-3)))
        CFI (cfiCond38) DPL0 load(1, XDATA, add(CFA_XSP16, literal(-2)))
        CFI (cfiCond38) DPH0 load(1, XDATA, add(CFA_XSP16, literal(-1)))
        CFI (cfiCond38) CFA_SP SP+0
        CFI (cfiCond38) CFA_XSP16 add(XSP16, 12)
        CFI Block cfiPicker39 Using cfiCommon1
        CFI (cfiPicker39) NoFunction
        CFI (cfiPicker39) Picker
        LCALL   ??Show_Num?relay
        ; Setup parameters for call to function HalUARTWrite
        ; Setup parameters for call to function HalUARTWrite
        MOV     R4,#0x1
        MOV     R5,#0x0
        MOV     R2,#`?<Constant "\\n">` & 0xff
        MOV     R3,#(`?<Constant "\\n">` >> 8) & 0xff
        MOV     R1,#0x0
        LCALL   ??HalUARTWrite?relay
        RET
        CFI EndBlock cfiCond37
        CFI EndBlock cfiCond38
        CFI EndBlock cfiPicker39

        RSEG BANKED_CODE:CODE:NOROOT(0)
?Subroutine35:
        CFI Block cfiCond40 Using cfiCommon0
        CFI NoFunction
        CFI Conditional ??CrossCallReturnLabel_60
        CFI R6 load(1, XDATA, add(CFA_XSP16, literal(-10)))
        CFI VB load(1, XDATA, add(CFA_XSP16, literal(-9)))
        CFI V0 load(1, XDATA, add(CFA_XSP16, literal(-8)))
        CFI V1 load(1, XDATA, add(CFA_XSP16, literal(-7)))
        CFI R7 load(1, XDATA, add(CFA_XSP16, literal(-6)))
        CFI ?RET_LOW load(1, XDATA, add(CFA_XSP16, literal(-5)))
        CFI ?RET_HIGH load(1, XDATA, add(CFA_XSP16, literal(-4)))
        CFI ?BRET_EXT load(1, XDATA, add(CFA_XSP16, literal(-3)))
        CFI DPL0 load(1, XDATA, add(CFA_XSP16, literal(-2)))
        CFI DPH0 load(1, XDATA, add(CFA_XSP16, literal(-1)))
        CFI CFA_SP SP+0
        CFI CFA_XSP16 add(XSP16, 10)
        CFI Block cfiCond41 Using cfiCommon0
        CFI (cfiCond41) NoFunction
        CFI (cfiCond41) Conditional ??CrossCallReturnLabel_61
        CFI (cfiCond41) R6 load(1, XDATA, add(CFA_XSP16, literal(-12)))
        CFI (cfiCond41) VB load(1, XDATA, add(CFA_XSP16, literal(-11)))
        CFI (cfiCond41) V0 load(1, XDATA, add(CFA_XSP16, literal(-10)))
        CFI (cfiCond41) V1 load(1, XDATA, add(CFA_XSP16, literal(-9)))
        CFI (cfiCond41) V2 load(1, XDATA, add(CFA_XSP16, literal(-8)))
        CFI (cfiCond41) V3 load(1, XDATA, add(CFA_XSP16, literal(-7)))
        CFI (cfiCond41) R7 load(1, XDATA, add(CFA_XSP16, literal(-6)))
        CFI (cfiCond41) ?RET_LOW load(1, XDATA, add(CFA_XSP16, literal(-5)))
        CFI (cfiCond41) ?RET_HIGH load(1, XDATA, add(CFA_XSP16, literal(-4)))
        CFI (cfiCond41) ?BRET_EXT load(1, XDATA, add(CFA_XSP16, literal(-3)))
        CFI (cfiCond41) DPL0 load(1, XDATA, add(CFA_XSP16, literal(-2)))
        CFI (cfiCond41) DPH0 load(1, XDATA, add(CFA_XSP16, literal(-1)))
        CFI (cfiCond41) CFA_SP SP+0
        CFI (cfiCond41) CFA_XSP16 add(XSP16, 12)
        CFI Block cfiPicker42 Using cfiCommon1
        CFI (cfiPicker42) NoFunction
        CFI (cfiPicker42) Picker
        MOV     R2,A
        RLC     A
        SUBB    A,0xE0 /* A   */
        MOV     R3,A
        LCALL   ??Show_Num?relay
        ; Setup parameters for call to function HalUARTWrite
        ; Setup parameters for call to function HalUARTWrite
        MOV     R4,#0x1
        MOV     R5,#0x0
        MOV     R2,#`?<Constant ":">` & 0xff
        MOV     R3,#(`?<Constant ":">` >> 8) & 0xff
        MOV     R1,#0x0
        LCALL   ??HalUARTWrite?relay
        RET
        CFI EndBlock cfiCond40
        CFI EndBlock cfiCond41
        CFI EndBlock cfiPicker42

        RSEG BANKED_CODE:CODE:NOROOT(0)
?Subroutine31:
        CFI Block cfiCond43 Using cfiCommon0
        CFI NoFunction
        CFI Conditional ??CrossCallReturnLabel_54
        CFI R6 load(1, XDATA, add(CFA_XSP16, literal(-10)))
        CFI VB load(1, XDATA, add(CFA_XSP16, literal(-9)))
        CFI V0 load(1, XDATA, add(CFA_XSP16, literal(-8)))
        CFI V1 load(1, XDATA, add(CFA_XSP16, literal(-7)))
        CFI R7 load(1, XDATA, add(CFA_XSP16, literal(-6)))
        CFI ?RET_LOW load(1, XDATA, add(CFA_XSP16, literal(-5)))
        CFI ?RET_HIGH load(1, XDATA, add(CFA_XSP16, literal(-4)))
        CFI ?BRET_EXT load(1, XDATA, add(CFA_XSP16, literal(-3)))
        CFI DPL0 load(1, XDATA, add(CFA_XSP16, literal(-2)))
        CFI DPH0 load(1, XDATA, add(CFA_XSP16, literal(-1)))
        CFI CFA_SP SP+0
        CFI CFA_XSP16 add(XSP16, 10)
        CFI Block cfiCond44 Using cfiCommon0
        CFI (cfiCond44) NoFunction
        CFI (cfiCond44) Conditional ??CrossCallReturnLabel_55
        CFI (cfiCond44) R6 load(1, XDATA, add(CFA_XSP16, literal(-10)))
        CFI (cfiCond44) VB load(1, XDATA, add(CFA_XSP16, literal(-9)))
        CFI (cfiCond44) V0 load(1, XDATA, add(CFA_XSP16, literal(-8)))
        CFI (cfiCond44) V1 load(1, XDATA, add(CFA_XSP16, literal(-7)))
        CFI (cfiCond44) R7 load(1, XDATA, add(CFA_XSP16, literal(-6)))
        CFI (cfiCond44) ?RET_LOW load(1, XDATA, add(CFA_XSP16, literal(-5)))
        CFI (cfiCond44) ?RET_HIGH load(1, XDATA, add(CFA_XSP16, literal(-4)))
        CFI (cfiCond44) ?BRET_EXT load(1, XDATA, add(CFA_XSP16, literal(-3)))
        CFI (cfiCond44) DPL0 load(1, XDATA, add(CFA_XSP16, literal(-2)))
        CFI (cfiCond44) DPH0 load(1, XDATA, add(CFA_XSP16, literal(-1)))
        CFI (cfiCond44) CFA_SP SP+0
        CFI (cfiCond44) CFA_XSP16 add(XSP16, 10)
        CFI Block cfiCond45 Using cfiCommon0
        CFI (cfiCond45) NoFunction
        CFI (cfiCond45) Conditional ??CrossCallReturnLabel_56
        CFI (cfiCond45) R6 load(1, XDATA, add(CFA_XSP16, literal(-12)))
        CFI (cfiCond45) VB load(1, XDATA, add(CFA_XSP16, literal(-11)))
        CFI (cfiCond45) V0 load(1, XDATA, add(CFA_XSP16, literal(-10)))
        CFI (cfiCond45) V1 load(1, XDATA, add(CFA_XSP16, literal(-9)))
        CFI (cfiCond45) V2 load(1, XDATA, add(CFA_XSP16, literal(-8)))
        CFI (cfiCond45) V3 load(1, XDATA, add(CFA_XSP16, literal(-7)))
        CFI (cfiCond45) R7 load(1, XDATA, add(CFA_XSP16, literal(-6)))
        CFI (cfiCond45) ?RET_LOW load(1, XDATA, add(CFA_XSP16, literal(-5)))
        CFI (cfiCond45) ?RET_HIGH load(1, XDATA, add(CFA_XSP16, literal(-4)))
        CFI (cfiCond45) ?BRET_EXT load(1, XDATA, add(CFA_XSP16, literal(-3)))
        CFI (cfiCond45) DPL0 load(1, XDATA, add(CFA_XSP16, literal(-2)))
        CFI (cfiCond45) DPH0 load(1, XDATA, add(CFA_XSP16, literal(-1)))
        CFI (cfiCond45) CFA_SP SP+0
        CFI (cfiCond45) CFA_XSP16 add(XSP16, 12)
        CFI Block cfiPicker46 Using cfiCommon1
        CFI (cfiPicker46) NoFunction
        CFI (cfiPicker46) Picker
        MOVX    A,@DPTR
        MOV     R2,A
        INC     DPTR
        MOVX    A,@DPTR
        MOV     R3,A
        LCALL   ??Show_Bit?relay
        RET
        CFI EndBlock cfiCond43
        CFI EndBlock cfiCond44
        CFI EndBlock cfiCond45
        CFI EndBlock cfiPicker46

        RSEG BANKED_CODE:CODE:NOROOT(0)
?Subroutine11:
        CFI Block cfiCond47 Using cfiCommon0
        CFI NoFunction
        CFI Conditional ??CrossCallReturnLabel_21
        CFI R6 load(1, XDATA, add(CFA_XSP16, literal(-13)))
        CFI VB load(1, XDATA, add(CFA_XSP16, literal(-12)))
        CFI V0 load(1, XDATA, add(CFA_XSP16, literal(-11)))
        CFI V1 load(1, XDATA, add(CFA_XSP16, literal(-10)))
        CFI V2 load(1, XDATA, add(CFA_XSP16, literal(-9)))
        CFI V3 load(1, XDATA, add(CFA_XSP16, literal(-8)))
        CFI V4 load(1, XDATA, add(CFA_XSP16, literal(-7)))
        CFI R7 load(1, XDATA, add(CFA_XSP16, literal(-6)))
        CFI ?RET_LOW load(1, XDATA, add(CFA_XSP16, literal(-5)))
        CFI ?RET_HIGH load(1, XDATA, add(CFA_XSP16, literal(-4)))
        CFI ?BRET_EXT load(1, XDATA, add(CFA_XSP16, literal(-3)))
        CFI DPL0 load(1, XDATA, add(CFA_XSP16, literal(-2)))
        CFI DPH0 load(1, XDATA, add(CFA_XSP16, literal(-1)))
        CFI CFA_SP SP+0
        CFI CFA_XSP16 add(XSP16, 15)
        CFI Block cfiCond48 Using cfiCommon0
        CFI (cfiCond48) NoFunction
        CFI (cfiCond48) Conditional ??CrossCallReturnLabel_22
        CFI (cfiCond48) R6 load(1, XDATA, add(CFA_XSP16, literal(-12)))
        CFI (cfiCond48) VB load(1, XDATA, add(CFA_XSP16, literal(-11)))
        CFI (cfiCond48) V0 load(1, XDATA, add(CFA_XSP16, literal(-10)))
        CFI (cfiCond48) V1 load(1, XDATA, add(CFA_XSP16, literal(-9)))
        CFI (cfiCond48) V2 load(1, XDATA, add(CFA_XSP16, literal(-8)))
        CFI (cfiCond48) V3 load(1, XDATA, add(CFA_XSP16, literal(-7)))
        CFI (cfiCond48) R7 load(1, XDATA, add(CFA_XSP16, literal(-6)))
        CFI (cfiCond48) ?RET_LOW load(1, XDATA, add(CFA_XSP16, literal(-5)))
        CFI (cfiCond48) ?RET_HIGH load(1, XDATA, add(CFA_XSP16, literal(-4)))
        CFI (cfiCond48) ?BRET_EXT load(1, XDATA, add(CFA_XSP16, literal(-3)))
        CFI (cfiCond48) DPL0 load(1, XDATA, add(CFA_XSP16, literal(-2)))
        CFI (cfiCond48) DPH0 load(1, XDATA, add(CFA_XSP16, literal(-1)))
        CFI (cfiCond48) CFA_SP SP+0
        CFI (cfiCond48) CFA_XSP16 add(XSP16, 12)
        CFI Block cfiPicker49 Using cfiCommon1
        CFI (cfiPicker49) NoFunction
        CFI (cfiPicker49) Picker
        ADDC    A,#0x0
        MOV     R3,A
        MOV     R1,#0x0
        LCALL   ??HalUARTWrite?relay
        RET
        CFI EndBlock cfiCond47
        CFI EndBlock cfiCond48
        CFI EndBlock cfiPicker49
//  841 
//  842 
//  843 
//  844 
//  845 
//  846 
//  847 
//  848 /*********************************************************************
//  849  * LOCAL FUNCTIONS
//  850  */
//  851 
//  852 /*********************************************************************
//  853  * @fn      SampleApp_MessageMSGCB  接收函数
//  854  *
//  855  *          处理接收到的数据,可能是从其他设备收到的数据.
//  856  *
//  857  * @brief   Data message processor callback.  This function processes
//  858  *          any incoming data - probably from other devices.  So, based
//  859  *          on cluster ID, perform the intended action.
//  860  * @param   none
//  861  *
//  862  * @return  none
//  863  */

        RSEG BANKED_CODE:CODE:NOROOT(0)
//  864 void SampleApp_MessageMSGCB( afIncomingMSGPacket_t *pkt )
SampleApp_MessageMSGCB:
        CFI Block cfiBlock50 Using cfiCommon0
        CFI Function SampleApp_MessageMSGCB
        CODE
//  865 {
        FUNCALL SampleApp_MessageMSGCB, Power_of_2
        LOCFRAME ISTACK, 0, STACK
        LOCFRAME PSTACK, 0, STACK
        LOCFRAME XSTACK, 33, STACK
        LOCFRAME IOVERLAY, 0, STATIC
        LOCFRAME DOVERLAY, 0, STATIC
        ARGFRAME ISTACK, 0, STACK
        ARGFRAME PSTACK, 0, STACK
        ARGFRAME XSTACK, 33, STACK
        ARGFRAME IOVERLAY, 0, STATIC
        ARGFRAME DOVERLAY, 0, STATIC
        FUNCALL SampleApp_MessageMSGCB, HalUARTWrite
        LOCFRAME ISTACK, 0, STACK
        LOCFRAME PSTACK, 0, STACK
        LOCFRAME XSTACK, 33, STACK
        LOCFRAME IOVERLAY, 0, STATIC
        LOCFRAME DOVERLAY, 0, STATIC
        ARGFRAME ISTACK, 0, STACK
        ARGFRAME PSTACK, 0, STACK
        ARGFRAME XSTACK, 33, STACK
        ARGFRAME IOVERLAY, 0, STATIC
        ARGFRAME DOVERLAY, 0, STATIC
        FUNCALL SampleApp_MessageMSGCB, Onboard_soft_reset
        LOCFRAME ISTACK, 0, STACK
        LOCFRAME PSTACK, 0, STACK
        LOCFRAME XSTACK, 33, STACK
        LOCFRAME IOVERLAY, 0, STATIC
        LOCFRAME DOVERLAY, 0, STATIC
        ARGFRAME ISTACK, 0, STACK
        ARGFRAME PSTACK, 0, STACK
        ARGFRAME XSTACK, 33, STACK
        ARGFRAME IOVERLAY, 0, STATIC
        ARGFRAME DOVERLAY, 0, STATIC
        FUNCALL SampleApp_MessageMSGCB, AF_DataRequest
        LOCFRAME ISTACK, 0, STACK
        LOCFRAME PSTACK, 0, STACK
        LOCFRAME XSTACK, 42, STACK
        LOCFRAME IOVERLAY, 0, STATIC
        LOCFRAME DOVERLAY, 0, STATIC
        ARGFRAME ISTACK, 0, STACK
        ARGFRAME PSTACK, 0, STACK
        ARGFRAME XSTACK, 42, STACK
        ARGFRAME IOVERLAY, 0, STATIC
        ARGFRAME DOVERLAY, 0, STATIC
        FUNCALL SampleApp_MessageMSGCB, HalLedBlink
        LOCFRAME ISTACK, 0, STACK
        LOCFRAME PSTACK, 0, STACK
        LOCFRAME XSTACK, 33, STACK
        LOCFRAME IOVERLAY, 0, STATIC
        LOCFRAME DOVERLAY, 0, STATIC
        ARGFRAME ISTACK, 0, STACK
        ARGFRAME PSTACK, 0, STACK
        ARGFRAME XSTACK, 33, STACK
        ARGFRAME IOVERLAY, 0, STATIC
        ARGFRAME DOVERLAY, 0, STATIC
        FUNCALL SampleApp_MessageMSGCB, HalUARTWrite
        LOCFRAME ISTACK, 0, STACK
        LOCFRAME PSTACK, 0, STACK
        LOCFRAME XSTACK, 33, STACK
        LOCFRAME IOVERLAY, 0, STATIC
        LOCFRAME DOVERLAY, 0, STATIC
        ARGFRAME ISTACK, 0, STACK
        ARGFRAME PSTACK, 0, STACK
        ARGFRAME XSTACK, 33, STACK
        ARGFRAME IOVERLAY, 0, STATIC
        ARGFRAME DOVERLAY, 0, STATIC
        FUNCALL SampleApp_MessageMSGCB, osal_getClock
        LOCFRAME ISTACK, 0, STACK
        LOCFRAME PSTACK, 0, STACK
        LOCFRAME XSTACK, 33, STACK
        LOCFRAME IOVERLAY, 0, STATIC
        LOCFRAME DOVERLAY, 0, STATIC
        ARGFRAME ISTACK, 0, STACK
        ARGFRAME PSTACK, 0, STACK
        ARGFRAME XSTACK, 33, STACK
        ARGFRAME IOVERLAY, 0, STATIC
        ARGFRAME DOVERLAY, 0, STATIC
        FUNCALL SampleApp_MessageMSGCB, srand
        LOCFRAME ISTACK, 0, STACK
        LOCFRAME PSTACK, 0, STACK
        LOCFRAME XSTACK, 33, STACK
        LOCFRAME IOVERLAY, 0, STATIC
        LOCFRAME DOVERLAY, 0, STATIC
        ARGFRAME ISTACK, 0, STACK
        ARGFRAME PSTACK, 0, STACK
        ARGFRAME XSTACK, 33, STACK
        ARGFRAME IOVERLAY, 0, STATIC
        ARGFRAME DOVERLAY, 0, STATIC
        FUNCALL SampleApp_MessageMSGCB, rand
        LOCFRAME ISTACK, 0, STACK
        LOCFRAME PSTACK, 0, STACK
        LOCFRAME XSTACK, 33, STACK
        LOCFRAME IOVERLAY, 0, STATIC
        LOCFRAME DOVERLAY, 0, STATIC
        ARGFRAME ISTACK, 0, STACK
        ARGFRAME PSTACK, 0, STACK
        ARGFRAME XSTACK, 33, STACK
        ARGFRAME IOVERLAY, 0, STATIC
        ARGFRAME DOVERLAY, 0, STATIC
        FUNCALL SampleApp_MessageMSGCB, AF_DataRequest
        LOCFRAME ISTACK, 0, STACK
        LOCFRAME PSTACK, 0, STACK
        LOCFRAME XSTACK, 42, STACK
        LOCFRAME IOVERLAY, 0, STATIC
        LOCFRAME DOVERLAY, 0, STATIC
        ARGFRAME ISTACK, 0, STACK
        ARGFRAME PSTACK, 0, STACK
        ARGFRAME XSTACK, 42, STACK
        ARGFRAME IOVERLAY, 0, STATIC
        ARGFRAME DOVERLAY, 0, STATIC
        FUNCALL SampleApp_MessageMSGCB, HalLedBlink
        LOCFRAME ISTACK, 0, STACK
        LOCFRAME PSTACK, 0, STACK
        LOCFRAME XSTACK, 33, STACK
        LOCFRAME IOVERLAY, 0, STATIC
        LOCFRAME DOVERLAY, 0, STATIC
        ARGFRAME ISTACK, 0, STACK
        ARGFRAME PSTACK, 0, STACK
        ARGFRAME XSTACK, 33, STACK
        ARGFRAME IOVERLAY, 0, STATIC
        ARGFRAME DOVERLAY, 0, STATIC
        FUNCALL SampleApp_MessageMSGCB, HalUARTWrite
        LOCFRAME ISTACK, 0, STACK
        LOCFRAME PSTACK, 0, STACK
        LOCFRAME XSTACK, 33, STACK
        LOCFRAME IOVERLAY, 0, STATIC
        LOCFRAME DOVERLAY, 0, STATIC
        ARGFRAME ISTACK, 0, STACK
        ARGFRAME PSTACK, 0, STACK
        ARGFRAME XSTACK, 33, STACK
        ARGFRAME IOVERLAY, 0, STATIC
        ARGFRAME DOVERLAY, 0, STATIC
        FUNCALL SampleApp_MessageMSGCB, HalUARTWrite
        LOCFRAME ISTACK, 0, STACK
        LOCFRAME PSTACK, 0, STACK
        LOCFRAME XSTACK, 33, STACK
        LOCFRAME IOVERLAY, 0, STATIC
        LOCFRAME DOVERLAY, 0, STATIC
        ARGFRAME ISTACK, 0, STACK
        ARGFRAME PSTACK, 0, STACK
        ARGFRAME XSTACK, 33, STACK
        ARGFRAME IOVERLAY, 0, STATIC
        ARGFRAME DOVERLAY, 0, STATIC
        FUNCALL SampleApp_MessageMSGCB, Show_Bit
        LOCFRAME ISTACK, 0, STACK
        LOCFRAME PSTACK, 0, STACK
        LOCFRAME XSTACK, 33, STACK
        LOCFRAME IOVERLAY, 0, STATIC
        LOCFRAME DOVERLAY, 0, STATIC
        ARGFRAME ISTACK, 0, STACK
        ARGFRAME PSTACK, 0, STACK
        ARGFRAME XSTACK, 33, STACK
        ARGFRAME IOVERLAY, 0, STATIC
        ARGFRAME DOVERLAY, 0, STATIC
        FUNCALL SampleApp_MessageMSGCB, HalUARTWrite
        LOCFRAME ISTACK, 0, STACK
        LOCFRAME PSTACK, 0, STACK
        LOCFRAME XSTACK, 33, STACK
        LOCFRAME IOVERLAY, 0, STATIC
        LOCFRAME DOVERLAY, 0, STATIC
        ARGFRAME ISTACK, 0, STACK
        ARGFRAME PSTACK, 0, STACK
        ARGFRAME XSTACK, 33, STACK
        ARGFRAME IOVERLAY, 0, STATIC
        ARGFRAME DOVERLAY, 0, STATIC
        FUNCALL SampleApp_MessageMSGCB, Show_Bit
        LOCFRAME ISTACK, 0, STACK
        LOCFRAME PSTACK, 0, STACK
        LOCFRAME XSTACK, 33, STACK
        LOCFRAME IOVERLAY, 0, STATIC
        LOCFRAME DOVERLAY, 0, STATIC
        ARGFRAME ISTACK, 0, STACK
        ARGFRAME PSTACK, 0, STACK
        ARGFRAME XSTACK, 33, STACK
        ARGFRAME IOVERLAY, 0, STATIC
        ARGFRAME DOVERLAY, 0, STATIC
        FUNCALL SampleApp_MessageMSGCB, HalUARTWrite
        LOCFRAME ISTACK, 0, STACK
        LOCFRAME PSTACK, 0, STACK
        LOCFRAME XSTACK, 33, STACK
        LOCFRAME IOVERLAY, 0, STATIC
        LOCFRAME DOVERLAY, 0, STATIC
        ARGFRAME ISTACK, 0, STACK
        ARGFRAME PSTACK, 0, STACK
        ARGFRAME XSTACK, 33, STACK
        ARGFRAME IOVERLAY, 0, STATIC
        ARGFRAME DOVERLAY, 0, STATIC
        FUNCALL SampleApp_MessageMSGCB, HalUARTWrite
        LOCFRAME ISTACK, 0, STACK
        LOCFRAME PSTACK, 0, STACK
        LOCFRAME XSTACK, 33, STACK
        LOCFRAME IOVERLAY, 0, STATIC
        LOCFRAME DOVERLAY, 0, STATIC
        ARGFRAME ISTACK, 0, STACK
        ARGFRAME PSTACK, 0, STACK
        ARGFRAME XSTACK, 33, STACK
        ARGFRAME IOVERLAY, 0, STATIC
        ARGFRAME DOVERLAY, 0, STATIC
        FUNCALL SampleApp_MessageMSGCB, HalUARTWrite
        LOCFRAME ISTACK, 0, STACK
        LOCFRAME PSTACK, 0, STACK
        LOCFRAME XSTACK, 33, STACK
        LOCFRAME IOVERLAY, 0, STATIC
        LOCFRAME DOVERLAY, 0, STATIC
        ARGFRAME ISTACK, 0, STACK
        ARGFRAME PSTACK, 0, STACK
        ARGFRAME XSTACK, 33, STACK
        ARGFRAME IOVERLAY, 0, STATIC
        ARGFRAME DOVERLAY, 0, STATIC
        FUNCALL SampleApp_MessageMSGCB, Power_of_2
        LOCFRAME ISTACK, 0, STACK
        LOCFRAME PSTACK, 0, STACK
        LOCFRAME XSTACK, 33, STACK
        LOCFRAME IOVERLAY, 0, STATIC
        LOCFRAME DOVERLAY, 0, STATIC
        ARGFRAME ISTACK, 0, STACK
        ARGFRAME PSTACK, 0, STACK
        ARGFRAME XSTACK, 33, STACK
        ARGFRAME IOVERLAY, 0, STATIC
        ARGFRAME DOVERLAY, 0, STATIC
        FUNCALL SampleApp_MessageMSGCB, HalUARTWrite
        LOCFRAME ISTACK, 0, STACK
        LOCFRAME PSTACK, 0, STACK
        LOCFRAME XSTACK, 33, STACK
        LOCFRAME IOVERLAY, 0, STATIC
        LOCFRAME DOVERLAY, 0, STATIC
        ARGFRAME ISTACK, 0, STACK
        ARGFRAME PSTACK, 0, STACK
        ARGFRAME XSTACK, 33, STACK
        ARGFRAME IOVERLAY, 0, STATIC
        ARGFRAME DOVERLAY, 0, STATIC
        FUNCALL SampleApp_MessageMSGCB, HalUARTWrite
        LOCFRAME ISTACK, 0, STACK
        LOCFRAME PSTACK, 0, STACK
        LOCFRAME XSTACK, 33, STACK
        LOCFRAME IOVERLAY, 0, STATIC
        LOCFRAME DOVERLAY, 0, STATIC
        ARGFRAME ISTACK, 0, STACK
        ARGFRAME PSTACK, 0, STACK
        ARGFRAME XSTACK, 33, STACK
        ARGFRAME IOVERLAY, 0, STATIC
        ARGFRAME DOVERLAY, 0, STATIC
        FUNCALL SampleApp_MessageMSGCB, HalUARTWrite
        LOCFRAME ISTACK, 0, STACK
        LOCFRAME PSTACK, 0, STACK
        LOCFRAME XSTACK, 33, STACK
        LOCFRAME IOVERLAY, 0, STATIC
        LOCFRAME DOVERLAY, 0, STATIC
        ARGFRAME ISTACK, 0, STACK
        ARGFRAME PSTACK, 0, STACK
        ARGFRAME XSTACK, 33, STACK
        ARGFRAME IOVERLAY, 0, STATIC
        ARGFRAME DOVERLAY, 0, STATIC
        FUNCALL SampleApp_MessageMSGCB, HalUARTWrite
        LOCFRAME ISTACK, 0, STACK
        LOCFRAME PSTACK, 0, STACK
        LOCFRAME XSTACK, 33, STACK
        LOCFRAME IOVERLAY, 0, STATIC
        LOCFRAME DOVERLAY, 0, STATIC
        ARGFRAME ISTACK, 0, STACK
        ARGFRAME PSTACK, 0, STACK
        ARGFRAME XSTACK, 33, STACK
        ARGFRAME IOVERLAY, 0, STATIC
        ARGFRAME DOVERLAY, 0, STATIC
        FUNCALL SampleApp_MessageMSGCB, HalUARTWrite
        LOCFRAME ISTACK, 0, STACK
        LOCFRAME PSTACK, 0, STACK
        LOCFRAME XSTACK, 33, STACK
        LOCFRAME IOVERLAY, 0, STATIC
        LOCFRAME DOVERLAY, 0, STATIC
        ARGFRAME ISTACK, 0, STACK
        ARGFRAME PSTACK, 0, STACK
        ARGFRAME XSTACK, 33, STACK
        ARGFRAME IOVERLAY, 0, STATIC
        ARGFRAME DOVERLAY, 0, STATIC
        FUNCALL SampleApp_MessageMSGCB, HalUARTWrite
        LOCFRAME ISTACK, 0, STACK
        LOCFRAME PSTACK, 0, STACK
        LOCFRAME XSTACK, 33, STACK
        LOCFRAME IOVERLAY, 0, STATIC
        LOCFRAME DOVERLAY, 0, STATIC
        ARGFRAME ISTACK, 0, STACK
        ARGFRAME PSTACK, 0, STACK
        ARGFRAME XSTACK, 33, STACK
        ARGFRAME IOVERLAY, 0, STATIC
        ARGFRAME DOVERLAY, 0, STATIC
        FUNCALL SampleApp_MessageMSGCB, Show_Bit
        LOCFRAME ISTACK, 0, STACK
        LOCFRAME PSTACK, 0, STACK
        LOCFRAME XSTACK, 33, STACK
        LOCFRAME IOVERLAY, 0, STATIC
        LOCFRAME DOVERLAY, 0, STATIC
        ARGFRAME ISTACK, 0, STACK
        ARGFRAME PSTACK, 0, STACK
        ARGFRAME XSTACK, 33, STACK
        ARGFRAME IOVERLAY, 0, STATIC
        ARGFRAME DOVERLAY, 0, STATIC
        FUNCALL SampleApp_MessageMSGCB, HalUARTWrite
        LOCFRAME ISTACK, 0, STACK
        LOCFRAME PSTACK, 0, STACK
        LOCFRAME XSTACK, 33, STACK
        LOCFRAME IOVERLAY, 0, STATIC
        LOCFRAME DOVERLAY, 0, STATIC
        ARGFRAME ISTACK, 0, STACK
        ARGFRAME PSTACK, 0, STACK
        ARGFRAME XSTACK, 33, STACK
        ARGFRAME IOVERLAY, 0, STATIC
        ARGFRAME DOVERLAY, 0, STATIC
        FUNCALL SampleApp_MessageMSGCB, Show_Num
        LOCFRAME ISTACK, 0, STACK
        LOCFRAME PSTACK, 0, STACK
        LOCFRAME XSTACK, 33, STACK
        LOCFRAME IOVERLAY, 0, STATIC
        LOCFRAME DOVERLAY, 0, STATIC
        ARGFRAME ISTACK, 0, STACK
        ARGFRAME PSTACK, 0, STACK
        ARGFRAME XSTACK, 33, STACK
        ARGFRAME IOVERLAY, 0, STATIC
        ARGFRAME DOVERLAY, 0, STATIC
        FUNCALL SampleApp_MessageMSGCB, HalUARTWrite
        LOCFRAME ISTACK, 0, STACK
        LOCFRAME PSTACK, 0, STACK
        LOCFRAME XSTACK, 33, STACK
        LOCFRAME IOVERLAY, 0, STATIC
        LOCFRAME DOVERLAY, 0, STATIC
        ARGFRAME ISTACK, 0, STACK
        ARGFRAME PSTACK, 0, STACK
        ARGFRAME XSTACK, 33, STACK
        ARGFRAME IOVERLAY, 0, STATIC
        ARGFRAME DOVERLAY, 0, STATIC
        FUNCALL SampleApp_MessageMSGCB, Show_Bit
        LOCFRAME ISTACK, 0, STACK
        LOCFRAME PSTACK, 0, STACK
        LOCFRAME XSTACK, 33, STACK
        LOCFRAME IOVERLAY, 0, STATIC
        LOCFRAME DOVERLAY, 0, STATIC
        ARGFRAME ISTACK, 0, STACK
        ARGFRAME PSTACK, 0, STACK
        ARGFRAME XSTACK, 33, STACK
        ARGFRAME IOVERLAY, 0, STATIC
        ARGFRAME DOVERLAY, 0, STATIC
        FUNCALL SampleApp_MessageMSGCB, HalUARTWrite
        LOCFRAME ISTACK, 0, STACK
        LOCFRAME PSTACK, 0, STACK
        LOCFRAME XSTACK, 33, STACK
        LOCFRAME IOVERLAY, 0, STATIC
        LOCFRAME DOVERLAY, 0, STATIC
        ARGFRAME ISTACK, 0, STACK
        ARGFRAME PSTACK, 0, STACK
        ARGFRAME XSTACK, 33, STACK
        ARGFRAME IOVERLAY, 0, STATIC
        ARGFRAME DOVERLAY, 0, STATIC
        FUNCALL SampleApp_MessageMSGCB, Show_Num
        LOCFRAME ISTACK, 0, STACK
        LOCFRAME PSTACK, 0, STACK
        LOCFRAME XSTACK, 33, STACK
        LOCFRAME IOVERLAY, 0, STATIC
        LOCFRAME DOVERLAY, 0, STATIC
        ARGFRAME ISTACK, 0, STACK
        ARGFRAME PSTACK, 0, STACK
        ARGFRAME XSTACK, 33, STACK
        ARGFRAME IOVERLAY, 0, STATIC
        ARGFRAME DOVERLAY, 0, STATIC
        FUNCALL SampleApp_MessageMSGCB, HalUARTWrite
        LOCFRAME ISTACK, 0, STACK
        LOCFRAME PSTACK, 0, STACK
        LOCFRAME XSTACK, 33, STACK
        LOCFRAME IOVERLAY, 0, STATIC
        LOCFRAME DOVERLAY, 0, STATIC
        ARGFRAME ISTACK, 0, STACK
        ARGFRAME PSTACK, 0, STACK
        ARGFRAME XSTACK, 33, STACK
        ARGFRAME IOVERLAY, 0, STATIC
        ARGFRAME DOVERLAY, 0, STATIC
        FUNCALL SampleApp_MessageMSGCB, Show_Bit
        LOCFRAME ISTACK, 0, STACK
        LOCFRAME PSTACK, 0, STACK
        LOCFRAME XSTACK, 33, STACK
        LOCFRAME IOVERLAY, 0, STATIC
        LOCFRAME DOVERLAY, 0, STATIC
        ARGFRAME ISTACK, 0, STACK
        ARGFRAME PSTACK, 0, STACK
        ARGFRAME XSTACK, 33, STACK
        ARGFRAME IOVERLAY, 0, STATIC
        ARGFRAME DOVERLAY, 0, STATIC
        FUNCALL SampleApp_MessageMSGCB, HalUARTWrite
        LOCFRAME ISTACK, 0, STACK
        LOCFRAME PSTACK, 0, STACK
        LOCFRAME XSTACK, 33, STACK
        LOCFRAME IOVERLAY, 0, STATIC
        LOCFRAME DOVERLAY, 0, STATIC
        ARGFRAME ISTACK, 0, STACK
        ARGFRAME PSTACK, 0, STACK
        ARGFRAME XSTACK, 33, STACK
        ARGFRAME IOVERLAY, 0, STATIC
        ARGFRAME DOVERLAY, 0, STATIC
        FUNCALL SampleApp_MessageMSGCB, Show_Num
        LOCFRAME ISTACK, 0, STACK
        LOCFRAME PSTACK, 0, STACK
        LOCFRAME XSTACK, 33, STACK
        LOCFRAME IOVERLAY, 0, STATIC
        LOCFRAME DOVERLAY, 0, STATIC
        ARGFRAME ISTACK, 0, STACK
        ARGFRAME PSTACK, 0, STACK
        ARGFRAME XSTACK, 33, STACK
        ARGFRAME IOVERLAY, 0, STATIC
        ARGFRAME DOVERLAY, 0, STATIC
        FUNCALL SampleApp_MessageMSGCB, HalUARTWrite
        LOCFRAME ISTACK, 0, STACK
        LOCFRAME PSTACK, 0, STACK
        LOCFRAME XSTACK, 33, STACK
        LOCFRAME IOVERLAY, 0, STATIC
        LOCFRAME DOVERLAY, 0, STATIC
        ARGFRAME ISTACK, 0, STACK
        ARGFRAME PSTACK, 0, STACK
        ARGFRAME XSTACK, 33, STACK
        ARGFRAME IOVERLAY, 0, STATIC
        ARGFRAME DOVERLAY, 0, STATIC
        FUNCALL SampleApp_MessageMSGCB, HalUARTWrite
        LOCFRAME ISTACK, 0, STACK
        LOCFRAME PSTACK, 0, STACK
        LOCFRAME XSTACK, 33, STACK
        LOCFRAME IOVERLAY, 0, STATIC
        LOCFRAME DOVERLAY, 0, STATIC
        ARGFRAME ISTACK, 0, STACK
        ARGFRAME PSTACK, 0, STACK
        ARGFRAME XSTACK, 33, STACK
        ARGFRAME IOVERLAY, 0, STATIC
        ARGFRAME DOVERLAY, 0, STATIC
        FUNCALL SampleApp_MessageMSGCB, HalUARTWrite
        LOCFRAME ISTACK, 0, STACK
        LOCFRAME PSTACK, 0, STACK
        LOCFRAME XSTACK, 33, STACK
        LOCFRAME IOVERLAY, 0, STATIC
        LOCFRAME DOVERLAY, 0, STATIC
        ARGFRAME ISTACK, 0, STACK
        ARGFRAME PSTACK, 0, STACK
        ARGFRAME XSTACK, 33, STACK
        ARGFRAME IOVERLAY, 0, STATIC
        ARGFRAME DOVERLAY, 0, STATIC
        FUNCALL SampleApp_MessageMSGCB, Show_Num
        LOCFRAME ISTACK, 0, STACK
        LOCFRAME PSTACK, 0, STACK
        LOCFRAME XSTACK, 33, STACK
        LOCFRAME IOVERLAY, 0, STATIC
        LOCFRAME DOVERLAY, 0, STATIC
        ARGFRAME ISTACK, 0, STACK
        ARGFRAME PSTACK, 0, STACK
        ARGFRAME XSTACK, 33, STACK
        ARGFRAME IOVERLAY, 0, STATIC
        ARGFRAME DOVERLAY, 0, STATIC
        FUNCALL SampleApp_MessageMSGCB, HalUARTWrite
        LOCFRAME ISTACK, 0, STACK
        LOCFRAME PSTACK, 0, STACK
        LOCFRAME XSTACK, 33, STACK
        LOCFRAME IOVERLAY, 0, STATIC
        LOCFRAME DOVERLAY, 0, STATIC
        ARGFRAME ISTACK, 0, STACK
        ARGFRAME PSTACK, 0, STACK
        ARGFRAME XSTACK, 33, STACK
        ARGFRAME IOVERLAY, 0, STATIC
        ARGFRAME DOVERLAY, 0, STATIC
        FUNCALL SampleApp_MessageMSGCB, AF_DataRequest
        LOCFRAME ISTACK, 0, STACK
        LOCFRAME PSTACK, 0, STACK
        LOCFRAME XSTACK, 42, STACK
        LOCFRAME IOVERLAY, 0, STATIC
        LOCFRAME DOVERLAY, 0, STATIC
        ARGFRAME ISTACK, 0, STACK
        ARGFRAME PSTACK, 0, STACK
        ARGFRAME XSTACK, 42, STACK
        ARGFRAME IOVERLAY, 0, STATIC
        ARGFRAME DOVERLAY, 0, STATIC
        FUNCALL SampleApp_MessageMSGCB, HalUARTWrite
        LOCFRAME ISTACK, 0, STACK
        LOCFRAME PSTACK, 0, STACK
        LOCFRAME XSTACK, 33, STACK
        LOCFRAME IOVERLAY, 0, STATIC
        LOCFRAME DOVERLAY, 0, STATIC
        ARGFRAME ISTACK, 0, STACK
        ARGFRAME PSTACK, 0, STACK
        ARGFRAME XSTACK, 33, STACK
        ARGFRAME IOVERLAY, 0, STATIC
        ARGFRAME DOVERLAY, 0, STATIC
        FUNCALL SampleApp_MessageMSGCB, osal_getClock
        LOCFRAME ISTACK, 0, STACK
        LOCFRAME PSTACK, 0, STACK
        LOCFRAME XSTACK, 33, STACK
        LOCFRAME IOVERLAY, 0, STATIC
        LOCFRAME DOVERLAY, 0, STATIC
        ARGFRAME ISTACK, 0, STACK
        ARGFRAME PSTACK, 0, STACK
        ARGFRAME XSTACK, 33, STACK
        ARGFRAME IOVERLAY, 0, STATIC
        ARGFRAME DOVERLAY, 0, STATIC
        FUNCALL SampleApp_MessageMSGCB, srand
        LOCFRAME ISTACK, 0, STACK
        LOCFRAME PSTACK, 0, STACK
        LOCFRAME XSTACK, 33, STACK
        LOCFRAME IOVERLAY, 0, STATIC
        LOCFRAME DOVERLAY, 0, STATIC
        ARGFRAME ISTACK, 0, STACK
        ARGFRAME PSTACK, 0, STACK
        ARGFRAME XSTACK, 33, STACK
        ARGFRAME IOVERLAY, 0, STATIC
        ARGFRAME DOVERLAY, 0, STATIC
        FUNCALL SampleApp_MessageMSGCB, rand
        LOCFRAME ISTACK, 0, STACK
        LOCFRAME PSTACK, 0, STACK
        LOCFRAME XSTACK, 33, STACK
        LOCFRAME IOVERLAY, 0, STATIC
        LOCFRAME DOVERLAY, 0, STATIC
        ARGFRAME ISTACK, 0, STACK
        ARGFRAME PSTACK, 0, STACK
        ARGFRAME XSTACK, 33, STACK
        ARGFRAME IOVERLAY, 0, STATIC
        ARGFRAME DOVERLAY, 0, STATIC
        FUNCALL SampleApp_MessageMSGCB, AF_DataRequest
        LOCFRAME ISTACK, 0, STACK
        LOCFRAME PSTACK, 0, STACK
        LOCFRAME XSTACK, 42, STACK
        LOCFRAME IOVERLAY, 0, STATIC
        LOCFRAME DOVERLAY, 0, STATIC
        ARGFRAME ISTACK, 0, STACK
        ARGFRAME PSTACK, 0, STACK
        ARGFRAME XSTACK, 42, STACK
        ARGFRAME IOVERLAY, 0, STATIC
        ARGFRAME DOVERLAY, 0, STATIC
        FUNCALL SampleApp_MessageMSGCB, HalUARTWrite
        LOCFRAME ISTACK, 0, STACK
        LOCFRAME PSTACK, 0, STACK
        LOCFRAME XSTACK, 33, STACK
        LOCFRAME IOVERLAY, 0, STATIC
        LOCFRAME DOVERLAY, 0, STATIC
        ARGFRAME ISTACK, 0, STACK
        ARGFRAME PSTACK, 0, STACK
        ARGFRAME XSTACK, 33, STACK
        ARGFRAME IOVERLAY, 0, STATIC
        ARGFRAME DOVERLAY, 0, STATIC
        FUNCALL SampleApp_MessageMSGCB, Show_Bit
        LOCFRAME ISTACK, 0, STACK
        LOCFRAME PSTACK, 0, STACK
        LOCFRAME XSTACK, 33, STACK
        LOCFRAME IOVERLAY, 0, STATIC
        LOCFRAME DOVERLAY, 0, STATIC
        ARGFRAME ISTACK, 0, STACK
        ARGFRAME PSTACK, 0, STACK
        ARGFRAME XSTACK, 33, STACK
        ARGFRAME IOVERLAY, 0, STATIC
        ARGFRAME DOVERLAY, 0, STATIC
        FUNCALL SampleApp_MessageMSGCB, HalUARTWrite
        LOCFRAME ISTACK, 0, STACK
        LOCFRAME PSTACK, 0, STACK
        LOCFRAME XSTACK, 33, STACK
        LOCFRAME IOVERLAY, 0, STATIC
        LOCFRAME DOVERLAY, 0, STATIC
        ARGFRAME ISTACK, 0, STACK
        ARGFRAME PSTACK, 0, STACK
        ARGFRAME XSTACK, 33, STACK
        ARGFRAME IOVERLAY, 0, STATIC
        ARGFRAME DOVERLAY, 0, STATIC
        FUNCALL SampleApp_MessageMSGCB, Show_Bit
        LOCFRAME ISTACK, 0, STACK
        LOCFRAME PSTACK, 0, STACK
        LOCFRAME XSTACK, 33, STACK
        LOCFRAME IOVERLAY, 0, STATIC
        LOCFRAME DOVERLAY, 0, STATIC
        ARGFRAME ISTACK, 0, STACK
        ARGFRAME PSTACK, 0, STACK
        ARGFRAME XSTACK, 33, STACK
        ARGFRAME IOVERLAY, 0, STATIC
        ARGFRAME DOVERLAY, 0, STATIC
        FUNCALL SampleApp_MessageMSGCB, HalUARTWrite
        LOCFRAME ISTACK, 0, STACK
        LOCFRAME PSTACK, 0, STACK
        LOCFRAME XSTACK, 33, STACK
        LOCFRAME IOVERLAY, 0, STATIC
        LOCFRAME DOVERLAY, 0, STATIC
        ARGFRAME ISTACK, 0, STACK
        ARGFRAME PSTACK, 0, STACK
        ARGFRAME XSTACK, 33, STACK
        ARGFRAME IOVERLAY, 0, STATIC
        ARGFRAME DOVERLAY, 0, STATIC
        FUNCALL SampleApp_MessageMSGCB, HalUARTWrite
        LOCFRAME ISTACK, 0, STACK
        LOCFRAME PSTACK, 0, STACK
        LOCFRAME XSTACK, 33, STACK
        LOCFRAME IOVERLAY, 0, STATIC
        LOCFRAME DOVERLAY, 0, STATIC
        ARGFRAME ISTACK, 0, STACK
        ARGFRAME PSTACK, 0, STACK
        ARGFRAME XSTACK, 33, STACK
        ARGFRAME IOVERLAY, 0, STATIC
        ARGFRAME DOVERLAY, 0, STATIC
        FUNCALL SampleApp_MessageMSGCB, Power_of_2
        LOCFRAME ISTACK, 0, STACK
        LOCFRAME PSTACK, 0, STACK
        LOCFRAME XSTACK, 33, STACK
        LOCFRAME IOVERLAY, 0, STATIC
        LOCFRAME DOVERLAY, 0, STATIC
        ARGFRAME ISTACK, 0, STACK
        ARGFRAME PSTACK, 0, STACK
        ARGFRAME XSTACK, 33, STACK
        ARGFRAME IOVERLAY, 0, STATIC
        ARGFRAME DOVERLAY, 0, STATIC
        FUNCALL SampleApp_MessageMSGCB, HalUARTWrite
        LOCFRAME ISTACK, 0, STACK
        LOCFRAME PSTACK, 0, STACK
        LOCFRAME XSTACK, 33, STACK
        LOCFRAME IOVERLAY, 0, STATIC
        LOCFRAME DOVERLAY, 0, STATIC
        ARGFRAME ISTACK, 0, STACK
        ARGFRAME PSTACK, 0, STACK
        ARGFRAME XSTACK, 33, STACK
        ARGFRAME IOVERLAY, 0, STATIC
        ARGFRAME DOVERLAY, 0, STATIC
        FUNCALL SampleApp_MessageMSGCB, HalUARTWrite
        LOCFRAME ISTACK, 0, STACK
        LOCFRAME PSTACK, 0, STACK
        LOCFRAME XSTACK, 33, STACK
        LOCFRAME IOVERLAY, 0, STATIC
        LOCFRAME DOVERLAY, 0, STATIC
        ARGFRAME ISTACK, 0, STACK
        ARGFRAME PSTACK, 0, STACK
        ARGFRAME XSTACK, 33, STACK
        ARGFRAME IOVERLAY, 0, STATIC
        ARGFRAME DOVERLAY, 0, STATIC
        FUNCALL SampleApp_MessageMSGCB, HalUARTWrite
        LOCFRAME ISTACK, 0, STACK
        LOCFRAME PSTACK, 0, STACK
        LOCFRAME XSTACK, 33, STACK
        LOCFRAME IOVERLAY, 0, STATIC
        LOCFRAME DOVERLAY, 0, STATIC
        ARGFRAME ISTACK, 0, STACK
        ARGFRAME PSTACK, 0, STACK
        ARGFRAME XSTACK, 33, STACK
        ARGFRAME IOVERLAY, 0, STATIC
        ARGFRAME DOVERLAY, 0, STATIC
        FUNCALL SampleApp_MessageMSGCB, HalUARTWrite
        LOCFRAME ISTACK, 0, STACK
        LOCFRAME PSTACK, 0, STACK
        LOCFRAME XSTACK, 33, STACK
        LOCFRAME IOVERLAY, 0, STATIC
        LOCFRAME DOVERLAY, 0, STATIC
        ARGFRAME ISTACK, 0, STACK
        ARGFRAME PSTACK, 0, STACK
        ARGFRAME XSTACK, 33, STACK
        ARGFRAME IOVERLAY, 0, STATIC
        ARGFRAME DOVERLAY, 0, STATIC
        FUNCALL SampleApp_MessageMSGCB, HalUARTWrite
        LOCFRAME ISTACK, 0, STACK
        LOCFRAME PSTACK, 0, STACK
        LOCFRAME XSTACK, 33, STACK
        LOCFRAME IOVERLAY, 0, STATIC
        LOCFRAME DOVERLAY, 0, STATIC
        ARGFRAME ISTACK, 0, STACK
        ARGFRAME PSTACK, 0, STACK
        ARGFRAME XSTACK, 33, STACK
        ARGFRAME IOVERLAY, 0, STATIC
        ARGFRAME DOVERLAY, 0, STATIC
        FUNCALL SampleApp_MessageMSGCB, HalUARTWrite
        LOCFRAME ISTACK, 0, STACK
        LOCFRAME PSTACK, 0, STACK
        LOCFRAME XSTACK, 33, STACK
        LOCFRAME IOVERLAY, 0, STATIC
        LOCFRAME DOVERLAY, 0, STATIC
        ARGFRAME ISTACK, 0, STACK
        ARGFRAME PSTACK, 0, STACK
        ARGFRAME XSTACK, 33, STACK
        ARGFRAME IOVERLAY, 0, STATIC
        ARGFRAME DOVERLAY, 0, STATIC
        FUNCALL SampleApp_MessageMSGCB, Show_Bit
        LOCFRAME ISTACK, 0, STACK
        LOCFRAME PSTACK, 0, STACK
        LOCFRAME XSTACK, 33, STACK
        LOCFRAME IOVERLAY, 0, STATIC
        LOCFRAME DOVERLAY, 0, STATIC
        ARGFRAME ISTACK, 0, STACK
        ARGFRAME PSTACK, 0, STACK
        ARGFRAME XSTACK, 33, STACK
        ARGFRAME IOVERLAY, 0, STATIC
        ARGFRAME DOVERLAY, 0, STATIC
        FUNCALL SampleApp_MessageMSGCB, HalUARTWrite
        LOCFRAME ISTACK, 0, STACK
        LOCFRAME PSTACK, 0, STACK
        LOCFRAME XSTACK, 33, STACK
        LOCFRAME IOVERLAY, 0, STATIC
        LOCFRAME DOVERLAY, 0, STATIC
        ARGFRAME ISTACK, 0, STACK
        ARGFRAME PSTACK, 0, STACK
        ARGFRAME XSTACK, 33, STACK
        ARGFRAME IOVERLAY, 0, STATIC
        ARGFRAME DOVERLAY, 0, STATIC
        FUNCALL SampleApp_MessageMSGCB, Show_Num
        LOCFRAME ISTACK, 0, STACK
        LOCFRAME PSTACK, 0, STACK
        LOCFRAME XSTACK, 33, STACK
        LOCFRAME IOVERLAY, 0, STATIC
        LOCFRAME DOVERLAY, 0, STATIC
        ARGFRAME ISTACK, 0, STACK
        ARGFRAME PSTACK, 0, STACK
        ARGFRAME XSTACK, 33, STACK
        ARGFRAME IOVERLAY, 0, STATIC
        ARGFRAME DOVERLAY, 0, STATIC
        FUNCALL SampleApp_MessageMSGCB, HalUARTWrite
        LOCFRAME ISTACK, 0, STACK
        LOCFRAME PSTACK, 0, STACK
        LOCFRAME XSTACK, 33, STACK
        LOCFRAME IOVERLAY, 0, STATIC
        LOCFRAME DOVERLAY, 0, STATIC
        ARGFRAME ISTACK, 0, STACK
        ARGFRAME PSTACK, 0, STACK
        ARGFRAME XSTACK, 33, STACK
        ARGFRAME IOVERLAY, 0, STATIC
        ARGFRAME DOVERLAY, 0, STATIC
        FUNCALL SampleApp_MessageMSGCB, Show_Bit
        LOCFRAME ISTACK, 0, STACK
        LOCFRAME PSTACK, 0, STACK
        LOCFRAME XSTACK, 33, STACK
        LOCFRAME IOVERLAY, 0, STATIC
        LOCFRAME DOVERLAY, 0, STATIC
        ARGFRAME ISTACK, 0, STACK
        ARGFRAME PSTACK, 0, STACK
        ARGFRAME XSTACK, 33, STACK
        ARGFRAME IOVERLAY, 0, STATIC
        ARGFRAME DOVERLAY, 0, STATIC
        FUNCALL SampleApp_MessageMSGCB, HalUARTWrite
        LOCFRAME ISTACK, 0, STACK
        LOCFRAME PSTACK, 0, STACK
        LOCFRAME XSTACK, 33, STACK
        LOCFRAME IOVERLAY, 0, STATIC
        LOCFRAME DOVERLAY, 0, STATIC
        ARGFRAME ISTACK, 0, STACK
        ARGFRAME PSTACK, 0, STACK
        ARGFRAME XSTACK, 33, STACK
        ARGFRAME IOVERLAY, 0, STATIC
        ARGFRAME DOVERLAY, 0, STATIC
        FUNCALL SampleApp_MessageMSGCB, Show_Num
        LOCFRAME ISTACK, 0, STACK
        LOCFRAME PSTACK, 0, STACK
        LOCFRAME XSTACK, 33, STACK
        LOCFRAME IOVERLAY, 0, STATIC
        LOCFRAME DOVERLAY, 0, STATIC
        ARGFRAME ISTACK, 0, STACK
        ARGFRAME PSTACK, 0, STACK
        ARGFRAME XSTACK, 33, STACK
        ARGFRAME IOVERLAY, 0, STATIC
        ARGFRAME DOVERLAY, 0, STATIC
        FUNCALL SampleApp_MessageMSGCB, HalUARTWrite
        LOCFRAME ISTACK, 0, STACK
        LOCFRAME PSTACK, 0, STACK
        LOCFRAME XSTACK, 33, STACK
        LOCFRAME IOVERLAY, 0, STATIC
        LOCFRAME DOVERLAY, 0, STATIC
        ARGFRAME ISTACK, 0, STACK
        ARGFRAME PSTACK, 0, STACK
        ARGFRAME XSTACK, 33, STACK
        ARGFRAME IOVERLAY, 0, STATIC
        ARGFRAME DOVERLAY, 0, STATIC
        FUNCALL SampleApp_MessageMSGCB, Show_Bit
        LOCFRAME ISTACK, 0, STACK
        LOCFRAME PSTACK, 0, STACK
        LOCFRAME XSTACK, 33, STACK
        LOCFRAME IOVERLAY, 0, STATIC
        LOCFRAME DOVERLAY, 0, STATIC
        ARGFRAME ISTACK, 0, STACK
        ARGFRAME PSTACK, 0, STACK
        ARGFRAME XSTACK, 33, STACK
        ARGFRAME IOVERLAY, 0, STATIC
        ARGFRAME DOVERLAY, 0, STATIC
        FUNCALL SampleApp_MessageMSGCB, HalUARTWrite
        LOCFRAME ISTACK, 0, STACK
        LOCFRAME PSTACK, 0, STACK
        LOCFRAME XSTACK, 33, STACK
        LOCFRAME IOVERLAY, 0, STATIC
        LOCFRAME DOVERLAY, 0, STATIC
        ARGFRAME ISTACK, 0, STACK
        ARGFRAME PSTACK, 0, STACK
        ARGFRAME XSTACK, 33, STACK
        ARGFRAME IOVERLAY, 0, STATIC
        ARGFRAME DOVERLAY, 0, STATIC
        FUNCALL SampleApp_MessageMSGCB, Show_Num
        LOCFRAME ISTACK, 0, STACK
        LOCFRAME PSTACK, 0, STACK
        LOCFRAME XSTACK, 33, STACK
        LOCFRAME IOVERLAY, 0, STATIC
        LOCFRAME DOVERLAY, 0, STATIC
        ARGFRAME ISTACK, 0, STACK
        ARGFRAME PSTACK, 0, STACK
        ARGFRAME XSTACK, 33, STACK
        ARGFRAME IOVERLAY, 0, STATIC
        ARGFRAME DOVERLAY, 0, STATIC
        FUNCALL SampleApp_MessageMSGCB, HalUARTWrite
        LOCFRAME ISTACK, 0, STACK
        LOCFRAME PSTACK, 0, STACK
        LOCFRAME XSTACK, 33, STACK
        LOCFRAME IOVERLAY, 0, STATIC
        LOCFRAME DOVERLAY, 0, STATIC
        ARGFRAME ISTACK, 0, STACK
        ARGFRAME PSTACK, 0, STACK
        ARGFRAME XSTACK, 33, STACK
        ARGFRAME IOVERLAY, 0, STATIC
        ARGFRAME DOVERLAY, 0, STATIC
        FUNCALL SampleApp_MessageMSGCB, HalUARTWrite
        LOCFRAME ISTACK, 0, STACK
        LOCFRAME PSTACK, 0, STACK
        LOCFRAME XSTACK, 33, STACK
        LOCFRAME IOVERLAY, 0, STATIC
        LOCFRAME DOVERLAY, 0, STATIC
        ARGFRAME ISTACK, 0, STACK
        ARGFRAME PSTACK, 0, STACK
        ARGFRAME XSTACK, 33, STACK
        ARGFRAME IOVERLAY, 0, STATIC
        ARGFRAME DOVERLAY, 0, STATIC
        FUNCALL SampleApp_MessageMSGCB, HalUARTWrite
        LOCFRAME ISTACK, 0, STACK
        LOCFRAME PSTACK, 0, STACK
        LOCFRAME XSTACK, 33, STACK
        LOCFRAME IOVERLAY, 0, STATIC
        LOCFRAME DOVERLAY, 0, STATIC
        ARGFRAME ISTACK, 0, STACK
        ARGFRAME PSTACK, 0, STACK
        ARGFRAME XSTACK, 33, STACK
        ARGFRAME IOVERLAY, 0, STATIC
        ARGFRAME DOVERLAY, 0, STATIC
        FUNCALL SampleApp_MessageMSGCB, Show_Num
        LOCFRAME ISTACK, 0, STACK
        LOCFRAME PSTACK, 0, STACK
        LOCFRAME XSTACK, 33, STACK
        LOCFRAME IOVERLAY, 0, STATIC
        LOCFRAME DOVERLAY, 0, STATIC
        ARGFRAME ISTACK, 0, STACK
        ARGFRAME PSTACK, 0, STACK
        ARGFRAME XSTACK, 33, STACK
        ARGFRAME IOVERLAY, 0, STATIC
        ARGFRAME DOVERLAY, 0, STATIC
        FUNCALL SampleApp_MessageMSGCB, HalUARTWrite
        LOCFRAME ISTACK, 0, STACK
        LOCFRAME PSTACK, 0, STACK
        LOCFRAME XSTACK, 33, STACK
        LOCFRAME IOVERLAY, 0, STATIC
        LOCFRAME DOVERLAY, 0, STATIC
        ARGFRAME ISTACK, 0, STACK
        ARGFRAME PSTACK, 0, STACK
        ARGFRAME XSTACK, 33, STACK
        ARGFRAME IOVERLAY, 0, STATIC
        ARGFRAME DOVERLAY, 0, STATIC
        FUNCALL SampleApp_MessageMSGCB, HalLedBlink
        LOCFRAME ISTACK, 0, STACK
        LOCFRAME PSTACK, 0, STACK
        LOCFRAME XSTACK, 33, STACK
        LOCFRAME IOVERLAY, 0, STATIC
        LOCFRAME DOVERLAY, 0, STATIC
        ARGFRAME ISTACK, 0, STACK
        ARGFRAME PSTACK, 0, STACK
        ARGFRAME XSTACK, 33, STACK
        ARGFRAME IOVERLAY, 0, STATIC
        ARGFRAME DOVERLAY, 0, STATIC
        FUNCALL SampleApp_MessageMSGCB, Reset_down_neighbor
        LOCFRAME ISTACK, 0, STACK
        LOCFRAME PSTACK, 0, STACK
        LOCFRAME XSTACK, 33, STACK
        LOCFRAME IOVERLAY, 0, STATIC
        LOCFRAME DOVERLAY, 0, STATIC
        ARGFRAME ISTACK, 0, STACK
        ARGFRAME PSTACK, 0, STACK
        ARGFRAME XSTACK, 33, STACK
        ARGFRAME IOVERLAY, 0, STATIC
        ARGFRAME DOVERLAY, 0, STATIC
        FUNCALL SampleApp_MessageMSGCB, HalUARTWrite
        LOCFRAME ISTACK, 0, STACK
        LOCFRAME PSTACK, 0, STACK
        LOCFRAME XSTACK, 33, STACK
        LOCFRAME IOVERLAY, 0, STATIC
        LOCFRAME DOVERLAY, 0, STATIC
        ARGFRAME ISTACK, 0, STACK
        ARGFRAME PSTACK, 0, STACK
        ARGFRAME XSTACK, 33, STACK
        ARGFRAME IOVERLAY, 0, STATIC
        ARGFRAME DOVERLAY, 0, STATIC
        FUNCALL SampleApp_MessageMSGCB, HalUARTWrite
        LOCFRAME ISTACK, 0, STACK
        LOCFRAME PSTACK, 0, STACK
        LOCFRAME XSTACK, 33, STACK
        LOCFRAME IOVERLAY, 0, STATIC
        LOCFRAME DOVERLAY, 0, STATIC
        ARGFRAME ISTACK, 0, STACK
        ARGFRAME PSTACK, 0, STACK
        ARGFRAME XSTACK, 33, STACK
        ARGFRAME IOVERLAY, 0, STATIC
        ARGFRAME DOVERLAY, 0, STATIC
        FUNCALL SampleApp_MessageMSGCB, HalUARTWrite
        LOCFRAME ISTACK, 0, STACK
        LOCFRAME PSTACK, 0, STACK
        LOCFRAME XSTACK, 33, STACK
        LOCFRAME IOVERLAY, 0, STATIC
        LOCFRAME DOVERLAY, 0, STATIC
        ARGFRAME ISTACK, 0, STACK
        ARGFRAME PSTACK, 0, STACK
        ARGFRAME XSTACK, 33, STACK
        ARGFRAME IOVERLAY, 0, STATIC
        ARGFRAME DOVERLAY, 0, STATIC
        FUNCALL SampleApp_MessageMSGCB, HalUARTWrite
        LOCFRAME ISTACK, 0, STACK
        LOCFRAME PSTACK, 0, STACK
        LOCFRAME XSTACK, 33, STACK
        LOCFRAME IOVERLAY, 0, STATIC
        LOCFRAME DOVERLAY, 0, STATIC
        ARGFRAME ISTACK, 0, STACK
        ARGFRAME PSTACK, 0, STACK
        ARGFRAME XSTACK, 33, STACK
        ARGFRAME IOVERLAY, 0, STATIC
        ARGFRAME DOVERLAY, 0, STATIC
        FUNCALL SampleApp_MessageMSGCB, HalUARTWrite
        LOCFRAME ISTACK, 0, STACK
        LOCFRAME PSTACK, 0, STACK
        LOCFRAME XSTACK, 33, STACK
        LOCFRAME IOVERLAY, 0, STATIC
        LOCFRAME DOVERLAY, 0, STATIC
        ARGFRAME ISTACK, 0, STACK
        ARGFRAME PSTACK, 0, STACK
        ARGFRAME XSTACK, 33, STACK
        ARGFRAME IOVERLAY, 0, STATIC
        ARGFRAME DOVERLAY, 0, STATIC
        FUNCALL SampleApp_MessageMSGCB, HalUARTWrite
        LOCFRAME ISTACK, 0, STACK
        LOCFRAME PSTACK, 0, STACK
        LOCFRAME XSTACK, 33, STACK
        LOCFRAME IOVERLAY, 0, STATIC
        LOCFRAME DOVERLAY, 0, STATIC
        ARGFRAME ISTACK, 0, STACK
        ARGFRAME PSTACK, 0, STACK
        ARGFRAME XSTACK, 33, STACK
        ARGFRAME IOVERLAY, 0, STATIC
        ARGFRAME DOVERLAY, 0, STATIC
        FUNCALL SampleApp_MessageMSGCB, HalUARTWrite
        LOCFRAME ISTACK, 0, STACK
        LOCFRAME PSTACK, 0, STACK
        LOCFRAME XSTACK, 33, STACK
        LOCFRAME IOVERLAY, 0, STATIC
        LOCFRAME DOVERLAY, 0, STATIC
        ARGFRAME ISTACK, 0, STACK
        ARGFRAME PSTACK, 0, STACK
        ARGFRAME XSTACK, 33, STACK
        ARGFRAME IOVERLAY, 0, STATIC
        ARGFRAME DOVERLAY, 0, STATIC
        FUNCALL SampleApp_MessageMSGCB, HalUARTWrite
        LOCFRAME ISTACK, 0, STACK
        LOCFRAME PSTACK, 0, STACK
        LOCFRAME XSTACK, 33, STACK
        LOCFRAME IOVERLAY, 0, STATIC
        LOCFRAME DOVERLAY, 0, STATIC
        ARGFRAME ISTACK, 0, STACK
        ARGFRAME PSTACK, 0, STACK
        ARGFRAME XSTACK, 33, STACK
        ARGFRAME IOVERLAY, 0, STATIC
        ARGFRAME DOVERLAY, 0, STATIC
        FUNCALL SampleApp_MessageMSGCB, HalUARTWrite
        LOCFRAME ISTACK, 0, STACK
        LOCFRAME PSTACK, 0, STACK
        LOCFRAME XSTACK, 33, STACK
        LOCFRAME IOVERLAY, 0, STATIC
        LOCFRAME DOVERLAY, 0, STATIC
        ARGFRAME ISTACK, 0, STACK
        ARGFRAME PSTACK, 0, STACK
        ARGFRAME XSTACK, 33, STACK
        ARGFRAME IOVERLAY, 0, STATIC
        ARGFRAME DOVERLAY, 0, STATIC
        FUNCALL SampleApp_MessageMSGCB, HalUARTWrite
        LOCFRAME ISTACK, 0, STACK
        LOCFRAME PSTACK, 0, STACK
        LOCFRAME XSTACK, 33, STACK
        LOCFRAME IOVERLAY, 0, STATIC
        LOCFRAME DOVERLAY, 0, STATIC
        ARGFRAME ISTACK, 0, STACK
        ARGFRAME PSTACK, 0, STACK
        ARGFRAME XSTACK, 33, STACK
        ARGFRAME IOVERLAY, 0, STATIC
        ARGFRAME DOVERLAY, 0, STATIC
        FUNCALL SampleApp_MessageMSGCB, HalUARTWrite
        LOCFRAME ISTACK, 0, STACK
        LOCFRAME PSTACK, 0, STACK
        LOCFRAME XSTACK, 33, STACK
        LOCFRAME IOVERLAY, 0, STATIC
        LOCFRAME DOVERLAY, 0, STATIC
        ARGFRAME ISTACK, 0, STACK
        ARGFRAME PSTACK, 0, STACK
        ARGFRAME XSTACK, 33, STACK
        ARGFRAME IOVERLAY, 0, STATIC
        ARGFRAME DOVERLAY, 0, STATIC
        FUNCALL SampleApp_MessageMSGCB, HalUARTWrite
        LOCFRAME ISTACK, 0, STACK
        LOCFRAME PSTACK, 0, STACK
        LOCFRAME XSTACK, 33, STACK
        LOCFRAME IOVERLAY, 0, STATIC
        LOCFRAME DOVERLAY, 0, STATIC
        ARGFRAME ISTACK, 0, STACK
        ARGFRAME PSTACK, 0, STACK
        ARGFRAME XSTACK, 33, STACK
        ARGFRAME IOVERLAY, 0, STATIC
        ARGFRAME DOVERLAY, 0, STATIC
        FUNCALL SampleApp_MessageMSGCB, HalUARTWrite
        LOCFRAME ISTACK, 0, STACK
        LOCFRAME PSTACK, 0, STACK
        LOCFRAME XSTACK, 33, STACK
        LOCFRAME IOVERLAY, 0, STATIC
        LOCFRAME DOVERLAY, 0, STATIC
        ARGFRAME ISTACK, 0, STACK
        ARGFRAME PSTACK, 0, STACK
        ARGFRAME XSTACK, 33, STACK
        ARGFRAME IOVERLAY, 0, STATIC
        ARGFRAME DOVERLAY, 0, STATIC
        FUNCALL SampleApp_MessageMSGCB, HalUARTWrite
        LOCFRAME ISTACK, 0, STACK
        LOCFRAME PSTACK, 0, STACK
        LOCFRAME XSTACK, 33, STACK
        LOCFRAME IOVERLAY, 0, STATIC
        LOCFRAME DOVERLAY, 0, STATIC
        ARGFRAME ISTACK, 0, STACK
        ARGFRAME PSTACK, 0, STACK
        ARGFRAME XSTACK, 33, STACK
        ARGFRAME IOVERLAY, 0, STATIC
        ARGFRAME DOVERLAY, 0, STATIC
        FUNCALL SampleApp_MessageMSGCB, HalUARTWrite
        LOCFRAME ISTACK, 0, STACK
        LOCFRAME PSTACK, 0, STACK
        LOCFRAME XSTACK, 33, STACK
        LOCFRAME IOVERLAY, 0, STATIC
        LOCFRAME DOVERLAY, 0, STATIC
        ARGFRAME ISTACK, 0, STACK
        ARGFRAME PSTACK, 0, STACK
        ARGFRAME XSTACK, 33, STACK
        ARGFRAME IOVERLAY, 0, STATIC
        ARGFRAME DOVERLAY, 0, STATIC
        FUNCALL SampleApp_MessageMSGCB, HalUARTWrite
        LOCFRAME ISTACK, 0, STACK
        LOCFRAME PSTACK, 0, STACK
        LOCFRAME XSTACK, 33, STACK
        LOCFRAME IOVERLAY, 0, STATIC
        LOCFRAME DOVERLAY, 0, STATIC
        ARGFRAME ISTACK, 0, STACK
        ARGFRAME PSTACK, 0, STACK
        ARGFRAME XSTACK, 33, STACK
        ARGFRAME IOVERLAY, 0, STATIC
        ARGFRAME DOVERLAY, 0, STATIC
        FUNCALL SampleApp_MessageMSGCB, HalUARTWrite
        LOCFRAME ISTACK, 0, STACK
        LOCFRAME PSTACK, 0, STACK
        LOCFRAME XSTACK, 33, STACK
        LOCFRAME IOVERLAY, 0, STATIC
        LOCFRAME DOVERLAY, 0, STATIC
        ARGFRAME ISTACK, 0, STACK
        ARGFRAME PSTACK, 0, STACK
        ARGFRAME XSTACK, 33, STACK
        ARGFRAME IOVERLAY, 0, STATIC
        ARGFRAME DOVERLAY, 0, STATIC
        FUNCALL SampleApp_MessageMSGCB, HalUARTWrite
        LOCFRAME ISTACK, 0, STACK
        LOCFRAME PSTACK, 0, STACK
        LOCFRAME XSTACK, 33, STACK
        LOCFRAME IOVERLAY, 0, STATIC
        LOCFRAME DOVERLAY, 0, STATIC
        ARGFRAME ISTACK, 0, STACK
        ARGFRAME PSTACK, 0, STACK
        ARGFRAME XSTACK, 33, STACK
        ARGFRAME IOVERLAY, 0, STATIC
        ARGFRAME DOVERLAY, 0, STATIC
        FUNCALL SampleApp_MessageMSGCB, HalUARTWrite
        LOCFRAME ISTACK, 0, STACK
        LOCFRAME PSTACK, 0, STACK
        LOCFRAME XSTACK, 33, STACK
        LOCFRAME IOVERLAY, 0, STATIC
        LOCFRAME DOVERLAY, 0, STATIC
        ARGFRAME ISTACK, 0, STACK
        ARGFRAME PSTACK, 0, STACK
        ARGFRAME XSTACK, 33, STACK
        ARGFRAME IOVERLAY, 0, STATIC
        ARGFRAME DOVERLAY, 0, STATIC
        MOV     A,#-0x14
        LCALL   ?BANKED_ENTER_XDATA
        CFI DPH0 load(1, XDATA, add(CFA_XSP16, literal(-1)))
        CFI DPL0 load(1, XDATA, add(CFA_XSP16, literal(-2)))
        CFI ?BRET_EXT load(1, XDATA, add(CFA_XSP16, literal(-3)))
        CFI ?RET_HIGH load(1, XDATA, add(CFA_XSP16, literal(-4)))
        CFI ?RET_LOW load(1, XDATA, add(CFA_XSP16, literal(-5)))
        CFI R7 load(1, XDATA, add(CFA_XSP16, literal(-6)))
        CFI V11 load(1, XDATA, add(CFA_XSP16, literal(-7)))
        CFI V10 load(1, XDATA, add(CFA_XSP16, literal(-8)))
        CFI V9 load(1, XDATA, add(CFA_XSP16, literal(-9)))
        CFI V8 load(1, XDATA, add(CFA_XSP16, literal(-10)))
        CFI V7 load(1, XDATA, add(CFA_XSP16, literal(-11)))
        CFI V6 load(1, XDATA, add(CFA_XSP16, literal(-12)))
        CFI V5 load(1, XDATA, add(CFA_XSP16, literal(-13)))
        CFI V4 load(1, XDATA, add(CFA_XSP16, literal(-14)))
        CFI V3 load(1, XDATA, add(CFA_XSP16, literal(-15)))
        CFI V2 load(1, XDATA, add(CFA_XSP16, literal(-16)))
        CFI V1 load(1, XDATA, add(CFA_XSP16, literal(-17)))
        CFI V0 load(1, XDATA, add(CFA_XSP16, literal(-18)))
        CFI VB load(1, XDATA, add(CFA_XSP16, literal(-19)))
        CFI R6 load(1, XDATA, add(CFA_XSP16, literal(-20)))
        CFI CFA_SP SP+0
        CFI CFA_XSP16 add(XSP16, 20)
        ; Saved register size: 20
        ; Auto size: 13
        MOV     A,#-0xd
        LCALL   ?ALLOC_XSTACK8
        CFI CFA_XSP16 add(XSP16, 33)
        MOV     A,R2
        MOV     R6,A
        MOV     A,R3
        MOV     R7,A
//  866   uint16 flashTime=1000;//一秒,1000ms
//  867   uint8 i,len; //透传
//  868   unsigned short neighbor_addr_10 = pkt->srcAddr.addr.shortAddr;  //发送方的数字地址
        MOV     DPL,R6
        MOV     DPH,R7
        INC     DPTR
        INC     DPTR
        INC     DPTR
        INC     DPTR
        INC     DPTR
        INC     DPTR
        MOVX    A,@DPTR
        MOV     ?V0 + 2,A
        INC     DPTR
        MOVX    A,@DPTR
        MOV     ?V0 + 3,A
//  869 //  unsigned char ADDR[4]; //数字地址转换后的字符地址
//  870   int8 LOST_nei = 0;
        MOV     ?V0 + 0,#0x0
//  871   uchar active;
//  872   
//  873   uchar BUSY[4] = "####";
        MOV     A,#0x9
        LCALL   ?XSTACK_DISP0_8
        MOV     R4,DPL
        MOV     R5,DPH
        MOV     DPH,#(`?<Constant "####">` >> 8) & 0xff
        MOV     DPL,#`?<Constant "####">` & 0xff
        MOV     A,#0x4
        LCALL   ?MOVE_LONG8_XDATA_XDATA
//  874   uint8 Peer_data; //对方数据
//  875   int16 Peer_info; //对方码字信息
//  876   uint8 Self_data; //己方数据
//  877   int16 Self_info; //己方码字信息
//  878   int8 degree_low; //码字信息低位
//  879   int8 degree_high;//码字信息高位
//  880   uint16 Source_info = Power_of_2(Device_ID);
        ; Setup parameters for call to function Power_of_2
        LCALL   ?Subroutine34 & 0xFFFF
??CrossCallReturnLabel_59:
        MOV     ?V0 + 6,R2
        MOV     ?V0 + 7,R3
//  881   switch ( pkt->clusterId )
        MOV     DPL,R6
        MOV     DPH,R7
        INC     DPTR
        INC     DPTR
        INC     DPTR
        INC     DPTR
        MOVX    A,@DPTR
        MOV     ?V0 + 4,A
        INC     DPTR
        MOVX    A,@DPTR
        MOV     ?V0 + 5,A
        MOV     R0,#?V0 + 4
        LCALL   ?US_SWITCH_DENSE
`?<Jumptable for SampleApp_MessageMSGCB>_0`:
        DATA
        DATA16
        DATA
        DATA16
        DW        2
        DATA
        DATA8
        DATA
        DATA8
        DB        2
        DATA
        DATA16
        DATA
        DATA16
        DW        ??SampleApp_MessageMSGCB_0
        DATA
        DATA16
        DATA
        DATA16
        DW        ??SampleApp_MessageMSGCB_1
        DATA
        DATA16
        DATA
        DATA16
        DW        ??SampleApp_MessageMSGCB_2
        DATA
        DATA16
        DATA
        DATA16
        DW        ??SampleApp_MessageMSGCB_3
        CODE
//  882   {
//  883     
//  884     /*************************收到 点对点 消息********************************/
//  885   case SAMPLEAPP_POINT_TO_POINT_CLUSTERID:
//  886     
//  887     /*收到重置信号*/
//  888     if(pkt->cmd.Data[0] == '!')
??SampleApp_MessageMSGCB_3:
        LCALL   ?Subroutine9 & 0xFFFF
??CrossCallReturnLabel_15:
        XRL     A,#0x21
        JNZ     ??SampleApp_MessageMSGCB_4
//  889     {
//  890       HalUARTWrite(0,"重置中...",strlen("重置中..."));
        ; Setup parameters for call to function HalUARTWrite
        MOV     R4,#0x9
        MOV     R5,#0x0
        MOV     R2,#`?<Constant "\\326\\330\\326\\303\\326\\320...">` & 0xff
        MOV     R3,#(`?<Constant "\\326\\330\\326\\303\\326\\320...">` >> 8) & 0xff
        MOV     R1,#0x0
        LCALL   ??HalUARTWrite?relay
//  891       SystemResetSoft();
        ; Setup parameters for call to function Onboard_soft_reset
        LCALL   Onboard_soft_reset & 0xFFFF
        LJMP    ??SampleApp_MessageMSGCB_0 & 0xFFFF
//  892     }
//  893     
//  894     /*收到指定为代理节点消息*/
//  895     else if ((pkt->cmd.Data[0] == '@') && (pkt->cmd.Data[1] == '@') && (pkt->cmd.Data[2] == '@') && (pkt->cmd.Data[3] == '@'))
??SampleApp_MessageMSGCB_4:
        LCALL   ?Subroutine10 & 0xFFFF
??CrossCallReturnLabel_19:
        XRL     A,#0x40
        JZ      $+5
        LJMP    ??SampleApp_MessageMSGCB_5 & 0xFFFF
        LCALL   ?Subroutine5 & 0xFFFF
??CrossCallReturnLabel_8:
        XRL     A,#0x40
        JZ      $+5
        LJMP    ??SampleApp_MessageMSGCB_5 & 0xFFFF
        LCALL   ?Subroutine4 & 0xFFFF
??CrossCallReturnLabel_5:
        XRL     A,#0x40
        JNZ     ??SampleApp_MessageMSGCB_5
        LCALL   ?Subroutine3 & 0xFFFF
??CrossCallReturnLabel_2:
        XRL     A,#0x40
        JNZ     ??SampleApp_MessageMSGCB_5
//  896     {
//  897       Is_AgentNode = TRUE; //设置为是代理节点
        MOV     DPTR,#Is_AgentNode
        MOV     A,#0x1
        MOVX    @DPTR,A
        INC     DPTR
        CLR     A
        MOVX    @DPTR,A
//  898       
//  899       /*回复Sink节点已经设置自身为代理节点*/
//  900       uint8 set_Agent_succeed[] = {'%', '%', '%', '%'};  //发送给sink节点的数据,用 '+' 标识
        MOV     A,#0x5
        LCALL   ?XSTACK_DISP0_8
        MOV     R4,DPL
        MOV     R5,DPH
        MOV     DPH,#(`?<Constant {37, 37, 37, 37}>` >> 8) & 0xff
        MOV     DPL,#`?<Constant {37, 37, 37, 37}>` & 0xff
        MOV     A,#0x4
        LCALL   ?MOVE_LONG8_XDATA_XDATA
//  901       
//  902       /*给Sink节点发送数据*/
//  903       Point_To_Point_DstAddr.addr.shortAddr = (int16)0;
        MOV     DPTR,#Point_To_Point_DstAddr
        LCALL   ?Subroutine25 & 0xFFFF
//  904       if ( AF_DataRequest( &Point_To_Point_DstAddr, //点对点通信方式目标地址
//  905                           &SampleApp_epDesc,
//  906                           SAMPLEAPP_POINT_TO_POINT_CLUSTERID, //点对点簇ID
//  907                           4,
//  908                           set_Agent_succeed,
//  909                           &SampleApp_TransID,
//  910                           AF_DISCV_ROUTE,
//  911                           AF_DEFAULT_RADIUS ) == afStatus_SUCCESS )
??CrossCallReturnLabel_139:
        LCALL   ?PUSH_XSTACK_I_ONE
        CFI CFA_XSP16 add(XSP16, 34)
        MOV     ?V0 + 0,#SampleApp_TransID & 0xff
        MOV     ?V0 + 1,#(SampleApp_TransID >> 8) & 0xff
        MOV     R0,#?V0 + 0
        LCALL   ?PUSH_XSTACK_I_TWO
        CFI CFA_XSP16 add(XSP16, 36)
        MOV     A,#0x8
        LCALL   ?XSTACK_DISP0_8
        MOV     ?V0 + 0,DPL
        MOV     ?V0 + 1,DPH
        MOV     R0,#?V0 + 0
        LCALL   ?PUSH_XSTACK_I_TWO
        CFI CFA_XSP16 add(XSP16, 38)
        MOV     ?V0 + 0,#0x4
        MOV     ?V0 + 1,#0x0
        MOV     R0,#?V0 + 0
        LCALL   ?PUSH_XSTACK_I_TWO
        CFI CFA_XSP16 add(XSP16, 40)
        MOV     R0,#?V0 + 0
        LCALL   ?PUSH_XSTACK_I_TWO
        CFI CFA_XSP16 add(XSP16, 42)
        LCALL   ?Subroutine36 & 0xFFFF
??CrossCallReturnLabel_107:
        LCALL   ?DEALLOC_XSTACK8
        CFI CFA_XSP16 add(XSP16, 33)
        MOV     A,R1
        JNZ     ??SampleApp_MessageMSGCB_6
//  912       {
//  913         HalLedBlink( HAL_LED_3, 4, 60, (flashTime / 4) ); //led3闪
        ; Setup parameters for call to function HalLedBlink
        MOV     R4,#-0x6
        MOV     R5,#0x0
        MOV     R3,#0x3c
        MOV     R2,#0x4
??SampleApp_MessageMSGCB_7:
        MOV     R1,#0x4
??SampleApp_MessageMSGCB_8:
        LCALL   ??HalLedBlink?relay
        LJMP    ??SampleApp_MessageMSGCB_0 & 0xFFFF
//  914       }
//  915       else
//  916       {
//  917         HalUARTWrite(0,"向Sink节点发送码字失败\n",strlen("向Sink节点发送码字失败\n"));
??SampleApp_MessageMSGCB_6:
        ; Setup parameters for call to function HalUARTWrite
        MOV     R4,#0x17
        MOV     R5,#0x0
        MOV     R2,#`?<Constant "\\317\\362Sink\\275\\332\\265\\343\\267\\2` & 0xff
        MOV     R3,#(`?<Constant "\\317\\362Sink\\275\\332\\265\\343\\267\\2` >> 8) & 0xff
        LJMP    ??SampleApp_MessageMSGCB_9 & 0xFFFF
//  918       }
//  919     }
//  920     /*收到交换码字信息*/
//  921     else if((pkt->cmd.Data[0] == '~') && (pkt->cmd.Data[1] == '~') && (pkt->cmd.Data[2] == '~') && (pkt->cmd.Data[3] == '~'))
??SampleApp_MessageMSGCB_5:
        LCALL   ?Subroutine10 & 0xFFFF
??CrossCallReturnLabel_20:
        XRL     A,#0x7e
        JZ      $+5
        LJMP    ??SampleApp_MessageMSGCB_10 & 0xFFFF
        LCALL   ?Subroutine5 & 0xFFFF
??CrossCallReturnLabel_9:
        XRL     A,#0x7e
        JZ      $+5
        LJMP    ??SampleApp_MessageMSGCB_10 & 0xFFFF
        LCALL   ?Subroutine4 & 0xFFFF
??CrossCallReturnLabel_6:
        XRL     A,#0x7e
        JZ      $+5
        LJMP    ??SampleApp_MessageMSGCB_10 & 0xFFFF
        LCALL   ?Subroutine3 & 0xFFFF
??CrossCallReturnLabel_3:
        XRL     A,#0x7e
        JZ      $+5
        LJMP    ??SampleApp_MessageMSGCB_10 & 0xFFFF
//  922     {
//  923       if(Is_AgentNode)
        MOV     DPTR,#Is_AgentNode
        LCALL   ?Subroutine50 & 0xFFFF
??CrossCallReturnLabel_134:
        MOV     A,R0
        ORL     A,R1
        JNZ     $+5
        LJMP    ??SampleApp_MessageMSGCB_0 & 0xFFFF
//  924           {
//  925             srand((int)osal_getClock()); //生成随机数种子
        ; Setup parameters for call to function srand
        ; Setup parameters for call to function osal_getClock
        LCALL   ?Subroutine38 & 0xFFFF
//  926             uint8 send_to_sink_index =  random(5)+1; //随机产生一个发送给sink节点的码字的序列号
??CrossCallReturnLabel_104:
        LCALL   ?S_DIV_MOD
        MOV     A,R2
        INC     A
        MOV     ?V0 + 0,A
//  927             uint8 to_sink_data = DATA_SLOT[send_to_sink_index].data; //即将发送给Sink节点的码字
        MOV     ?V0 + 1,#0x0
        MOV     A,#0x2
        MOV     R0,#?V0 + 0
        LCALL   ?S_SHL
        LCALL   ?Subroutine23 & 0xFFFF
??CrossCallReturnLabel_41:
        MOV     R6,A
        INC     DPTR
        INC     DPTR
        MOVX    A,@DPTR
        MOV     R2,A
        INC     DPTR
        MOVX    A,@DPTR
        MOV     R0,A
//  928             uint8 to_sink_degree_high = DATA_SLOT[send_to_sink_index].Degree_ID >>8; //高位码字度信息
//  929             uint8 to_sink_degree_low = (uint8)DATA_SLOT[send_to_sink_index].Degree_ID;  //低位码字度信息
        MOV     A,R2
        MOV     R1,A
//  930             uint8 to_sink_DATA[] = {'+', to_sink_data, to_sink_degree_high, to_sink_degree_low};  //发送给sink节点的数据,用 '+' 标识
        MOV     A,#0x1
        LCALL   ?XSTACK_DISP0_8
        MOV     R4,DPL
        MOV     R5,DPH
        MOV     DPH,#(`?<Constant {43, 0, 0, 0}>` >> 8) & 0xff
        MOV     DPL,#`?<Constant {43, 0, 0, 0}>` & 0xff
        MOV     A,#0x4
        LCALL   ?MOVE_LONG8_XDATA_XDATA
        MOV     A,#0x2
        LCALL   ?XSTACK_DISP0_8
        MOV     A,R6
        MOVX    @DPTR,A
        MOV     A,#0x3
        LCALL   ?XSTACK_DISP0_8
        MOV     A,R0
        MOVX    @DPTR,A
        MOV     A,#0x4
        LCALL   ?XSTACK_DISP0_8
        MOV     A,R1
        MOVX    @DPTR,A
//  931             
//  932             /*给Sink节点发送数据*/
//  933             Point_To_Point_DstAddr.addr.shortAddr = (int16)0;
        MOV     DPTR,#Point_To_Point_DstAddr
        CLR     A
        LCALL   ?Subroutine25 & 0xFFFF
//  934             if ( AF_DataRequest( &Point_To_Point_DstAddr, //点对点通信方式目标地址
//  935                                 &SampleApp_epDesc,
//  936                                 SAMPLEAPP_POINT_TO_POINT_CLUSTERID, //点对点簇ID
//  937                                 4,
//  938                                 to_sink_DATA,
//  939                                 &SampleApp_TransID,
//  940                                 AF_DISCV_ROUTE,
//  941                                 AF_DEFAULT_RADIUS ) == afStatus_SUCCESS )
??CrossCallReturnLabel_140:
        LCALL   ?PUSH_XSTACK_I_ONE
        CFI CFA_XSP16 add(XSP16, 34)
        MOV     ?V0 + 0,#SampleApp_TransID & 0xff
        MOV     ?V0 + 1,#(SampleApp_TransID >> 8) & 0xff
        MOV     R0,#?V0 + 0
        LCALL   ?PUSH_XSTACK_I_TWO
        CFI CFA_XSP16 add(XSP16, 36)
        MOV     A,#0x4
        LCALL   ?XSTACK_DISP0_8
        MOV     ?V0 + 0,DPL
        MOV     ?V0 + 1,DPH
        MOV     R0,#?V0 + 0
        LCALL   ?PUSH_XSTACK_I_TWO
        CFI CFA_XSP16 add(XSP16, 38)
        MOV     ?V0 + 0,#0x4
        MOV     ?V0 + 1,#0x0
        MOV     R0,#?V0 + 0
        LCALL   ?PUSH_XSTACK_I_TWO
        CFI CFA_XSP16 add(XSP16, 40)
        MOV     R0,#?V0 + 0
        LCALL   ?PUSH_XSTACK_I_TWO
        CFI CFA_XSP16 add(XSP16, 42)
        LCALL   ?Subroutine36 & 0xFFFF
??CrossCallReturnLabel_108:
        LCALL   ?DEALLOC_XSTACK8
        CFI CFA_XSP16 add(XSP16, 33)
        MOV     A,R1
        JZ      $+5
        LJMP    ??SampleApp_MessageMSGCB_6 & 0xFFFF
//  942             {
//  943               HalLedBlink( HAL_LED_3, 2, 60, (flashTime / 2) ); //led3闪
        ; Setup parameters for call to function HalLedBlink
        MOV     R4,#-0xc
        MOV     R5,#0x1
        MOV     R3,#0x3c
        MOV     R2,#0x2
        LJMP    ??SampleApp_MessageMSGCB_7 & 0xFFFF
//  944             }
//  945             else
//  946             {
//  947               HalUARTWrite(0,"向Sink节点发送码字失败\n",strlen("向Sink节点发送码字失败\n"));
//  948             }
//  949           }
//  950     }
//  951     else
//  952     {
//  953       HalUARTWrite(0, "received  ", 10);  //给串口发送提示
??SampleApp_MessageMSGCB_10:
        ; Setup parameters for call to function HalUARTWrite
        MOV     R4,#0xa
        MOV     R5,#0x0
        MOV     R2,#`?<Constant "received  ">` & 0xff
        MOV     R3,#(`?<Constant "received  ">` >> 8) & 0xff
        LCALL   ?Subroutine21 & 0xFFFF
//  954       HalUARTWrite(0, &pkt->cmd.Data[0], 1); // 打印收到数据
??CrossCallReturnLabel_37:
        MOV     ?V0 + 1,A
        ; Setup parameters for call to function HalUARTWrite
        MOV     R4,#0x1
        MOV     R5,#0x0
        MOV     DPL,?V0 + 0
        MOV     DPH,A
        LCALL   ??Subroutine67_0 & 0xFFFF
??CrossCallReturnLabel_120:
        LCALL   ?Subroutine16 & 0xFFFF
//  955       
//  956       Show_Bit(pkt->cmd.Data[1],8);
??CrossCallReturnLabel_31:
        LCALL   ?Subroutine30 & 0xFFFF
//  957       HalUARTWrite(0," ",1);
??CrossCallReturnLabel_53:
        LCALL   ?Subroutine16 & 0xFFFF
//  958       //    Show_Bit(pkt->cmd.Data[2],8);    //打印高8位码字编码信息
//  959       //    HalUARTWrite(0," ",1);
//  960       Show_Bit(pkt->cmd.Data[3],8);
??CrossCallReturnLabel_32:
        INC     DPTR
        INC     DPTR
        MOVX    A,@DPTR
        MOV     R2,A
        MOV     R3,#0x0
        LCALL   ?Subroutine39 & 0xFFFF
//  961       //    sprintf((char*)ADDR, "%X", neighbor_addr_10);
//  962       //    HalUARTWrite(0," from ",6);
//  963       //    HalUARTWrite(0,ADDR,4);
//  964       HalUARTWrite(0, "\n", 1); // 回车换行
//  965       
//  966       /*如果在自身已经发起交换请求的情况下,收到对方发来的交换数据包响应*/
//  967       if(Waiting_Request && (neighbor_addr_10 == Exchanging_Neighbor)) 
??CrossCallReturnLabel_65:
        MOV     DPTR,#Waiting_Request
        MOVX    A,@DPTR
        JNZ     $+5
        LJMP    ??SampleApp_MessageMSGCB_0 & 0xFFFF
        MOV     DPTR,#Exchanging_Neighbor
        MOVX    A,@DPTR
        XRL     A,?V0 + 2
        JNZ     ??SampleApp_MessageMSGCB_11
        INC     DPTR
        MOVX    A,@DPTR
        XRL     A,?V0 + 3
??SampleApp_MessageMSGCB_11:
        JZ      $+5
        LJMP    ??SampleApp_MessageMSGCB_0 & 0xFFFF
//  968       {
//  969         /*对方正忙*/
//  970         if(pkt->cmd.Data[0] == '#' && pkt->cmd.Data[1] == '#' && pkt->cmd.Data[2] == '#' && pkt->cmd.Data[3] == '#')
        LCALL   ?Subroutine9 & 0xFFFF
??CrossCallReturnLabel_16:
        XRL     A,#0x23
        JNZ     ??CrossCallReturnLabel_35
        LCALL   ?Subroutine5 & 0xFFFF
??CrossCallReturnLabel_10:
        XRL     A,#0x23
        JNZ     ??CrossCallReturnLabel_35
        LCALL   ?Subroutine4 & 0xFFFF
??CrossCallReturnLabel_7:
        XRL     A,#0x23
        JNZ     ??CrossCallReturnLabel_35
        LCALL   ?Subroutine3 & 0xFFFF
??CrossCallReturnLabel_4:
        XRL     A,#0x23
        JNZ     ??CrossCallReturnLabel_35
//  971         {
//  972           Waiting_Request = FALSE;
        MOV     DPTR,#Waiting_Request
        CLR     A
        MOVX    @DPTR,A
//  973           HalUARTWrite(0,"peer is busy",12);
        ; Setup parameters for call to function HalUARTWrite
        MOV     R4,#0xc
        MOV     R5,A
        MOV     R2,#`?<Constant "peer is busy">` & 0xff
        MOV     R3,#(`?<Constant "peer is busy">` >> 8) & 0xff
        MOV     R1,A
        LCALL   ?Subroutine18 & 0xFFFF
//  974           HalUARTWrite(0,"\n",1);
//  975           //        SampleApp_SendPointToPointMessage(); //再次发起交换请求
//  976         }
//  977         /*对方正常响应*/
//  978         if(!Exchange_Lock && (pkt->cmd.Data[0] == '$'))
??CrossCallReturnLabel_35:
        MOV     DPTR,#Exchange_Lock
        MOVX    A,@DPTR
        JZ      $+5
        LJMP    ??SampleApp_MessageMSGCB_12 & 0xFFFF
        LCALL   ?Subroutine9 & 0xFFFF
??CrossCallReturnLabel_17:
        XRL     A,#0x24
        JZ      $+5
        LJMP    ??SampleApp_MessageMSGCB_12 & 0xFFFF
//  979         {
//  980           Exchange_Lock = TRUE; //开启码字槽的锁
        MOV     DPTR,#Exchange_Lock
        MOV     A,#0x1
        MOVX    @DPTR,A
//  981           
//  982           Peer_data = pkt->cmd.Data[1]; //对方发来的数据
        MOV     DPL,?V0 + 0
        MOV     DPH,?V0 + 1
        LCALL   ?Subroutine27 & 0xFFFF
//  983           Peer_info = pkt->cmd.Data[3]; 
//  984           Peer_info |= pkt->cmd.Data[2]*256; //对方码字信息
//  985           //查看发来的数据包的度
//  986           uint8 Peer_degree = 0;
//  987           uint8 Self_included = FALSE;
//  988           for(short k=0;k<16;++k)
//  989           {
//  990             if(Power_of_2(k) & Peer_info)
??CrossCallReturnLabel_48:
        ; Setup parameters for call to function Power_of_2
        LCALL   ?Subroutine37 & 0xFFFF
??CrossCallReturnLabel_62:
        JZ      ??SampleApp_MessageMSGCB_13
//  991             {
//  992               ++Peer_degree;
        INC     ?V0 + 4
//  993               if(k == Device_ID)
        MOV     DPTR,#Device_ID
        MOVX    A,@DPTR
        XRL     A,?V0 + 0
        JNZ     ??SampleApp_MessageMSGCB_14
        MOV     A,?V0 + 1
??SampleApp_MessageMSGCB_14:
        JNZ     ??SampleApp_MessageMSGCB_13
//  994               {
//  995                 Self_included = TRUE; //码字包含自身的节点数据包
        MOV     ?V0 + 2,#0x1
//  996                 HalUARTWrite(0,"包含自身信息",12);
        ; Setup parameters for call to function HalUARTWrite
        MOV     R4,#0xc
        MOV     R5,#0x0
        MOV     R2,#`?<Constant "\\260\\374\\272\\254\\327\\324\\311\\355\\3` & 0xff
        MOV     R3,#(`?<Constant "\\260\\374\\272\\254\\327\\324\\311\\355\\3` >> 8) & 0xff
        MOV     R1,#0x0
        LCALL   ??HalUARTWrite?relay
//  997               }
//  998               
//  999             }
// 1000           }
??SampleApp_MessageMSGCB_13:
        LCALL   ?Subroutine6 & 0xFFFF
??CrossCallReturnLabel_11:
        JC      ??CrossCallReturnLabel_48
// 1001           if(Peer_degree>=MAX_Degree)
        LCALL   ?Subroutine28 & 0xFFFF
??CrossCallReturnLabel_132:
        JC      ??SampleApp_MessageMSGCB_15
// 1002           {
// 1003             if(Self_included)
        MOV     A,?V0 + 2
        MOV     C,0xE0 /* A   */.0
        JNC     ??SampleApp_MessageMSGCB_16
// 1004               HalUARTWrite(0,"且",2);
        ; Setup parameters for call to function HalUARTWrite
        MOV     R4,#0x2
        MOV     R5,#0x0
        MOV     R2,#`?<Constant "\\307\\322">` & 0xff
        MOV     R3,#(`?<Constant "\\307\\322">` >> 8) & 0xff
        MOV     R1,#0x0
        LCALL   ??HalUARTWrite?relay
// 1005             HalUARTWrite(0,"已达最大度,",11);
??SampleApp_MessageMSGCB_16:
        ; Setup parameters for call to function HalUARTWrite
        MOV     R4,#0xb
        MOV     R5,#0x0
        MOV     R2,#`?<Constant "\\322\\321\\264\\357\\327\\356\\264\\363\\2` & 0xff
        MOV     R3,#(`?<Constant "\\322\\321\\264\\357\\327\\356\\264\\363\\2` >> 8) & 0xff
        SJMP    ??SampleApp_MessageMSGCB_17
// 1006           }
// 1007           else
// 1008           {
// 1009             HalUARTWrite(0,",",1);
??SampleApp_MessageMSGCB_15:
        ; Setup parameters for call to function HalUARTWrite
        MOV     R4,#0x1
        MOV     R5,#0x0
        MOV     R2,#`?<Constant ",">` & 0xff
        MOV     R3,#(`?<Constant ",">` >> 8) & 0xff
??SampleApp_MessageMSGCB_17:
        MOV     R1,#0x0
        LCALL   ??HalUARTWrite?relay
// 1010           }
// 1011           //判断是否符合编码条件,不包含自身的数据包,且度不大于最大允许的度
// 1012           if( !Self_included && (Peer_degree < MAX_Degree) )
        MOV     A,?V0 + 2
        MOV     C,0xE0 /* A   */.0
        JC      ??SampleApp_MessageMSGCB_18
        LCALL   ??Subroutine69_0 & 0xFFFF
??CrossCallReturnLabel_130:
        JNC     ??SampleApp_MessageMSGCB_18
// 1013           {
// 1014             HalUARTWrite(0,"encoding...\n^^",14);
        ; Setup parameters for call to function HalUARTWrite
        LCALL   ?Subroutine13 & 0xFFFF
// 1015             //          Show_Bit(Peer_data,8);          //对方数据
// 1016             //          HalUARTWrite(0,"\n^^",3);
// 1017             //          Show_Bit(DATA_SLOT[0].data,8);  //自身数据
// 1018             //          
// 1019             //          HalUARTWrite(0,"\n->",3);
// 1020             //          Peer_data ^= DATA_SLOT[0].data; //异或编码
// 1021             //          
// 1022             //          Show_Bit(Peer_data, 8);         //编码后数据
// 1023             
// 1024             HalUARTWrite(0,"\n||",3);
// 1025             Show_Bit(Peer_info,8);
// 1026             HalUARTWrite(0," ",1);
// 1027             Show_Num(Peer_info);          //对方码字信息
// 1028             
// 1029             HalUARTWrite(0,"\n||",3);
// 1030             Show_Bit(Source_info,8);  //**
// 1031             HalUARTWrite(0," ",1);
// 1032             Show_Num(Source_info);         //自身码字信息
// 1033             
// 1034             HalUARTWrite(0,"\n->",3);      
// 1035             Peer_info |= Source_info; //码字信息中添加自身的设备ID
// 1036             Show_Bit(Peer_info,8);   //**
// 1037             HalUARTWrite(0," ",1);
// 1038             Show_Num(Peer_info);          //融合后码字信息
// 1039             HalUARTWrite(0,"\n",1);
// 1040           }
??CrossCallReturnLabel_25:
        SJMP    ??SampleApp_MessageMSGCB_19
// 1041           else
// 1042           {
// 1043             HalUARTWrite(0,"未编码.\n",8);
??SampleApp_MessageMSGCB_18:
        ; Setup parameters for call to function HalUARTWrite
        MOV     R4,#0x8
        MOV     R5,#0x0
        MOV     R2,#`?<Constant "\\316\\264\\261\\340\\302\\353.\\n">` & 0xff
        MOV     R3,#(`?<Constant "\\316\\264\\261\\340\\302\\353.\\n">` >> 8) & 0xff
// 1044             
// 1045           }
??SampleApp_MessageMSGCB_19:
        LCALL   ?Subroutine14 & 0xFFFF
// 1046           
// 1047           HalUARTWrite(0,"peer_degree = ",14);
// 1048           Show_Num(Peer_degree);
// 1049           HalUARTWrite(0,"\n\n",2);     
// 1050           DATA_SLOT[Exchange_index].data = Peer_data; //对应位置替换为对方的码字
??CrossCallReturnLabel_27:
        LCALL   ?S_SHL
        LCALL   ?Subroutine22 & 0xFFFF
// 1051           DATA_SLOT[Exchange_index].Degree_ID = Peer_info; //记录码字信息
// 1052           
// 1053           Waiting_Request = FALSE; //关闭等待回复状态
??CrossCallReturnLabel_39:
        MOV     DPTR,#Waiting_Request
        CLR     A
        MOVX    @DPTR,A
// 1054           Exchange_Lock = FALSE; //关闭码字槽的锁
        MOV     DPTR,#Exchange_Lock
        LJMP    ??SampleApp_MessageMSGCB_20 & 0xFFFF
// 1055           
// 1056           /*如果是代理节点就向Sink节点发送一个码字的数据*/
// 1057           
// 1058           
// 1059           
// 1060           
// 1061           
// 1062           
// 1063         }
// 1064         
// 1065         /*在等待对方返回交换数据包的过程中收到其他节点的交换请求*/
// 1066         else if(Waiting_Request && (neighbor_addr_10 != Exchanging_Neighbor) && (pkt->cmd.Data[0] == '*')) 
??SampleApp_MessageMSGCB_12:
        MOV     DPTR,#Waiting_Request
        MOVX    A,@DPTR
        JZ      ??SampleApp_MessageMSGCB_21
        MOV     DPTR,#Exchanging_Neighbor
        MOVX    A,@DPTR
        XRL     A,?V0 + 2
        JNZ     ??SampleApp_MessageMSGCB_22
        INC     DPTR
        MOVX    A,@DPTR
        XRL     A,?V0 + 3
??SampleApp_MessageMSGCB_22:
        JNZ     $+5
        LJMP    ??SampleApp_MessageMSGCB_23 & 0xFFFF
        LCALL   ?Subroutine8 & 0xFFFF
??CrossCallReturnLabel_13:
        JZ      $+5
        LJMP    ??SampleApp_MessageMSGCB_23 & 0xFFFF
// 1067         {
// 1068           /*返回正忙信号 "####" */ 
// 1069           Point_To_Point_DstAddr.addr.shortAddr = neighbor_addr_10;
        MOV     DPTR,#Point_To_Point_DstAddr
        MOV     A,?V0 + 2
        MOVX    @DPTR,A
        INC     DPTR
        MOV     A,?V0 + 3
        LCALL   ??Subroutine70_0 & 0xFFFF
// 1070           if(AF_DataRequest( &Point_To_Point_DstAddr, //点对点通信方式目标地址
// 1071                             &SampleApp_epDesc,
// 1072                             SAMPLEAPP_POINT_TO_POINT_CLUSTERID, //点对点簇ID
// 1073                             4,
// 1074                             BUSY,
// 1075                             &SampleApp_TransID,
// 1076                             AF_DISCV_ROUTE,
// 1077                             AF_DEFAULT_RADIUS )== afStatus_SUCCESS )
??CrossCallReturnLabel_142:
        LCALL   ?PUSH_XSTACK_I_ONE
        CFI CFA_XSP16 add(XSP16, 34)
        MOV     ?V0 + 0,#SampleApp_TransID & 0xff
        MOV     ?V0 + 1,#(SampleApp_TransID >> 8) & 0xff
        MOV     R0,#?V0 + 0
        LCALL   ?PUSH_XSTACK_I_TWO
        CFI CFA_XSP16 add(XSP16, 36)
        MOV     A,#0xc
        LCALL   ?XSTACK_DISP0_8
        MOV     ?V0 + 0,DPL
        MOV     ?V0 + 1,DPH
        MOV     R0,#?V0 + 0
        LCALL   ?PUSH_XSTACK_I_TWO
        CFI CFA_XSP16 add(XSP16, 38)
        MOV     ?V0 + 0,#0x4
        MOV     ?V0 + 1,#0x0
        MOV     R0,#?V0 + 0
        LCALL   ?PUSH_XSTACK_I_TWO
        CFI CFA_XSP16 add(XSP16, 40)
        MOV     R0,#?V0 + 0
        LCALL   ?PUSH_XSTACK_I_TWO
        CFI CFA_XSP16 add(XSP16, 42)
        LCALL   ?Subroutine36 & 0xFFFF
??CrossCallReturnLabel_109:
        LCALL   ?DEALLOC_XSTACK8
        CFI CFA_XSP16 add(XSP16, 33)
        MOV     A,R1
        JZ      $+5
        LJMP    ??SampleApp_MessageMSGCB_23 & 0xFFFF
// 1078           {
// 1079             HalUARTWrite(0,"i am busy!\n",strlen("i am busy!\n"));
        ; Setup parameters for call to function HalUARTWrite
        MOV     R4,#0xb
        MOV     R5,#0x0
        MOV     R2,#`?<Constant "i am busy!\\n">` & 0xff
        MOV     R3,#(`?<Constant "i am busy!\\n">` >> 8) & 0xff
        MOV     R1,#0x0
        LCALL   ??HalUARTWrite?relay
        LJMP    ??SampleApp_MessageMSGCB_23 & 0xFFFF
// 1080           }
// 1081           else
// 1082           {
// 1083           }
// 1084           
// 1085           
// 1086         }
??SampleApp_MessageMSGCB_21:
        MOV     DPTR,#Exchange_Lock
        MOVX    A,@DPTR
        JZ      $+5
        LJMP    ??SampleApp_MessageMSGCB_23 & 0xFFFF
        LCALL   ?Subroutine8 & 0xFFFF
??CrossCallReturnLabel_14:
        JZ      $+5
        LJMP    ??SampleApp_MessageMSGCB_23 & 0xFFFF
// 1087         
// 1088         /*如果收到对方发来的交换数据包请求*/
// 1089         else if(!Waiting_Request && !Exchange_Lock && (pkt->cmd.Data[0] == '*'))
// 1090         {
// 1091           Exchange_Lock = TRUE; //开启码字槽的锁
        MOV     DPTR,#Exchange_Lock
        MOV     A,#0x1
        MOVX    @DPTR,A
// 1092           /*挑选自身随机的数据包发送给对方*/
// 1093           srand((int)osal_getClock());
        ; Setup parameters for call to function srand
        ; Setup parameters for call to function osal_getClock
        LCALL   ?Subroutine38 & 0xFFFF
// 1094           Exchange_index = random(5)+1;//挑选随机交换码字
??CrossCallReturnLabel_105:
        LCALL   ?S_DIV_MOD
        MOV     A,R2
        INC     A
        MOV     DPTR,#Exchange_index
        MOVX    @DPTR,A
// 1095           Self_data = DATA_SLOT[Exchange_index].data; //即将交换的码字
        MOV     ?V0 + 0,A
        MOV     ?V0 + 1,#0x0
        MOV     A,#0x2
        MOV     R0,#?V0 + 0
        LCALL   ?S_SHL
        LCALL   ?Subroutine23 & 0xFFFF
??CrossCallReturnLabel_42:
        MOV     ?V0 + 0,A
// 1096           Self_info = DATA_SLOT[Exchange_index].Degree_ID; //码字信息
        INC     DPTR
        INC     DPTR
        MOVX    A,@DPTR
        MOV     ?V0 + 4,A
        INC     DPTR
        MOVX    A,@DPTR
        MOV     ?V0 + 5,A
// 1097           degree_low = (uint8)Self_info;
        MOV     A,?V0 + 4
        MOV     ?V0 + 1,A
// 1098           degree_high = (uint8)(Self_info>>8);  //此处不加括号会出错
// 1099           
// 1100           //发送
// 1101           uint8 _DATA[4] = {'$', Self_data, degree_high, degree_low};
        MOV     A,#0x1
        LCALL   ?XSTACK_DISP0_8
        MOV     R4,DPL
        MOV     R5,DPH
        MOV     DPH,#(`?<Constant {36, 0, 0, 0}>` >> 8) & 0xff
        MOV     DPL,#`?<Constant {36, 0, 0, 0}>` & 0xff
        MOV     A,#0x4
        LCALL   ?MOVE_LONG8_XDATA_XDATA
        MOV     A,#0x2
        LCALL   ?XSTACK_DISP0_8
        MOV     A,?V0 + 0
        MOVX    @DPTR,A
        MOV     A,#0x8
        MOV     R0,#?V0 + 4
        LCALL   ?SS_SHR
        MOV     A,#0x3
        LCALL   ?XSTACK_DISP0_8
        MOV     A,?V0 + 4
        MOVX    @DPTR,A
        MOV     A,#0x4
        LCALL   ?XSTACK_DISP0_8
        MOV     A,?V0 + 1
        MOVX    @DPTR,A
// 1102           Point_To_Point_DstAddr.addr.shortAddr = neighbor_addr_10;
        MOV     DPTR,#Point_To_Point_DstAddr
        MOV     A,?V0 + 2
        MOVX    @DPTR,A
        INC     DPTR
        MOV     A,?V0 + 3
        MOVX    @DPTR,A
// 1103           if(AF_DataRequest( &Point_To_Point_DstAddr, //点对点通信方式目标地址
// 1104                             &SampleApp_epDesc,
// 1105                             SAMPLEAPP_POINT_TO_POINT_CLUSTERID, //点对点簇ID
// 1106                             4,
// 1107                             _DATA,
// 1108                             &SampleApp_TransID,
// 1109                             AF_DISCV_ROUTE,
// 1110                             AF_DEFAULT_RADIUS )== afStatus_SUCCESS )
        ; Setup parameters for call to function AF_DataRequest
        MOV     ?V0 + 2,#0x1e
        MOV     R0,#?V0 + 2
        LCALL   ?PUSH_XSTACK_I_ONE
        CFI CFA_XSP16 add(XSP16, 34)
        MOV     ?V0 + 2,#SampleApp_TransID & 0xff
        MOV     ?V0 + 3,#(SampleApp_TransID >> 8) & 0xff
        MOV     R0,#?V0 + 2
        LCALL   ?PUSH_XSTACK_I_TWO
        CFI CFA_XSP16 add(XSP16, 36)
        MOV     A,#0x4
        LCALL   ?XSTACK_DISP0_8
        MOV     ?V0 + 2,DPL
        MOV     ?V0 + 3,DPH
        MOV     R0,#?V0 + 2
        LCALL   ?PUSH_XSTACK_I_TWO
        CFI CFA_XSP16 add(XSP16, 38)
        MOV     ?V0 + 2,#0x4
        MOV     ?V0 + 3,#0x0
        MOV     R0,#?V0 + 2
        LCALL   ?PUSH_XSTACK_I_TWO
        CFI CFA_XSP16 add(XSP16, 40)
        MOV     R0,#?V0 + 2
        LCALL   ?PUSH_XSTACK_I_TWO
        CFI CFA_XSP16 add(XSP16, 42)
        LCALL   ?Subroutine36 & 0xFFFF
??CrossCallReturnLabel_110:
        LCALL   ?DEALLOC_XSTACK8
        CFI CFA_XSP16 add(XSP16, 33)
        MOV     A,R1
        JNZ     ??SampleApp_MessageMSGCB_24
// 1111           {
// 1112             HalUARTWrite(0,"send back $",11);
        ; Setup parameters for call to function HalUARTWrite
        MOV     R4,#0xb
        MOV     R5,#0x0
        MOV     R2,#`?<Constant "send back $">` & 0xff
        MOV     R3,#(`?<Constant "send back $">` >> 8) & 0xff
        LCALL   ??Subroutine71_0 & 0xFFFF
// 1113             Show_Bit(Self_data,8);
// 1114             HalUARTWrite(0," ",1);
// 1115             //        Show_Bit(degree_high,8);
// 1116             //        HalUARTWrite(0," ",1);
// 1117             Show_Bit(degree_low,8);
// 1118             HalUARTWrite(0,"\n",1);
// 1119           }
??CrossCallReturnLabel_146:
        MOV     ?V0 + 2,?V0 + 0
        MOV     R2,?V0 + 2
        LCALL   ?Subroutine20 & 0xFFFF
??CrossCallReturnLabel_143:
        MOV     A,?V0 + 1
        MOV     R2,A
        RLC     A
        SUBB    A,0xE0 /* A   */
        MOV     R3,A
        LCALL   ?Subroutine56 & 0xFFFF
??CrossCallReturnLabel_85:
        SJMP    ??SampleApp_MessageMSGCB_25
// 1120           else
// 1121           {
// 1122             HalUARTWrite(0,"failed to send back\n",20);
??SampleApp_MessageMSGCB_24:
        ; Setup parameters for call to function HalUARTWrite
        MOV     R4,#0x14
        MOV     R5,#0x0
        MOV     R2,#`?<Constant "failed to send back\\n">` & 0xff
        MOV     R3,#(`?<Constant "failed to send back\\n">` >> 8) & 0xff
// 1123           }
??SampleApp_MessageMSGCB_25:
        LCALL   ?Subroutine21 & 0xFFFF
// 1124           
// 1125           /*将对方发来的数据包和自身随机挑选的数据包编码 <先判断是否需要编码> */
// 1126           Peer_data = pkt->cmd.Data[1]; //对方发来的数据
??CrossCallReturnLabel_38:
        MOV     DPL,?V0 + 0
        MOV     DPH,A
        LCALL   ?Subroutine27 & 0xFFFF
// 1127           Peer_info = pkt->cmd.Data[3];
// 1128           Peer_info |= pkt->cmd.Data[2]*256; //对方码字信息
// 1129           //查看发来的数据包的度
// 1130           uint8 Peer_degree = 0;
// 1131           uint8 Self_included = FALSE;
// 1132           for(short k=0;k<16;++k)
// 1133           {
// 1134             if(Power_of_2(k) & Peer_info)
??CrossCallReturnLabel_49:
        ; Setup parameters for call to function Power_of_2
        LCALL   ?Subroutine37 & 0xFFFF
??CrossCallReturnLabel_63:
        JZ      ??SampleApp_MessageMSGCB_26
// 1135             {
// 1136               ++Peer_degree;
        INC     ?V0 + 4
// 1137               if(k == Device_ID)
        MOV     DPTR,#Device_ID
        MOVX    A,@DPTR
        XRL     A,?V0 + 0
        JNZ     ??SampleApp_MessageMSGCB_27
        MOV     A,?V0 + 1
??SampleApp_MessageMSGCB_27:
        JNZ     ??SampleApp_MessageMSGCB_26
// 1138               {
// 1139                 Self_included = TRUE; //码字包含自身的节点数据包
        MOV     ?V0 + 2,#0x1
// 1140                 HalUARTWrite(0,"包含自身信息",12);
        ; Setup parameters for call to function HalUARTWrite
        MOV     R4,#0xc
        MOV     R5,#0x0
        MOV     R2,#`?<Constant "\\260\\374\\272\\254\\327\\324\\311\\355\\3` & 0xff
        MOV     R3,#(`?<Constant "\\260\\374\\272\\254\\327\\324\\311\\355\\3` >> 8) & 0xff
        MOV     R1,#0x0
        LCALL   ??HalUARTWrite?relay
// 1141               }
// 1142               
// 1143             }
// 1144           }
??SampleApp_MessageMSGCB_26:
        LCALL   ?Subroutine6 & 0xFFFF
??CrossCallReturnLabel_12:
        JC      ??CrossCallReturnLabel_49
// 1145           if(Peer_degree>=MAX_Degree)
        LCALL   ?Subroutine28 & 0xFFFF
??CrossCallReturnLabel_133:
        JC      ??SampleApp_MessageMSGCB_28
// 1146           {
// 1147             if(Self_included)
        MOV     A,?V0 + 2
        MOV     C,0xE0 /* A   */.0
        JNC     ??SampleApp_MessageMSGCB_29
// 1148               HalUARTWrite(0,"且",2);
        ; Setup parameters for call to function HalUARTWrite
        MOV     R4,#0x2
        MOV     R5,#0x0
        MOV     R2,#`?<Constant "\\307\\322">` & 0xff
        MOV     R3,#(`?<Constant "\\307\\322">` >> 8) & 0xff
        MOV     R1,#0x0
        LCALL   ??HalUARTWrite?relay
// 1149             HalUARTWrite(0,"已达最大度,",11);
??SampleApp_MessageMSGCB_29:
        ; Setup parameters for call to function HalUARTWrite
        MOV     R4,#0xb
        MOV     R5,#0x0
        MOV     R2,#`?<Constant "\\322\\321\\264\\357\\327\\356\\264\\363\\2` & 0xff
        MOV     R3,#(`?<Constant "\\322\\321\\264\\357\\327\\356\\264\\363\\2` >> 8) & 0xff
        SJMP    ??SampleApp_MessageMSGCB_30
// 1150           }
// 1151           else
// 1152           {
// 1153             HalUARTWrite(0,",",1);
??SampleApp_MessageMSGCB_28:
        ; Setup parameters for call to function HalUARTWrite
        MOV     R4,#0x1
        MOV     R5,#0x0
        MOV     R2,#`?<Constant ",">` & 0xff
        MOV     R3,#(`?<Constant ",">` >> 8) & 0xff
??SampleApp_MessageMSGCB_30:
        MOV     R1,#0x0
        LCALL   ??HalUARTWrite?relay
// 1154           }
// 1155           //判断是否符合编码条件,不包含自身的数据包,且度不大于最大允许的度
// 1156           if( !Self_included && (Peer_degree < MAX_Degree) )
        MOV     A,?V0 + 2
        MOV     C,0xE0 /* A   */.0
        JC      ??SampleApp_MessageMSGCB_31
        LCALL   ??Subroutine69_0 & 0xFFFF
??CrossCallReturnLabel_131:
        JNC     ??SampleApp_MessageMSGCB_31
// 1157           {
// 1158             HalUARTWrite(0,"encoding...\n^^",14);
        ; Setup parameters for call to function HalUARTWrite
        LCALL   ?Subroutine13 & 0xFFFF
// 1159             //          Show_Bit(Peer_data,8);          //对方数据
// 1160             //          HalUARTWrite(0,"\n^^",3);
// 1161             //          Show_Bit(DATA_SLOT[0].data,8);  //自身数据
// 1162             //          
// 1163             //          HalUARTWrite(0,"\n->",3);
// 1164             //          Peer_data ^= DATA_SLOT[0].data; //异或编码
// 1165             //          
// 1166             //          Show_Bit(Peer_data, 8);         //编码后数据
// 1167             
// 1168             HalUARTWrite(0,"\n||",3);
// 1169             Show_Bit(Peer_info,8);
// 1170             HalUARTWrite(0," ",1);
// 1171             Show_Num(Peer_info);          //对方码字信息
// 1172             
// 1173             HalUARTWrite(0,"\n||",3);
// 1174             Show_Bit(Source_info,8);  //**
// 1175             HalUARTWrite(0," ",1);
// 1176             Show_Num(Source_info);         //自身码字信息
// 1177             
// 1178             HalUARTWrite(0,"\n->",3);      
// 1179             Peer_info |= Source_info; //码字信息中添加自身的设备ID
// 1180             Show_Bit(Peer_info,8);   //**
// 1181             HalUARTWrite(0," ",1);
// 1182             Show_Num(Peer_info);          //融合后码字信息
// 1183             HalUARTWrite(0,"\n",1);
// 1184           }
??CrossCallReturnLabel_26:
        SJMP    ??SampleApp_MessageMSGCB_32
// 1185           else
// 1186           {
// 1187             HalUARTWrite(0,"未编码.\n",8);
??SampleApp_MessageMSGCB_31:
        ; Setup parameters for call to function HalUARTWrite
        MOV     R4,#0x8
        MOV     R5,#0x0
        MOV     R2,#`?<Constant "\\316\\264\\261\\340\\302\\353.\\n">` & 0xff
        MOV     R3,#(`?<Constant "\\316\\264\\261\\340\\302\\353.\\n">` >> 8) & 0xff
// 1188             
// 1189           }
??SampleApp_MessageMSGCB_32:
        LCALL   ?Subroutine14 & 0xFFFF
// 1190           
// 1191           HalUARTWrite(0,"peer_degree = ",14);
// 1192           Show_Num(Peer_degree);
// 1193           HalUARTWrite(0,"\n\n",2);
// 1194           DATA_SLOT[Exchange_index].data = Peer_data; //对应位置替换为对方的码字
??CrossCallReturnLabel_28:
        LCALL   ?S_SHL
        LCALL   ?Subroutine22 & 0xFFFF
// 1195           DATA_SLOT[Exchange_index].Degree_ID = Peer_info; //记录码字信息
// 1196           
// 1197           Exchange_Lock = FALSE; //关闭码字槽的锁
??CrossCallReturnLabel_40:
        MOV     DPTR,#Exchange_Lock
        CLR     A
??SampleApp_MessageMSGCB_20:
        MOVX    @DPTR,A
// 1198         }
// 1199         
// 1200         
// 1201         
// 1202         HalLedBlink( HAL_LED_2, 2, 60, (flashTime / 6) ); //二号灯闪烁,两次,亮度60%,时间间隔0.125s
??SampleApp_MessageMSGCB_23:
        ; Setup parameters for call to function HalLedBlink
        MOV     R4,#-0x5a
        MOV     R5,#0x0
        MOV     R3,#0x3c
        MOV     R2,#0x2
        MOV     R1,#0x2
        LJMP    ??SampleApp_MessageMSGCB_8 & 0xFFFF
// 1203       }
// 1204     }
// 1205     break;
// 1206     
// 1207     
// 1208     
// 1209     /******************************************************************************************************
// 1210     收到组播消息 (路由更新)
// 1211     *******************************************************************************************************/
// 1212   case SAMPLEAPP_FLASH_CLUSTERID:
// 1213     
// 1214     for(int i=0;i<NEI_NUM;++i)
??SampleApp_MessageMSGCB_1:
        MOV     ?V0 + 6,#0x0
        MOV     ?V0 + 7,#0x0
        LJMP    ??SampleApp_MessageMSGCB_33 & 0xFFFF
// 1215     {
// 1216       if(ACTIVE[i]-- <= 0)
??SampleApp_MessageMSGCB_34:
        MOV     A,?V0 + 6
        CLR     C
        RLC     A
        MOV     R6,A
        MOV     A,?V0 + 7
        RLC     A
        MOV     R7,A
        MOV     A,#ACTIVE & 0xff
        ADD     A,R6
        MOV     R0,A
        MOV     A,#(ACTIVE >> 8) & 0xff
        ADDC    A,R7
        LCALL   ?Subroutine32 & 0xFFFF
??CrossCallReturnLabel_122:
        MOV     A,R2
        ADD     A,#-0x1
        MOV     R4,A
        MOV     A,R3
        ADDC    A,#-0x1
        MOV     R5,A
        MOV     DPL,R0
        MOV     DPH,R1
        MOV     A,R4
        MOVX    @DPTR,A
        INC     DPTR
        MOV     A,R5
        MOVX    @DPTR,A
        MOV     A,R2
        ORL     A,R3
        JNZ     ??SampleApp_MessageMSGCB_35
// 1217       {
// 1218         Reset_down_neighbor(Nei_Table[i]); //给掉线邻居发送设备重置信号
        MOV     A,#Nei_Table & 0xff
        ADD     A,R6
        MOV     ?V0 + 4,A
        MOV     A,#(Nei_Table >> 8) & 0xff
        ADDC    A,R7
        MOV     ?V0 + 5,A
        ; Setup parameters for call to function Reset_down_neighbor
        MOV     DPL,?V0 + 4
        MOV     DPH,A
        LCALL   ??Subroutine67_0 & 0xFFFF
??CrossCallReturnLabel_121:
        LCALL   ??Reset_down_neighbor?relay
// 1219         Nei_Table[i] = Nei_Table[NEI_NUM-1];
        LCALL   ?Subroutine52 & 0xFFFF
??CrossCallReturnLabel_78:
        MOV     A,R0
        CLR     C
        RLC     A
        MOV     R0,A
        MOV     A,R1
        RLC     A
        MOV     R1,A
        MOV     A,#(Nei_Table + 254) & 0xff
        ADD     A,R0
        MOV     R2,A
        MOV     A,#((Nei_Table - 2) >> 8) & 0xff
        ADDC    A,R1
        MOV     R3,A
        MOV     DPL,R2
        MOV     DPH,R3
        MOVX    A,@DPTR
        MOV     R4,A
        INC     DPTR
        MOVX    A,@DPTR
        MOV     R5,A
        MOV     DPL,?V0 + 4
        MOV     DPH,?V0 + 5
        MOV     A,R4
        MOVX    @DPTR,A
        INC     DPTR
        MOV     A,R5
        MOVX    @DPTR,A
// 1220         Nei_Table[NEI_NUM-1] = (int16)65534;
        MOV     DPL,R2
        MOV     DPH,R3
        MOV     A,#-0x2
        MOVX    @DPTR,A
        INC     DPTR
        INC     A
        MOVX    @DPTR,A
// 1221         ACTIVE[i] = ACTIVE[NEI_NUM-1];
        MOV     A,#(ACTIVE + 254) & 0xff
        ADD     A,R0
        MOV     R0,A
        MOV     A,#((ACTIVE - 2) >> 8) & 0xff
        ADDC    A,R1
        LCALL   ?Subroutine32 & 0xFFFF
??CrossCallReturnLabel_123:
        MOV     A,#ACTIVE & 0xff
        ADD     A,R6
        MOV     DPL,A
        MOV     A,#(ACTIVE >> 8) & 0xff
        ADDC    A,R7
        MOV     DPH,A
        MOV     A,R2
        MOVX    @DPTR,A
        INC     DPTR
        MOV     A,R3
        MOVX    @DPTR,A
// 1222         ACTIVE[NEI_NUM-1] = LIFE_TIME;
        LCALL   ?Subroutine33 & 0xFFFF
??CrossCallReturnLabel_117:
        MOV     DPL,R0
        MOV     DPH,R1
        MOV     A,R2
        MOVX    @DPTR,A
        INC     DPTR
        MOV     A,R3
        MOVX    @DPTR,A
// 1223         LOST_nei++;
        INC     ?V0 + 0
// 1224       }
// 1225     }
??SampleApp_MessageMSGCB_35:
        MOV     A,?V0 + 6
        ADD     A,#0x1
        MOV     ?V0 + 6,A
        MOV     A,?V0 + 7
        ADDC    A,#0x0
        MOV     ?V0 + 7,A
??SampleApp_MessageMSGCB_33:
        LCALL   ?Subroutine52 & 0xFFFF
??CrossCallReturnLabel_79:
        CLR     C
        MOV     A,?V0 + 6
        SUBB    A,R0
        MOV     A,?V0 + 7
        SUBB    A,R1
        MOV     C,0xD0 /* PSW */.2
        XRL     A,PSW
        RLC     A
        JNC     $+5
        LJMP    ??SampleApp_MessageMSGCB_34 & 0xFFFF
// 1226     
// 1227     NEI_NUM -= LOST_nei;  //邻居个数减少
        MOV     R0,?V0 + 0
        MOVX    A,@DPTR
        CLR     C
        SUBB    A,R0
        MOVX    @DPTR,A
// 1228     
// 1229     
// 1230     
// 1231     for(int i=0;i<3;++i)
        MOV     R0,#0x0
        MOV     R1,#0x0
// 1232     {
// 1233       //邻居表中有该路由
// 1234       if(Nei_Table[i]==neighbor_addr_10)
??SampleApp_MessageMSGCB_36:
        LCALL   ?Subroutine41 & 0xFFFF
??CrossCallReturnLabel_68:
        XRL     A,?V0 + 2
        JNZ     ??SampleApp_MessageMSGCB_37
        INC     DPTR
        MOVX    A,@DPTR
        XRL     A,?V0 + 3
??SampleApp_MessageMSGCB_37:
        JNZ     ??SampleApp_MessageMSGCB_38
// 1235       {
// 1236         ACTIVE[i] = LIFE_TIME; //收到该邻居信息,更新存活时间
        LCALL   ?Subroutine33 & 0xFFFF
??CrossCallReturnLabel_118:
        MOV     A,R0
        CLR     C
        RLC     A
        MOV     R0,A
        MOV     A,R1
        RLC     A
        MOV     R1,A
        LCALL   ?Subroutine12 & 0xFFFF
??CrossCallReturnLabel_24:
        MOV     A,R2
        MOVX    @DPTR,A
        INC     DPTR
        MOV     A,R3
        MOVX    @DPTR,A
// 1237         break;
        SJMP    ??SampleApp_MessageMSGCB_39
// 1238       }
// 1239       
// 1240       //其他合法路由
// 1241       else if((Nei_Table[i]!=(int16)65534) && (Nei_Table[i]!=neighbor_addr_10))
??SampleApp_MessageMSGCB_38:
        LCALL   ?Subroutine41 & 0xFFFF
??CrossCallReturnLabel_69:
        XRL     A,#0xfe
        JNZ     ??SampleApp_MessageMSGCB_40
        INC     DPTR
        MOVX    A,@DPTR
        CPL     A
??SampleApp_MessageMSGCB_40:
        JZ      ??SampleApp_MessageMSGCB_41
        MOV     A,R0
        ADD     A,#0x1
        INC     R0
        MOV     A,R1
        ADDC    A,#0x0
        MOV     R1,A
        CLR     C
        MOV     A,R0
        SUBB    A,#0x3
        MOV     A,R1
        LCALL   ??Subroutine72_0 & 0xFFFF
??CrossCallReturnLabel_149:
        JNC     ??SampleApp_MessageMSGCB_39
        SJMP    ??SampleApp_MessageMSGCB_36
// 1242         continue;
// 1243       
// 1244       //添加路由
// 1245       else
// 1246       {
// 1247         Nei_Table[i]=neighbor_addr_10;
??SampleApp_MessageMSGCB_41:
        MOV     A,R0
        CLR     C
        RLC     A
        MOV     R0,A
        MOV     A,R1
        LCALL   ?Subroutine45 & 0xFFFF
??CrossCallReturnLabel_102:
        MOV     A,?V0 + 2
        MOVX    @DPTR,A
        INC     DPTR
        MOV     A,?V0 + 3
        MOVX    @DPTR,A
// 1248         NEI_NUM++;
        MOV     DPTR,#NEI_NUM
        MOVX    A,@DPTR
        INC     A
        MOVX    @DPTR,A
// 1249         
// 1250         //输出邻居的活跃点数
// 1251         HalUARTWrite(0,"\n------------\n",14);
        ; Setup parameters for call to function HalUARTWrite
        LCALL   ?Subroutine17 & 0xFFFF
// 1252         HalUARTWrite(0,"active: ",strlen("active: "));
// 1253         for (int j=0;j<NEI_NUM;++j)
??CrossCallReturnLabel_33:
        SJMP    ??CrossCallReturnLabel_0
// 1254         {
// 1255           active = '0' + ACTIVE[j];
??SampleApp_MessageMSGCB_42:
        LCALL   ?Subroutine2 & 0xFFFF
// 1256           HalUARTWrite(0,&active,1);
// 1257           HalUARTWrite(0," ",1);
// 1258         }
??CrossCallReturnLabel_0:
        LCALL   ?Subroutine29 & 0xFFFF
??CrossCallReturnLabel_50:
        JC      ??SampleApp_MessageMSGCB_42
// 1259         //输出邻居个数
// 1260         HalUARTWrite(0,"\n有",3);
        ; Setup parameters for call to function HalUARTWrite
        LCALL   ?Subroutine15 & 0xFFFF
// 1261         active = '0' + NEI_NUM;
// 1262         HalUARTWrite(0,&active,1);
// 1263         HalUARTWrite(0,"个邻居",6);
// 1264         
// 1265         HalUARTWrite(0,"\n------------\n",14);
??CrossCallReturnLabel_29:
        MOV     R1,#0x0
        LCALL   ??HalUARTWrite?relay
// 1266         
// 1267         break;
// 1268       }
// 1269     }
// 1270     
// 1271     if(LOST_nei != 0)
??SampleApp_MessageMSGCB_39:
        MOV     A,?V0 + 0
        JZ      ??SampleApp_MessageMSGCB_0
// 1272     {
// 1273       //输出邻居的活跃点数
// 1274       HalUARTWrite(0,"\n------------\n",14);
        ; Setup parameters for call to function HalUARTWrite
        LCALL   ?Subroutine17 & 0xFFFF
// 1275       HalUARTWrite(0,"active: ",strlen("active: "));
// 1276       for (int j=0;j<NEI_NUM;++j)
??CrossCallReturnLabel_34:
        SJMP    ??CrossCallReturnLabel_1
// 1277       {
// 1278         active = '0' + ACTIVE[j];
??SampleApp_MessageMSGCB_43:
        LCALL   ?Subroutine2 & 0xFFFF
// 1279         HalUARTWrite(0,&active,1);
// 1280         HalUARTWrite(0," ",1);
// 1281       }
??CrossCallReturnLabel_1:
        LCALL   ?Subroutine29 & 0xFFFF
??CrossCallReturnLabel_51:
        JC      ??SampleApp_MessageMSGCB_43
// 1282       //输出邻居个数
// 1283       HalUARTWrite(0,"\n有",3);
        ; Setup parameters for call to function HalUARTWrite
        LCALL   ?Subroutine15 & 0xFFFF
// 1284       active = '0' + NEI_NUM;
// 1285       HalUARTWrite(0,&active,1);
// 1286       HalUARTWrite(0,"个邻居",6);
// 1287       
// 1288       HalUARTWrite(0,"\n------------\n",14);
// 1289     }
??CrossCallReturnLabel_30:
        SJMP    ??SampleApp_MessageMSGCB_9
// 1290     
// 1291     
// 1292     //HalLedBlink( HAL_LED_2, 2, 50, (flashTime / 5) ); //二号灯闪烁,两次,亮度50%,时间间隔0.2s
// 1293     break;
// 1294     
// 1295     
// 1296     
// 1297     /*******************************************
// 1298     收到 周期性 消息
// 1299     ********************************************/
// 1300   case SAMPLEAPP_PERIODIC_CLUSTERID:
// 1301     
// 1302     //NLME_UpdateLinkStatus(); //更新链路信息
// 1303     //HalLedBlink( HAL_LED_2, 2, 60, (flashTime / 6) ); //三号灯闪烁,三次,亮度50%,时间间隔0.25s
// 1304     break;
// 1305     /*收到 对方串口透传 消息*/
// 1306   case SAMPLEAPP_COM_CLUSTERID:
// 1307     HalUARTWrite(0,"对方说: ",strlen("对方说: "));
??SampleApp_MessageMSGCB_2:
        ; Setup parameters for call to function HalUARTWrite
        MOV     R4,#0x8
        MOV     R5,#0x0
        MOV     R2,#`?<Constant "\\266\\324\\267\\275\\313\\265: ">` & 0xff
        MOV     R3,#(`?<Constant "\\266\\324\\267\\275\\313\\265: ">` >> 8) & 0xff
        MOV     R1,#0x0
        LCALL   ??HalUARTWrite?relay
// 1308     len=pkt->cmd.Data[0];
        LCALL   ?Subroutine9 & 0xFFFF
??CrossCallReturnLabel_18:
        MOV     ?V0 + 1,A
// 1309     for(i=0;i<len;i++)
        SJMP    ??SampleApp_MessageMSGCB_44
// 1310       HalUARTWrite(0,&pkt->cmd.Data[i+1],1);//发给 PC 机
??SampleApp_MessageMSGCB_45:
        ; Setup parameters for call to function HalUARTWrite
        MOV     R0,?V0 + 0
        LCALL   ?Subroutine57 & 0xFFFF
??CrossCallReturnLabel_87:
        MOVX    A,@DPTR
        ADD     A,R0
        MOV     R2,A
        INC     DPTR
        MOVX    A,@DPTR
        ADDC    A,#0x0
        MOV     DPL,R2
        MOV     DPH,A
        INC     DPTR
        MOV     R2,DPL
        MOV     R3,DPH
        MOV     R1,#0x0
        LCALL   ??HalUARTWrite?relay
        INC     ?V0 + 0
??SampleApp_MessageMSGCB_44:
        MOV     A,?V0 + 0
        CLR     C
        SUBB    A,?V0 + 1
        MOV     R4,#0x1
        MOV     R5,#0x0
        JC      ??SampleApp_MessageMSGCB_45
// 1311     HalUARTWrite(0,"\n",1); // 回车换行
        ; Setup parameters for call to function HalUARTWrite
        MOV     R2,#`?<Constant "\\n">` & 0xff
        MOV     R3,#(`?<Constant "\\n">` >> 8) & 0xff
??SampleApp_MessageMSGCB_9:
        MOV     R1,#0x0
        LCALL   ??HalUARTWrite?relay
// 1312     break;
// 1313     
// 1314   }
// 1315 }
??SampleApp_MessageMSGCB_0:
        MOV     A,#0xd
        LCALL   ?DEALLOC_XSTACK8
        CFI CFA_XSP16 add(XSP16, 20)
        MOV     R7,#0xc
        LJMP    ?BANKED_LEAVE_XDATA
        CFI EndBlock cfiBlock50

        RSEG BANKED_CODE:CODE:NOROOT(0)
?Subroutine45:
        CFI Block cfiCond51 Using cfiCommon0
        CFI NoFunction
        CFI Conditional ??CrossCallReturnLabel_103, ??CrossCallReturnLabel_100
        CFI R6 load(1, XDATA, add(CFA_XSP16, literal(-11)))
        CFI VB load(1, XDATA, add(CFA_XSP16, literal(-10)))
        CFI V0 load(1, XDATA, add(CFA_XSP16, literal(-9)))
        CFI V1 load(1, XDATA, add(CFA_XSP16, literal(-8)))
        CFI V2 load(1, XDATA, add(CFA_XSP16, literal(-7)))
        CFI R7 load(1, XDATA, add(CFA_XSP16, literal(-6)))
        CFI ?RET_LOW load(1, XDATA, add(CFA_XSP16, literal(-5)))
        CFI ?RET_HIGH load(1, XDATA, add(CFA_XSP16, literal(-4)))
        CFI ?BRET_EXT load(1, XDATA, add(CFA_XSP16, literal(-3)))
        CFI DPL0 load(1, XDATA, add(CFA_XSP16, literal(-2)))
        CFI DPH0 load(1, XDATA, add(CFA_XSP16, literal(-1)))
        CFI CFA_SP SP+0
        CFI CFA_XSP16 add(XSP16, 11)
        CFI Block cfiCond52 Using cfiCommon0
        CFI (cfiCond52) NoFunction
        CFI (cfiCond52) Conditional ??CrossCallReturnLabel_103, ??CrossCallReturnLabel_101
        CFI (cfiCond52) R6 load(1, XDATA, add(CFA_XSP16, literal(-12)))
        CFI (cfiCond52) VB load(1, XDATA, add(CFA_XSP16, literal(-11)))
        CFI (cfiCond52) V0 load(1, XDATA, add(CFA_XSP16, literal(-10)))
        CFI (cfiCond52) V1 load(1, XDATA, add(CFA_XSP16, literal(-9)))
        CFI (cfiCond52) V2 load(1, XDATA, add(CFA_XSP16, literal(-8)))
        CFI (cfiCond52) V3 load(1, XDATA, add(CFA_XSP16, literal(-7)))
        CFI (cfiCond52) R7 load(1, XDATA, add(CFA_XSP16, literal(-6)))
        CFI (cfiCond52) ?RET_LOW load(1, XDATA, add(CFA_XSP16, literal(-5)))
        CFI (cfiCond52) ?RET_HIGH load(1, XDATA, add(CFA_XSP16, literal(-4)))
        CFI (cfiCond52) ?BRET_EXT load(1, XDATA, add(CFA_XSP16, literal(-3)))
        CFI (cfiCond52) DPL0 load(1, XDATA, add(CFA_XSP16, literal(-2)))
        CFI (cfiCond52) DPH0 load(1, XDATA, add(CFA_XSP16, literal(-1)))
        CFI (cfiCond52) CFA_SP SP+0
        CFI (cfiCond52) CFA_XSP16 add(XSP16, 17)
        CFI Block cfiCond53 Using cfiCommon0
        CFI (cfiCond53) NoFunction
        CFI (cfiCond53) Conditional ??CrossCallReturnLabel_103, ??CrossCallReturnLabel_99
        CFI (cfiCond53) R6 load(1, XDATA, add(CFA_XSP16, literal(-10)))
        CFI (cfiCond53) VB load(1, XDATA, add(CFA_XSP16, literal(-9)))
        CFI (cfiCond53) V0 load(1, XDATA, add(CFA_XSP16, literal(-8)))
        CFI (cfiCond53) V1 load(1, XDATA, add(CFA_XSP16, literal(-7)))
        CFI (cfiCond53) R7 load(1, XDATA, add(CFA_XSP16, literal(-6)))
        CFI (cfiCond53) ?RET_LOW load(1, XDATA, add(CFA_XSP16, literal(-5)))
        CFI (cfiCond53) ?RET_HIGH load(1, XDATA, add(CFA_XSP16, literal(-4)))
        CFI (cfiCond53) ?BRET_EXT load(1, XDATA, add(CFA_XSP16, literal(-3)))
        CFI (cfiCond53) DPL0 load(1, XDATA, add(CFA_XSP16, literal(-2)))
        CFI (cfiCond53) DPH0 load(1, XDATA, add(CFA_XSP16, literal(-1)))
        CFI (cfiCond53) CFA_SP SP+0
        CFI (cfiCond53) CFA_XSP16 add(XSP16, 10)
        CFI Block cfiCond54 Using cfiCommon0
        CFI (cfiCond54) NoFunction
        CFI (cfiCond54) Conditional ??CrossCallReturnLabel_102
        CFI (cfiCond54) R6 load(1, XDATA, add(CFA_XSP16, literal(-20)))
        CFI (cfiCond54) VB load(1, XDATA, add(CFA_XSP16, literal(-19)))
        CFI (cfiCond54) V0 load(1, XDATA, add(CFA_XSP16, literal(-18)))
        CFI (cfiCond54) V1 load(1, XDATA, add(CFA_XSP16, literal(-17)))
        CFI (cfiCond54) V2 load(1, XDATA, add(CFA_XSP16, literal(-16)))
        CFI (cfiCond54) V3 load(1, XDATA, add(CFA_XSP16, literal(-15)))
        CFI (cfiCond54) V4 load(1, XDATA, add(CFA_XSP16, literal(-14)))
        CFI (cfiCond54) V5 load(1, XDATA, add(CFA_XSP16, literal(-13)))
        CFI (cfiCond54) V6 load(1, XDATA, add(CFA_XSP16, literal(-12)))
        CFI (cfiCond54) V7 load(1, XDATA, add(CFA_XSP16, literal(-11)))
        CFI (cfiCond54) V8 load(1, XDATA, add(CFA_XSP16, literal(-10)))
        CFI (cfiCond54) V9 load(1, XDATA, add(CFA_XSP16, literal(-9)))
        CFI (cfiCond54) V10 load(1, XDATA, add(CFA_XSP16, literal(-8)))
        CFI (cfiCond54) V11 load(1, XDATA, add(CFA_XSP16, literal(-7)))
        CFI (cfiCond54) R7 load(1, XDATA, add(CFA_XSP16, literal(-6)))
        CFI (cfiCond54) ?RET_LOW load(1, XDATA, add(CFA_XSP16, literal(-5)))
        CFI (cfiCond54) ?RET_HIGH load(1, XDATA, add(CFA_XSP16, literal(-4)))
        CFI (cfiCond54) ?BRET_EXT load(1, XDATA, add(CFA_XSP16, literal(-3)))
        CFI (cfiCond54) DPL0 load(1, XDATA, add(CFA_XSP16, literal(-2)))
        CFI (cfiCond54) DPH0 load(1, XDATA, add(CFA_XSP16, literal(-1)))
        CFI (cfiCond54) CFA_SP SP+0
        CFI (cfiCond54) CFA_XSP16 add(XSP16, 33)
        CFI Block cfiPicker55 Using cfiCommon1
        CFI (cfiPicker55) NoFunction
        CFI (cfiPicker55) Picker
        RLC     A
        MOV     R1,A
        MOV     A,#Nei_Table & 0xff
        ADD     A,R0
        MOV     DPL,A
        MOV     A,#(Nei_Table >> 8) & 0xff
        ADDC    A,R1
        MOV     DPH,A
        RET
        CFI EndBlock cfiCond51
        CFI EndBlock cfiCond52
        CFI EndBlock cfiCond53
        CFI EndBlock cfiCond54
        CFI EndBlock cfiPicker55

        RSEG BANKED_CODE:CODE:NOROOT(0)
?Subroutine41:
        CFI Block cfiCond56 Using cfiCommon0
        CFI NoFunction
        CFI Conditional ??CrossCallReturnLabel_68
        CFI R6 load(1, XDATA, add(CFA_XSP16, literal(-20)))
        CFI VB load(1, XDATA, add(CFA_XSP16, literal(-19)))
        CFI V0 load(1, XDATA, add(CFA_XSP16, literal(-18)))
        CFI V1 load(1, XDATA, add(CFA_XSP16, literal(-17)))
        CFI V2 load(1, XDATA, add(CFA_XSP16, literal(-16)))
        CFI V3 load(1, XDATA, add(CFA_XSP16, literal(-15)))
        CFI V4 load(1, XDATA, add(CFA_XSP16, literal(-14)))
        CFI V5 load(1, XDATA, add(CFA_XSP16, literal(-13)))
        CFI V6 load(1, XDATA, add(CFA_XSP16, literal(-12)))
        CFI V7 load(1, XDATA, add(CFA_XSP16, literal(-11)))
        CFI V8 load(1, XDATA, add(CFA_XSP16, literal(-10)))
        CFI V9 load(1, XDATA, add(CFA_XSP16, literal(-9)))
        CFI V10 load(1, XDATA, add(CFA_XSP16, literal(-8)))
        CFI V11 load(1, XDATA, add(CFA_XSP16, literal(-7)))
        CFI R7 load(1, XDATA, add(CFA_XSP16, literal(-6)))
        CFI ?RET_LOW load(1, XDATA, add(CFA_XSP16, literal(-5)))
        CFI ?RET_HIGH load(1, XDATA, add(CFA_XSP16, literal(-4)))
        CFI ?BRET_EXT load(1, XDATA, add(CFA_XSP16, literal(-3)))
        CFI DPL0 load(1, XDATA, add(CFA_XSP16, literal(-2)))
        CFI DPH0 load(1, XDATA, add(CFA_XSP16, literal(-1)))
        CFI CFA_SP SP+0
        CFI CFA_XSP16 add(XSP16, 33)
        CFI Block cfiCond57 Using cfiCommon0
        CFI (cfiCond57) NoFunction
        CFI (cfiCond57) Conditional ??CrossCallReturnLabel_69
        CFI (cfiCond57) R6 load(1, XDATA, add(CFA_XSP16, literal(-20)))
        CFI (cfiCond57) VB load(1, XDATA, add(CFA_XSP16, literal(-19)))
        CFI (cfiCond57) V0 load(1, XDATA, add(CFA_XSP16, literal(-18)))
        CFI (cfiCond57) V1 load(1, XDATA, add(CFA_XSP16, literal(-17)))
        CFI (cfiCond57) V2 load(1, XDATA, add(CFA_XSP16, literal(-16)))
        CFI (cfiCond57) V3 load(1, XDATA, add(CFA_XSP16, literal(-15)))
        CFI (cfiCond57) V4 load(1, XDATA, add(CFA_XSP16, literal(-14)))
        CFI (cfiCond57) V5 load(1, XDATA, add(CFA_XSP16, literal(-13)))
        CFI (cfiCond57) V6 load(1, XDATA, add(CFA_XSP16, literal(-12)))
        CFI (cfiCond57) V7 load(1, XDATA, add(CFA_XSP16, literal(-11)))
        CFI (cfiCond57) V8 load(1, XDATA, add(CFA_XSP16, literal(-10)))
        CFI (cfiCond57) V9 load(1, XDATA, add(CFA_XSP16, literal(-9)))
        CFI (cfiCond57) V10 load(1, XDATA, add(CFA_XSP16, literal(-8)))
        CFI (cfiCond57) V11 load(1, XDATA, add(CFA_XSP16, literal(-7)))
        CFI (cfiCond57) R7 load(1, XDATA, add(CFA_XSP16, literal(-6)))
        CFI (cfiCond57) ?RET_LOW load(1, XDATA, add(CFA_XSP16, literal(-5)))
        CFI (cfiCond57) ?RET_HIGH load(1, XDATA, add(CFA_XSP16, literal(-4)))
        CFI (cfiCond57) ?BRET_EXT load(1, XDATA, add(CFA_XSP16, literal(-3)))
        CFI (cfiCond57) DPL0 load(1, XDATA, add(CFA_XSP16, literal(-2)))
        CFI (cfiCond57) DPH0 load(1, XDATA, add(CFA_XSP16, literal(-1)))
        CFI (cfiCond57) CFA_SP SP+0
        CFI (cfiCond57) CFA_XSP16 add(XSP16, 33)
        CFI Block cfiPicker58 Using cfiCommon1
        CFI (cfiPicker58) NoFunction
        CFI (cfiPicker58) Picker
        MOV     A,R0
        MOV     R2,A
        MOV     A,R1
        MOV     R3,A
        MOV     A,R2
        CLR     C
        RLC     A
        MOV     R2,A
        MOV     A,R3
        RLC     A
        MOV     R3,A
        MOV     A,#Nei_Table & 0xff
        ADD     A,R2
        MOV     DPL,A
        MOV     A,#(Nei_Table >> 8) & 0xff
        ADDC    A,R3
        MOV     DPH,A
        MOVX    A,@DPTR
        RET
        CFI EndBlock cfiCond56
        CFI EndBlock cfiCond57
        CFI EndBlock cfiPicker58

        RSEG BANKED_CODE:CODE:NOROOT(0)
?Subroutine39:
        CFI Block cfiCond59 Using cfiCommon0
        CFI NoFunction
        CFI Conditional ??CrossCallReturnLabel_64
        CFI R6 load(1, XDATA, add(CFA_XSP16, literal(-10)))
        CFI VB load(1, XDATA, add(CFA_XSP16, literal(-9)))
        CFI V0 load(1, XDATA, add(CFA_XSP16, literal(-8)))
        CFI V1 load(1, XDATA, add(CFA_XSP16, literal(-7)))
        CFI R7 load(1, XDATA, add(CFA_XSP16, literal(-6)))
        CFI ?RET_LOW load(1, XDATA, add(CFA_XSP16, literal(-5)))
        CFI ?RET_HIGH load(1, XDATA, add(CFA_XSP16, literal(-4)))
        CFI ?BRET_EXT load(1, XDATA, add(CFA_XSP16, literal(-3)))
        CFI DPL0 load(1, XDATA, add(CFA_XSP16, literal(-2)))
        CFI DPH0 load(1, XDATA, add(CFA_XSP16, literal(-1)))
        CFI CFA_SP SP+0
        CFI CFA_XSP16 add(XSP16, 10)
        CFI Block cfiCond60 Using cfiCommon0
        CFI (cfiCond60) NoFunction
        CFI (cfiCond60) Conditional ??CrossCallReturnLabel_65
        CFI (cfiCond60) R6 load(1, XDATA, add(CFA_XSP16, literal(-20)))
        CFI (cfiCond60) VB load(1, XDATA, add(CFA_XSP16, literal(-19)))
        CFI (cfiCond60) V0 load(1, XDATA, add(CFA_XSP16, literal(-18)))
        CFI (cfiCond60) V1 load(1, XDATA, add(CFA_XSP16, literal(-17)))
        CFI (cfiCond60) V2 load(1, XDATA, add(CFA_XSP16, literal(-16)))
        CFI (cfiCond60) V3 load(1, XDATA, add(CFA_XSP16, literal(-15)))
        CFI (cfiCond60) V4 load(1, XDATA, add(CFA_XSP16, literal(-14)))
        CFI (cfiCond60) V5 load(1, XDATA, add(CFA_XSP16, literal(-13)))
        CFI (cfiCond60) V6 load(1, XDATA, add(CFA_XSP16, literal(-12)))
        CFI (cfiCond60) V7 load(1, XDATA, add(CFA_XSP16, literal(-11)))
        CFI (cfiCond60) V8 load(1, XDATA, add(CFA_XSP16, literal(-10)))
        CFI (cfiCond60) V9 load(1, XDATA, add(CFA_XSP16, literal(-9)))
        CFI (cfiCond60) V10 load(1, XDATA, add(CFA_XSP16, literal(-8)))
        CFI (cfiCond60) V11 load(1, XDATA, add(CFA_XSP16, literal(-7)))
        CFI (cfiCond60) R7 load(1, XDATA, add(CFA_XSP16, literal(-6)))
        CFI (cfiCond60) ?RET_LOW load(1, XDATA, add(CFA_XSP16, literal(-5)))
        CFI (cfiCond60) ?RET_HIGH load(1, XDATA, add(CFA_XSP16, literal(-4)))
        CFI (cfiCond60) ?BRET_EXT load(1, XDATA, add(CFA_XSP16, literal(-3)))
        CFI (cfiCond60) DPL0 load(1, XDATA, add(CFA_XSP16, literal(-2)))
        CFI (cfiCond60) DPH0 load(1, XDATA, add(CFA_XSP16, literal(-1)))
        CFI (cfiCond60) CFA_SP SP+0
        CFI (cfiCond60) CFA_XSP16 add(XSP16, 33)
        CFI Block cfiPicker61 Using cfiCommon1
        CFI (cfiPicker61) NoFunction
        CFI (cfiPicker61) Picker
        LCALL   ?Subroutine56 & 0xFFFF
??CrossCallReturnLabel_86:
        MOV     R1,#0x0
        LCALL   ??HalUARTWrite?relay
        RET
        CFI EndBlock cfiCond59
        CFI EndBlock cfiCond60
        CFI EndBlock cfiPicker61

        RSEG BANKED_CODE:CODE:NOROOT(0)
?Subroutine56:
        CFI Block cfiCond62 Using cfiCommon0
        CFI NoFunction
        CFI Conditional ??CrossCallReturnLabel_85
        CFI R6 load(1, XDATA, add(CFA_XSP16, literal(-20)))
        CFI VB load(1, XDATA, add(CFA_XSP16, literal(-19)))
        CFI V0 load(1, XDATA, add(CFA_XSP16, literal(-18)))
        CFI V1 load(1, XDATA, add(CFA_XSP16, literal(-17)))
        CFI V2 load(1, XDATA, add(CFA_XSP16, literal(-16)))
        CFI V3 load(1, XDATA, add(CFA_XSP16, literal(-15)))
        CFI V4 load(1, XDATA, add(CFA_XSP16, literal(-14)))
        CFI V5 load(1, XDATA, add(CFA_XSP16, literal(-13)))
        CFI V6 load(1, XDATA, add(CFA_XSP16, literal(-12)))
        CFI V7 load(1, XDATA, add(CFA_XSP16, literal(-11)))
        CFI V8 load(1, XDATA, add(CFA_XSP16, literal(-10)))
        CFI V9 load(1, XDATA, add(CFA_XSP16, literal(-9)))
        CFI V10 load(1, XDATA, add(CFA_XSP16, literal(-8)))
        CFI V11 load(1, XDATA, add(CFA_XSP16, literal(-7)))
        CFI R7 load(1, XDATA, add(CFA_XSP16, literal(-6)))
        CFI ?RET_LOW load(1, XDATA, add(CFA_XSP16, literal(-5)))
        CFI ?RET_HIGH load(1, XDATA, add(CFA_XSP16, literal(-4)))
        CFI ?BRET_EXT load(1, XDATA, add(CFA_XSP16, literal(-3)))
        CFI DPL0 load(1, XDATA, add(CFA_XSP16, literal(-2)))
        CFI DPH0 load(1, XDATA, add(CFA_XSP16, literal(-1)))
        CFI CFA_SP SP+0
        CFI CFA_XSP16 add(XSP16, 33)
        CFI Block cfiCond63 Using cfiCommon0
        CFI (cfiCond63) NoFunction
        CFI (cfiCond63) Conditional ??CrossCallReturnLabel_86, ??CrossCallReturnLabel_64
        CFI (cfiCond63) R6 load(1, XDATA, add(CFA_XSP16, literal(-10)))
        CFI (cfiCond63) VB load(1, XDATA, add(CFA_XSP16, literal(-9)))
        CFI (cfiCond63) V0 load(1, XDATA, add(CFA_XSP16, literal(-8)))
        CFI (cfiCond63) V1 load(1, XDATA, add(CFA_XSP16, literal(-7)))
        CFI (cfiCond63) R7 load(1, XDATA, add(CFA_XSP16, literal(-6)))
        CFI (cfiCond63) ?RET_LOW load(1, XDATA, add(CFA_XSP16, literal(-5)))
        CFI (cfiCond63) ?RET_HIGH load(1, XDATA, add(CFA_XSP16, literal(-4)))
        CFI (cfiCond63) ?BRET_EXT load(1, XDATA, add(CFA_XSP16, literal(-3)))
        CFI (cfiCond63) DPL0 load(1, XDATA, add(CFA_XSP16, literal(-2)))
        CFI (cfiCond63) DPH0 load(1, XDATA, add(CFA_XSP16, literal(-1)))
        CFI (cfiCond63) CFA_SP SP+0
        CFI (cfiCond63) CFA_XSP16 add(XSP16, 10)
        CFI Block cfiCond64 Using cfiCommon0
        CFI (cfiCond64) NoFunction
        CFI (cfiCond64) Conditional ??CrossCallReturnLabel_86, ??CrossCallReturnLabel_65
        CFI (cfiCond64) R6 load(1, XDATA, add(CFA_XSP16, literal(-20)))
        CFI (cfiCond64) VB load(1, XDATA, add(CFA_XSP16, literal(-19)))
        CFI (cfiCond64) V0 load(1, XDATA, add(CFA_XSP16, literal(-18)))
        CFI (cfiCond64) V1 load(1, XDATA, add(CFA_XSP16, literal(-17)))
        CFI (cfiCond64) V2 load(1, XDATA, add(CFA_XSP16, literal(-16)))
        CFI (cfiCond64) V3 load(1, XDATA, add(CFA_XSP16, literal(-15)))
        CFI (cfiCond64) V4 load(1, XDATA, add(CFA_XSP16, literal(-14)))
        CFI (cfiCond64) V5 load(1, XDATA, add(CFA_XSP16, literal(-13)))
        CFI (cfiCond64) V6 load(1, XDATA, add(CFA_XSP16, literal(-12)))
        CFI (cfiCond64) V7 load(1, XDATA, add(CFA_XSP16, literal(-11)))
        CFI (cfiCond64) V8 load(1, XDATA, add(CFA_XSP16, literal(-10)))
        CFI (cfiCond64) V9 load(1, XDATA, add(CFA_XSP16, literal(-9)))
        CFI (cfiCond64) V10 load(1, XDATA, add(CFA_XSP16, literal(-8)))
        CFI (cfiCond64) V11 load(1, XDATA, add(CFA_XSP16, literal(-7)))
        CFI (cfiCond64) R7 load(1, XDATA, add(CFA_XSP16, literal(-6)))
        CFI (cfiCond64) ?RET_LOW load(1, XDATA, add(CFA_XSP16, literal(-5)))
        CFI (cfiCond64) ?RET_HIGH load(1, XDATA, add(CFA_XSP16, literal(-4)))
        CFI (cfiCond64) ?BRET_EXT load(1, XDATA, add(CFA_XSP16, literal(-3)))
        CFI (cfiCond64) DPL0 load(1, XDATA, add(CFA_XSP16, literal(-2)))
        CFI (cfiCond64) DPH0 load(1, XDATA, add(CFA_XSP16, literal(-1)))
        CFI (cfiCond64) CFA_SP SP+0
        CFI (cfiCond64) CFA_XSP16 add(XSP16, 33)
        CFI Block cfiPicker65 Using cfiCommon1
        CFI (cfiPicker65) NoFunction
        CFI (cfiPicker65) Picker
        LCALL   ?Subroutine61 & 0xFFFF
??CrossCallReturnLabel_127:
        MOV     R2,#`?<Constant "\\n">` & 0xff
        MOV     R3,#(`?<Constant "\\n">` >> 8) & 0xff
        RET
        CFI EndBlock cfiCond62
        CFI EndBlock cfiCond63
        CFI EndBlock cfiCond64
        CFI EndBlock cfiPicker65

        RSEG BANKED_CODE:CODE:NOROOT(0)
?Subroutine38:
        CFI Block cfiCond66 Using cfiCommon0
        CFI NoFunction
        CFI Conditional ??CrossCallReturnLabel_104
        CFI R6 load(1, XDATA, add(CFA_XSP16, literal(-20)))
        CFI VB load(1, XDATA, add(CFA_XSP16, literal(-19)))
        CFI V0 load(1, XDATA, add(CFA_XSP16, literal(-18)))
        CFI V1 load(1, XDATA, add(CFA_XSP16, literal(-17)))
        CFI V2 load(1, XDATA, add(CFA_XSP16, literal(-16)))
        CFI V3 load(1, XDATA, add(CFA_XSP16, literal(-15)))
        CFI V4 load(1, XDATA, add(CFA_XSP16, literal(-14)))
        CFI V5 load(1, XDATA, add(CFA_XSP16, literal(-13)))
        CFI V6 load(1, XDATA, add(CFA_XSP16, literal(-12)))
        CFI V7 load(1, XDATA, add(CFA_XSP16, literal(-11)))
        CFI V8 load(1, XDATA, add(CFA_XSP16, literal(-10)))
        CFI V9 load(1, XDATA, add(CFA_XSP16, literal(-9)))
        CFI V10 load(1, XDATA, add(CFA_XSP16, literal(-8)))
        CFI V11 load(1, XDATA, add(CFA_XSP16, literal(-7)))
        CFI R7 load(1, XDATA, add(CFA_XSP16, literal(-6)))
        CFI ?RET_LOW load(1, XDATA, add(CFA_XSP16, literal(-5)))
        CFI ?RET_HIGH load(1, XDATA, add(CFA_XSP16, literal(-4)))
        CFI ?BRET_EXT load(1, XDATA, add(CFA_XSP16, literal(-3)))
        CFI DPL0 load(1, XDATA, add(CFA_XSP16, literal(-2)))
        CFI DPH0 load(1, XDATA, add(CFA_XSP16, literal(-1)))
        CFI CFA_SP SP+0
        CFI CFA_XSP16 add(XSP16, 33)
        CFI Block cfiCond67 Using cfiCommon0
        CFI (cfiCond67) NoFunction
        CFI (cfiCond67) Conditional ??CrossCallReturnLabel_105
        CFI (cfiCond67) R6 load(1, XDATA, add(CFA_XSP16, literal(-20)))
        CFI (cfiCond67) VB load(1, XDATA, add(CFA_XSP16, literal(-19)))
        CFI (cfiCond67) V0 load(1, XDATA, add(CFA_XSP16, literal(-18)))
        CFI (cfiCond67) V1 load(1, XDATA, add(CFA_XSP16, literal(-17)))
        CFI (cfiCond67) V2 load(1, XDATA, add(CFA_XSP16, literal(-16)))
        CFI (cfiCond67) V3 load(1, XDATA, add(CFA_XSP16, literal(-15)))
        CFI (cfiCond67) V4 load(1, XDATA, add(CFA_XSP16, literal(-14)))
        CFI (cfiCond67) V5 load(1, XDATA, add(CFA_XSP16, literal(-13)))
        CFI (cfiCond67) V6 load(1, XDATA, add(CFA_XSP16, literal(-12)))
        CFI (cfiCond67) V7 load(1, XDATA, add(CFA_XSP16, literal(-11)))
        CFI (cfiCond67) V8 load(1, XDATA, add(CFA_XSP16, literal(-10)))
        CFI (cfiCond67) V9 load(1, XDATA, add(CFA_XSP16, literal(-9)))
        CFI (cfiCond67) V10 load(1, XDATA, add(CFA_XSP16, literal(-8)))
        CFI (cfiCond67) V11 load(1, XDATA, add(CFA_XSP16, literal(-7)))
        CFI (cfiCond67) R7 load(1, XDATA, add(CFA_XSP16, literal(-6)))
        CFI (cfiCond67) ?RET_LOW load(1, XDATA, add(CFA_XSP16, literal(-5)))
        CFI (cfiCond67) ?RET_HIGH load(1, XDATA, add(CFA_XSP16, literal(-4)))
        CFI (cfiCond67) ?BRET_EXT load(1, XDATA, add(CFA_XSP16, literal(-3)))
        CFI (cfiCond67) DPL0 load(1, XDATA, add(CFA_XSP16, literal(-2)))
        CFI (cfiCond67) DPH0 load(1, XDATA, add(CFA_XSP16, literal(-1)))
        CFI (cfiCond67) CFA_SP SP+0
        CFI (cfiCond67) CFA_XSP16 add(XSP16, 33)
        CFI Block cfiPicker68 Using cfiCommon1
        CFI (cfiPicker68) NoFunction
        CFI (cfiPicker68) Picker
        LCALL   ??osal_getClock?relay
        LCALL   ??srand?relay
        CFI EndBlock cfiCond66
        CFI EndBlock cfiCond67
        CFI EndBlock cfiPicker68
        ; Setup parameters for call to function rand
        ; Setup parameters for call to function rand
        REQUIRE ??Subroutine64_0
        ; // Fall through to label ??Subroutine64_0

        RSEG BANKED_CODE:CODE:NOROOT(0)
??Subroutine64_0:
        CFI Block cfiCond69 Using cfiCommon0
        CFI NoFunction
        CFI Conditional ??CrossCallReturnLabel_106
        CFI R6 load(1, XDATA, add(CFA_XSP16, literal(-12)))
        CFI VB load(1, XDATA, add(CFA_XSP16, literal(-11)))
        CFI V0 load(1, XDATA, add(CFA_XSP16, literal(-10)))
        CFI V1 load(1, XDATA, add(CFA_XSP16, literal(-9)))
        CFI V2 load(1, XDATA, add(CFA_XSP16, literal(-8)))
        CFI V3 load(1, XDATA, add(CFA_XSP16, literal(-7)))
        CFI R7 load(1, XDATA, add(CFA_XSP16, literal(-6)))
        CFI ?RET_LOW load(1, XDATA, add(CFA_XSP16, literal(-5)))
        CFI ?RET_HIGH load(1, XDATA, add(CFA_XSP16, literal(-4)))
        CFI ?BRET_EXT load(1, XDATA, add(CFA_XSP16, literal(-3)))
        CFI DPL0 load(1, XDATA, add(CFA_XSP16, literal(-2)))
        CFI DPH0 load(1, XDATA, add(CFA_XSP16, literal(-1)))
        CFI CFA_SP SP+0
        CFI CFA_XSP16 add(XSP16, 17)
        CFI Block cfiCond70 Using cfiCommon0
        CFI (cfiCond70) NoFunction
        CFI (cfiCond70) Conditional ??CrossCallReturnLabel_104
        CFI (cfiCond70) R6 load(1, XDATA, add(CFA_XSP16, literal(-20)))
        CFI (cfiCond70) VB load(1, XDATA, add(CFA_XSP16, literal(-19)))
        CFI (cfiCond70) V0 load(1, XDATA, add(CFA_XSP16, literal(-18)))
        CFI (cfiCond70) V1 load(1, XDATA, add(CFA_XSP16, literal(-17)))
        CFI (cfiCond70) V2 load(1, XDATA, add(CFA_XSP16, literal(-16)))
        CFI (cfiCond70) V3 load(1, XDATA, add(CFA_XSP16, literal(-15)))
        CFI (cfiCond70) V4 load(1, XDATA, add(CFA_XSP16, literal(-14)))
        CFI (cfiCond70) V5 load(1, XDATA, add(CFA_XSP16, literal(-13)))
        CFI (cfiCond70) V6 load(1, XDATA, add(CFA_XSP16, literal(-12)))
        CFI (cfiCond70) V7 load(1, XDATA, add(CFA_XSP16, literal(-11)))
        CFI (cfiCond70) V8 load(1, XDATA, add(CFA_XSP16, literal(-10)))
        CFI (cfiCond70) V9 load(1, XDATA, add(CFA_XSP16, literal(-9)))
        CFI (cfiCond70) V10 load(1, XDATA, add(CFA_XSP16, literal(-8)))
        CFI (cfiCond70) V11 load(1, XDATA, add(CFA_XSP16, literal(-7)))
        CFI (cfiCond70) R7 load(1, XDATA, add(CFA_XSP16, literal(-6)))
        CFI (cfiCond70) ?RET_LOW load(1, XDATA, add(CFA_XSP16, literal(-5)))
        CFI (cfiCond70) ?RET_HIGH load(1, XDATA, add(CFA_XSP16, literal(-4)))
        CFI (cfiCond70) ?BRET_EXT load(1, XDATA, add(CFA_XSP16, literal(-3)))
        CFI (cfiCond70) DPL0 load(1, XDATA, add(CFA_XSP16, literal(-2)))
        CFI (cfiCond70) DPH0 load(1, XDATA, add(CFA_XSP16, literal(-1)))
        CFI (cfiCond70) CFA_SP SP+0
        CFI (cfiCond70) CFA_XSP16 add(XSP16, 33)
        CFI Block cfiCond71 Using cfiCommon0
        CFI (cfiCond71) NoFunction
        CFI (cfiCond71) Conditional ??CrossCallReturnLabel_105
        CFI (cfiCond71) R6 load(1, XDATA, add(CFA_XSP16, literal(-20)))
        CFI (cfiCond71) VB load(1, XDATA, add(CFA_XSP16, literal(-19)))
        CFI (cfiCond71) V0 load(1, XDATA, add(CFA_XSP16, literal(-18)))
        CFI (cfiCond71) V1 load(1, XDATA, add(CFA_XSP16, literal(-17)))
        CFI (cfiCond71) V2 load(1, XDATA, add(CFA_XSP16, literal(-16)))
        CFI (cfiCond71) V3 load(1, XDATA, add(CFA_XSP16, literal(-15)))
        CFI (cfiCond71) V4 load(1, XDATA, add(CFA_XSP16, literal(-14)))
        CFI (cfiCond71) V5 load(1, XDATA, add(CFA_XSP16, literal(-13)))
        CFI (cfiCond71) V6 load(1, XDATA, add(CFA_XSP16, literal(-12)))
        CFI (cfiCond71) V7 load(1, XDATA, add(CFA_XSP16, literal(-11)))
        CFI (cfiCond71) V8 load(1, XDATA, add(CFA_XSP16, literal(-10)))
        CFI (cfiCond71) V9 load(1, XDATA, add(CFA_XSP16, literal(-9)))
        CFI (cfiCond71) V10 load(1, XDATA, add(CFA_XSP16, literal(-8)))
        CFI (cfiCond71) V11 load(1, XDATA, add(CFA_XSP16, literal(-7)))
        CFI (cfiCond71) R7 load(1, XDATA, add(CFA_XSP16, literal(-6)))
        CFI (cfiCond71) ?RET_LOW load(1, XDATA, add(CFA_XSP16, literal(-5)))
        CFI (cfiCond71) ?RET_HIGH load(1, XDATA, add(CFA_XSP16, literal(-4)))
        CFI (cfiCond71) ?BRET_EXT load(1, XDATA, add(CFA_XSP16, literal(-3)))
        CFI (cfiCond71) DPL0 load(1, XDATA, add(CFA_XSP16, literal(-2)))
        CFI (cfiCond71) DPH0 load(1, XDATA, add(CFA_XSP16, literal(-1)))
        CFI (cfiCond71) CFA_SP SP+0
        CFI (cfiCond71) CFA_XSP16 add(XSP16, 33)
        CFI Block cfiPicker72 Using cfiCommon1
        CFI (cfiPicker72) NoFunction
        CFI (cfiPicker72) Picker
        LCALL   ??rand?relay
        MOV     A,R2
        MOV     R0,A
        MOV     A,R3
        MOV     R1,A
        MOV     R2,#0x5
        MOV     R3,#0x0
        RET
        CFI EndBlock cfiCond69
        CFI EndBlock cfiCond70
        CFI EndBlock cfiCond71
        CFI EndBlock cfiPicker72

        RSEG BANKED_CODE:CODE:NOROOT(0)
?Subroutine37:
        CFI Block cfiCond73 Using cfiCommon0
        CFI NoFunction
        CFI Conditional ??CrossCallReturnLabel_62
        CFI R6 load(1, XDATA, add(CFA_XSP16, literal(-20)))
        CFI VB load(1, XDATA, add(CFA_XSP16, literal(-19)))
        CFI V0 load(1, XDATA, add(CFA_XSP16, literal(-18)))
        CFI V1 load(1, XDATA, add(CFA_XSP16, literal(-17)))
        CFI V2 load(1, XDATA, add(CFA_XSP16, literal(-16)))
        CFI V3 load(1, XDATA, add(CFA_XSP16, literal(-15)))
        CFI V4 load(1, XDATA, add(CFA_XSP16, literal(-14)))
        CFI V5 load(1, XDATA, add(CFA_XSP16, literal(-13)))
        CFI V6 load(1, XDATA, add(CFA_XSP16, literal(-12)))
        CFI V7 load(1, XDATA, add(CFA_XSP16, literal(-11)))
        CFI V8 load(1, XDATA, add(CFA_XSP16, literal(-10)))
        CFI V9 load(1, XDATA, add(CFA_XSP16, literal(-9)))
        CFI V10 load(1, XDATA, add(CFA_XSP16, literal(-8)))
        CFI V11 load(1, XDATA, add(CFA_XSP16, literal(-7)))
        CFI R7 load(1, XDATA, add(CFA_XSP16, literal(-6)))
        CFI ?RET_LOW load(1, XDATA, add(CFA_XSP16, literal(-5)))
        CFI ?RET_HIGH load(1, XDATA, add(CFA_XSP16, literal(-4)))
        CFI ?BRET_EXT load(1, XDATA, add(CFA_XSP16, literal(-3)))
        CFI DPL0 load(1, XDATA, add(CFA_XSP16, literal(-2)))
        CFI DPH0 load(1, XDATA, add(CFA_XSP16, literal(-1)))
        CFI CFA_SP SP+0
        CFI CFA_XSP16 add(XSP16, 33)
        CFI Block cfiCond74 Using cfiCommon0
        CFI (cfiCond74) NoFunction
        CFI (cfiCond74) Conditional ??CrossCallReturnLabel_63
        CFI (cfiCond74) R6 load(1, XDATA, add(CFA_XSP16, literal(-20)))
        CFI (cfiCond74) VB load(1, XDATA, add(CFA_XSP16, literal(-19)))
        CFI (cfiCond74) V0 load(1, XDATA, add(CFA_XSP16, literal(-18)))
        CFI (cfiCond74) V1 load(1, XDATA, add(CFA_XSP16, literal(-17)))
        CFI (cfiCond74) V2 load(1, XDATA, add(CFA_XSP16, literal(-16)))
        CFI (cfiCond74) V3 load(1, XDATA, add(CFA_XSP16, literal(-15)))
        CFI (cfiCond74) V4 load(1, XDATA, add(CFA_XSP16, literal(-14)))
        CFI (cfiCond74) V5 load(1, XDATA, add(CFA_XSP16, literal(-13)))
        CFI (cfiCond74) V6 load(1, XDATA, add(CFA_XSP16, literal(-12)))
        CFI (cfiCond74) V7 load(1, XDATA, add(CFA_XSP16, literal(-11)))
        CFI (cfiCond74) V8 load(1, XDATA, add(CFA_XSP16, literal(-10)))
        CFI (cfiCond74) V9 load(1, XDATA, add(CFA_XSP16, literal(-9)))
        CFI (cfiCond74) V10 load(1, XDATA, add(CFA_XSP16, literal(-8)))
        CFI (cfiCond74) V11 load(1, XDATA, add(CFA_XSP16, literal(-7)))
        CFI (cfiCond74) R7 load(1, XDATA, add(CFA_XSP16, literal(-6)))
        CFI (cfiCond74) ?RET_LOW load(1, XDATA, add(CFA_XSP16, literal(-5)))
        CFI (cfiCond74) ?RET_HIGH load(1, XDATA, add(CFA_XSP16, literal(-4)))
        CFI (cfiCond74) ?BRET_EXT load(1, XDATA, add(CFA_XSP16, literal(-3)))
        CFI (cfiCond74) DPL0 load(1, XDATA, add(CFA_XSP16, literal(-2)))
        CFI (cfiCond74) DPH0 load(1, XDATA, add(CFA_XSP16, literal(-1)))
        CFI (cfiCond74) CFA_SP SP+0
        CFI (cfiCond74) CFA_XSP16 add(XSP16, 33)
        CFI Block cfiPicker75 Using cfiCommon1
        CFI (cfiPicker75) NoFunction
        CFI (cfiPicker75) Picker
        MOV     R1,?V0 + 0
        LCALL   ??Power_of_2?relay
        MOV     A,R2
        ANL     A,R6
        MOV     R0,A
        MOV     A,R3
        ANL     A,R7
        MOV     R1,A
        MOV     A,R0
        ORL     A,R1
        RET
        CFI EndBlock cfiCond73
        CFI EndBlock cfiCond74
        CFI EndBlock cfiPicker75

        RSEG BANKED_CODE:CODE:NOROOT(0)
?Subroutine36:
        CFI Block cfiCond76 Using cfiCommon0
        CFI NoFunction
        CFI Conditional ??CrossCallReturnLabel_107
        CFI R6 load(1, XDATA, add(CFA_XSP16, literal(-20)))
        CFI VB load(1, XDATA, add(CFA_XSP16, literal(-19)))
        CFI V0 load(1, XDATA, add(CFA_XSP16, literal(-18)))
        CFI V1 load(1, XDATA, add(CFA_XSP16, literal(-17)))
        CFI V2 load(1, XDATA, add(CFA_XSP16, literal(-16)))
        CFI V3 load(1, XDATA, add(CFA_XSP16, literal(-15)))
        CFI V4 load(1, XDATA, add(CFA_XSP16, literal(-14)))
        CFI V5 load(1, XDATA, add(CFA_XSP16, literal(-13)))
        CFI V6 load(1, XDATA, add(CFA_XSP16, literal(-12)))
        CFI V7 load(1, XDATA, add(CFA_XSP16, literal(-11)))
        CFI V8 load(1, XDATA, add(CFA_XSP16, literal(-10)))
        CFI V9 load(1, XDATA, add(CFA_XSP16, literal(-9)))
        CFI V10 load(1, XDATA, add(CFA_XSP16, literal(-8)))
        CFI V11 load(1, XDATA, add(CFA_XSP16, literal(-7)))
        CFI R7 load(1, XDATA, add(CFA_XSP16, literal(-6)))
        CFI ?RET_LOW load(1, XDATA, add(CFA_XSP16, literal(-5)))
        CFI ?RET_HIGH load(1, XDATA, add(CFA_XSP16, literal(-4)))
        CFI ?BRET_EXT load(1, XDATA, add(CFA_XSP16, literal(-3)))
        CFI DPL0 load(1, XDATA, add(CFA_XSP16, literal(-2)))
        CFI DPH0 load(1, XDATA, add(CFA_XSP16, literal(-1)))
        CFI CFA_SP SP+0
        CFI CFA_XSP16 add(XSP16, 42)
        CFI Block cfiCond77 Using cfiCommon0
        CFI (cfiCond77) NoFunction
        CFI (cfiCond77) Conditional ??CrossCallReturnLabel_108
        CFI (cfiCond77) R6 load(1, XDATA, add(CFA_XSP16, literal(-20)))
        CFI (cfiCond77) VB load(1, XDATA, add(CFA_XSP16, literal(-19)))
        CFI (cfiCond77) V0 load(1, XDATA, add(CFA_XSP16, literal(-18)))
        CFI (cfiCond77) V1 load(1, XDATA, add(CFA_XSP16, literal(-17)))
        CFI (cfiCond77) V2 load(1, XDATA, add(CFA_XSP16, literal(-16)))
        CFI (cfiCond77) V3 load(1, XDATA, add(CFA_XSP16, literal(-15)))
        CFI (cfiCond77) V4 load(1, XDATA, add(CFA_XSP16, literal(-14)))
        CFI (cfiCond77) V5 load(1, XDATA, add(CFA_XSP16, literal(-13)))
        CFI (cfiCond77) V6 load(1, XDATA, add(CFA_XSP16, literal(-12)))
        CFI (cfiCond77) V7 load(1, XDATA, add(CFA_XSP16, literal(-11)))
        CFI (cfiCond77) V8 load(1, XDATA, add(CFA_XSP16, literal(-10)))
        CFI (cfiCond77) V9 load(1, XDATA, add(CFA_XSP16, literal(-9)))
        CFI (cfiCond77) V10 load(1, XDATA, add(CFA_XSP16, literal(-8)))
        CFI (cfiCond77) V11 load(1, XDATA, add(CFA_XSP16, literal(-7)))
        CFI (cfiCond77) R7 load(1, XDATA, add(CFA_XSP16, literal(-6)))
        CFI (cfiCond77) ?RET_LOW load(1, XDATA, add(CFA_XSP16, literal(-5)))
        CFI (cfiCond77) ?RET_HIGH load(1, XDATA, add(CFA_XSP16, literal(-4)))
        CFI (cfiCond77) ?BRET_EXT load(1, XDATA, add(CFA_XSP16, literal(-3)))
        CFI (cfiCond77) DPL0 load(1, XDATA, add(CFA_XSP16, literal(-2)))
        CFI (cfiCond77) DPH0 load(1, XDATA, add(CFA_XSP16, literal(-1)))
        CFI (cfiCond77) CFA_SP SP+0
        CFI (cfiCond77) CFA_XSP16 add(XSP16, 42)
        CFI Block cfiCond78 Using cfiCommon0
        CFI (cfiCond78) NoFunction
        CFI (cfiCond78) Conditional ??CrossCallReturnLabel_109
        CFI (cfiCond78) R6 load(1, XDATA, add(CFA_XSP16, literal(-20)))
        CFI (cfiCond78) VB load(1, XDATA, add(CFA_XSP16, literal(-19)))
        CFI (cfiCond78) V0 load(1, XDATA, add(CFA_XSP16, literal(-18)))
        CFI (cfiCond78) V1 load(1, XDATA, add(CFA_XSP16, literal(-17)))
        CFI (cfiCond78) V2 load(1, XDATA, add(CFA_XSP16, literal(-16)))
        CFI (cfiCond78) V3 load(1, XDATA, add(CFA_XSP16, literal(-15)))
        CFI (cfiCond78) V4 load(1, XDATA, add(CFA_XSP16, literal(-14)))
        CFI (cfiCond78) V5 load(1, XDATA, add(CFA_XSP16, literal(-13)))
        CFI (cfiCond78) V6 load(1, XDATA, add(CFA_XSP16, literal(-12)))
        CFI (cfiCond78) V7 load(1, XDATA, add(CFA_XSP16, literal(-11)))
        CFI (cfiCond78) V8 load(1, XDATA, add(CFA_XSP16, literal(-10)))
        CFI (cfiCond78) V9 load(1, XDATA, add(CFA_XSP16, literal(-9)))
        CFI (cfiCond78) V10 load(1, XDATA, add(CFA_XSP16, literal(-8)))
        CFI (cfiCond78) V11 load(1, XDATA, add(CFA_XSP16, literal(-7)))
        CFI (cfiCond78) R7 load(1, XDATA, add(CFA_XSP16, literal(-6)))
        CFI (cfiCond78) ?RET_LOW load(1, XDATA, add(CFA_XSP16, literal(-5)))
        CFI (cfiCond78) ?RET_HIGH load(1, XDATA, add(CFA_XSP16, literal(-4)))
        CFI (cfiCond78) ?BRET_EXT load(1, XDATA, add(CFA_XSP16, literal(-3)))
        CFI (cfiCond78) DPL0 load(1, XDATA, add(CFA_XSP16, literal(-2)))
        CFI (cfiCond78) DPH0 load(1, XDATA, add(CFA_XSP16, literal(-1)))
        CFI (cfiCond78) CFA_SP SP+0
        CFI (cfiCond78) CFA_XSP16 add(XSP16, 42)
        CFI Block cfiCond79 Using cfiCommon0
        CFI (cfiCond79) NoFunction
        CFI (cfiCond79) Conditional ??CrossCallReturnLabel_110
        CFI (cfiCond79) R6 load(1, XDATA, add(CFA_XSP16, literal(-20)))
        CFI (cfiCond79) VB load(1, XDATA, add(CFA_XSP16, literal(-19)))
        CFI (cfiCond79) V0 load(1, XDATA, add(CFA_XSP16, literal(-18)))
        CFI (cfiCond79) V1 load(1, XDATA, add(CFA_XSP16, literal(-17)))
        CFI (cfiCond79) V2 load(1, XDATA, add(CFA_XSP16, literal(-16)))
        CFI (cfiCond79) V3 load(1, XDATA, add(CFA_XSP16, literal(-15)))
        CFI (cfiCond79) V4 load(1, XDATA, add(CFA_XSP16, literal(-14)))
        CFI (cfiCond79) V5 load(1, XDATA, add(CFA_XSP16, literal(-13)))
        CFI (cfiCond79) V6 load(1, XDATA, add(CFA_XSP16, literal(-12)))
        CFI (cfiCond79) V7 load(1, XDATA, add(CFA_XSP16, literal(-11)))
        CFI (cfiCond79) V8 load(1, XDATA, add(CFA_XSP16, literal(-10)))
        CFI (cfiCond79) V9 load(1, XDATA, add(CFA_XSP16, literal(-9)))
        CFI (cfiCond79) V10 load(1, XDATA, add(CFA_XSP16, literal(-8)))
        CFI (cfiCond79) V11 load(1, XDATA, add(CFA_XSP16, literal(-7)))
        CFI (cfiCond79) R7 load(1, XDATA, add(CFA_XSP16, literal(-6)))
        CFI (cfiCond79) ?RET_LOW load(1, XDATA, add(CFA_XSP16, literal(-5)))
        CFI (cfiCond79) ?RET_HIGH load(1, XDATA, add(CFA_XSP16, literal(-4)))
        CFI (cfiCond79) ?BRET_EXT load(1, XDATA, add(CFA_XSP16, literal(-3)))
        CFI (cfiCond79) DPL0 load(1, XDATA, add(CFA_XSP16, literal(-2)))
        CFI (cfiCond79) DPH0 load(1, XDATA, add(CFA_XSP16, literal(-1)))
        CFI (cfiCond79) CFA_SP SP+0
        CFI (cfiCond79) CFA_XSP16 add(XSP16, 42)
        CFI Block cfiCond80 Using cfiCommon0
        CFI (cfiCond80) NoFunction
        CFI (cfiCond80) Conditional ??CrossCallReturnLabel_111
        CFI (cfiCond80) R6 load(1, XDATA, add(CFA_XSP16, literal(-10)))
        CFI (cfiCond80) VB load(1, XDATA, add(CFA_XSP16, literal(-9)))
        CFI (cfiCond80) V0 load(1, XDATA, add(CFA_XSP16, literal(-8)))
        CFI (cfiCond80) V1 load(1, XDATA, add(CFA_XSP16, literal(-7)))
        CFI (cfiCond80) R7 load(1, XDATA, add(CFA_XSP16, literal(-6)))
        CFI (cfiCond80) ?RET_LOW load(1, XDATA, add(CFA_XSP16, literal(-5)))
        CFI (cfiCond80) ?RET_HIGH load(1, XDATA, add(CFA_XSP16, literal(-4)))
        CFI (cfiCond80) ?BRET_EXT load(1, XDATA, add(CFA_XSP16, literal(-3)))
        CFI (cfiCond80) DPL0 load(1, XDATA, add(CFA_XSP16, literal(-2)))
        CFI (cfiCond80) DPH0 load(1, XDATA, add(CFA_XSP16, literal(-1)))
        CFI (cfiCond80) CFA_SP SP+0
        CFI (cfiCond80) CFA_XSP16 add(XSP16, 21)
        CFI Block cfiCond81 Using cfiCommon0
        CFI (cfiCond81) NoFunction
        CFI (cfiCond81) Conditional ??CrossCallReturnLabel_112
        CFI (cfiCond81) R6 load(1, XDATA, add(CFA_XSP16, literal(-12)))
        CFI (cfiCond81) VB load(1, XDATA, add(CFA_XSP16, literal(-11)))
        CFI (cfiCond81) V0 load(1, XDATA, add(CFA_XSP16, literal(-10)))
        CFI (cfiCond81) V1 load(1, XDATA, add(CFA_XSP16, literal(-9)))
        CFI (cfiCond81) V2 load(1, XDATA, add(CFA_XSP16, literal(-8)))
        CFI (cfiCond81) V3 load(1, XDATA, add(CFA_XSP16, literal(-7)))
        CFI (cfiCond81) R7 load(1, XDATA, add(CFA_XSP16, literal(-6)))
        CFI (cfiCond81) ?RET_LOW load(1, XDATA, add(CFA_XSP16, literal(-5)))
        CFI (cfiCond81) ?RET_HIGH load(1, XDATA, add(CFA_XSP16, literal(-4)))
        CFI (cfiCond81) ?BRET_EXT load(1, XDATA, add(CFA_XSP16, literal(-3)))
        CFI (cfiCond81) DPL0 load(1, XDATA, add(CFA_XSP16, literal(-2)))
        CFI (cfiCond81) DPH0 load(1, XDATA, add(CFA_XSP16, literal(-1)))
        CFI (cfiCond81) CFA_SP SP+0
        CFI (cfiCond81) CFA_XSP16 add(XSP16, 26)
        CFI Block cfiPicker82 Using cfiCommon1
        CFI (cfiPicker82) NoFunction
        CFI (cfiPicker82) Picker
        MOV     R1,#0x20
        MOV     R4,#SampleApp_epDesc & 0xff
        MOV     R5,#(SampleApp_epDesc >> 8) & 0xff
        MOV     R2,#Point_To_Point_DstAddr & 0xff
        MOV     R3,#(Point_To_Point_DstAddr >> 8) & 0xff
        CFI EndBlock cfiCond76
        CFI EndBlock cfiCond77
        CFI EndBlock cfiCond78
        CFI EndBlock cfiCond79
        CFI EndBlock cfiCond80
        CFI EndBlock cfiCond81
        CFI EndBlock cfiPicker82
        REQUIRE ??Subroutine65_0
        ; // Fall through to label ??Subroutine65_0

        RSEG BANKED_CODE:CODE:NOROOT(0)
??Subroutine65_0:
        CFI Block cfiCond83 Using cfiCommon0
        CFI NoFunction
        CFI Conditional ??CrossCallReturnLabel_113
        CFI R6 load(1, XDATA, add(CFA_XSP16, literal(-10)))
        CFI VB load(1, XDATA, add(CFA_XSP16, literal(-9)))
        CFI V0 load(1, XDATA, add(CFA_XSP16, literal(-8)))
        CFI V1 load(1, XDATA, add(CFA_XSP16, literal(-7)))
        CFI R7 load(1, XDATA, add(CFA_XSP16, literal(-6)))
        CFI ?RET_LOW load(1, XDATA, add(CFA_XSP16, literal(-5)))
        CFI ?RET_HIGH load(1, XDATA, add(CFA_XSP16, literal(-4)))
        CFI ?BRET_EXT load(1, XDATA, add(CFA_XSP16, literal(-3)))
        CFI DPL0 load(1, XDATA, add(CFA_XSP16, literal(-2)))
        CFI DPH0 load(1, XDATA, add(CFA_XSP16, literal(-1)))
        CFI CFA_SP SP+0
        CFI CFA_XSP16 add(XSP16, 19)
        CFI Block cfiCond84 Using cfiCommon0
        CFI (cfiCond84) NoFunction
        CFI (cfiCond84) Conditional ??CrossCallReturnLabel_114
        CFI (cfiCond84) R6 load(1, XDATA, add(CFA_XSP16, literal(-10)))
        CFI (cfiCond84) VB load(1, XDATA, add(CFA_XSP16, literal(-9)))
        CFI (cfiCond84) V0 load(1, XDATA, add(CFA_XSP16, literal(-8)))
        CFI (cfiCond84) V1 load(1, XDATA, add(CFA_XSP16, literal(-7)))
        CFI (cfiCond84) R7 load(1, XDATA, add(CFA_XSP16, literal(-6)))
        CFI (cfiCond84) ?RET_LOW load(1, XDATA, add(CFA_XSP16, literal(-5)))
        CFI (cfiCond84) ?RET_HIGH load(1, XDATA, add(CFA_XSP16, literal(-4)))
        CFI (cfiCond84) ?BRET_EXT load(1, XDATA, add(CFA_XSP16, literal(-3)))
        CFI (cfiCond84) DPL0 load(1, XDATA, add(CFA_XSP16, literal(-2)))
        CFI (cfiCond84) DPH0 load(1, XDATA, add(CFA_XSP16, literal(-1)))
        CFI (cfiCond84) CFA_SP SP+0
        CFI (cfiCond84) CFA_XSP16 add(XSP16, 19)
        CFI Block cfiCond85 Using cfiCommon0
        CFI (cfiCond85) NoFunction
        CFI (cfiCond85) Conditional ??CrossCallReturnLabel_115
        CFI (cfiCond85) R6 load(1, XDATA, add(CFA_XSP16, literal(-10)))
        CFI (cfiCond85) VB load(1, XDATA, add(CFA_XSP16, literal(-9)))
        CFI (cfiCond85) V0 load(1, XDATA, add(CFA_XSP16, literal(-8)))
        CFI (cfiCond85) V1 load(1, XDATA, add(CFA_XSP16, literal(-7)))
        CFI (cfiCond85) R7 load(1, XDATA, add(CFA_XSP16, literal(-6)))
        CFI (cfiCond85) ?RET_LOW load(1, XDATA, add(CFA_XSP16, literal(-5)))
        CFI (cfiCond85) ?RET_HIGH load(1, XDATA, add(CFA_XSP16, literal(-4)))
        CFI (cfiCond85) ?BRET_EXT load(1, XDATA, add(CFA_XSP16, literal(-3)))
        CFI (cfiCond85) DPL0 load(1, XDATA, add(CFA_XSP16, literal(-2)))
        CFI (cfiCond85) DPH0 load(1, XDATA, add(CFA_XSP16, literal(-1)))
        CFI (cfiCond85) CFA_SP SP+0
        CFI (cfiCond85) CFA_XSP16 add(XSP16, 22)
        CFI Block cfiCond86 Using cfiCommon0
        CFI (cfiCond86) NoFunction
        CFI (cfiCond86) Conditional ??CrossCallReturnLabel_107
        CFI (cfiCond86) R6 load(1, XDATA, add(CFA_XSP16, literal(-20)))
        CFI (cfiCond86) VB load(1, XDATA, add(CFA_XSP16, literal(-19)))
        CFI (cfiCond86) V0 load(1, XDATA, add(CFA_XSP16, literal(-18)))
        CFI (cfiCond86) V1 load(1, XDATA, add(CFA_XSP16, literal(-17)))
        CFI (cfiCond86) V2 load(1, XDATA, add(CFA_XSP16, literal(-16)))
        CFI (cfiCond86) V3 load(1, XDATA, add(CFA_XSP16, literal(-15)))
        CFI (cfiCond86) V4 load(1, XDATA, add(CFA_XSP16, literal(-14)))
        CFI (cfiCond86) V5 load(1, XDATA, add(CFA_XSP16, literal(-13)))
        CFI (cfiCond86) V6 load(1, XDATA, add(CFA_XSP16, literal(-12)))
        CFI (cfiCond86) V7 load(1, XDATA, add(CFA_XSP16, literal(-11)))
        CFI (cfiCond86) V8 load(1, XDATA, add(CFA_XSP16, literal(-10)))
        CFI (cfiCond86) V9 load(1, XDATA, add(CFA_XSP16, literal(-9)))
        CFI (cfiCond86) V10 load(1, XDATA, add(CFA_XSP16, literal(-8)))
        CFI (cfiCond86) V11 load(1, XDATA, add(CFA_XSP16, literal(-7)))
        CFI (cfiCond86) R7 load(1, XDATA, add(CFA_XSP16, literal(-6)))
        CFI (cfiCond86) ?RET_LOW load(1, XDATA, add(CFA_XSP16, literal(-5)))
        CFI (cfiCond86) ?RET_HIGH load(1, XDATA, add(CFA_XSP16, literal(-4)))
        CFI (cfiCond86) ?BRET_EXT load(1, XDATA, add(CFA_XSP16, literal(-3)))
        CFI (cfiCond86) DPL0 load(1, XDATA, add(CFA_XSP16, literal(-2)))
        CFI (cfiCond86) DPH0 load(1, XDATA, add(CFA_XSP16, literal(-1)))
        CFI (cfiCond86) CFA_SP SP+0
        CFI (cfiCond86) CFA_XSP16 add(XSP16, 42)
        CFI Block cfiCond87 Using cfiCommon0
        CFI (cfiCond87) NoFunction
        CFI (cfiCond87) Conditional ??CrossCallReturnLabel_108
        CFI (cfiCond87) R6 load(1, XDATA, add(CFA_XSP16, literal(-20)))
        CFI (cfiCond87) VB load(1, XDATA, add(CFA_XSP16, literal(-19)))
        CFI (cfiCond87) V0 load(1, XDATA, add(CFA_XSP16, literal(-18)))
        CFI (cfiCond87) V1 load(1, XDATA, add(CFA_XSP16, literal(-17)))
        CFI (cfiCond87) V2 load(1, XDATA, add(CFA_XSP16, literal(-16)))
        CFI (cfiCond87) V3 load(1, XDATA, add(CFA_XSP16, literal(-15)))
        CFI (cfiCond87) V4 load(1, XDATA, add(CFA_XSP16, literal(-14)))
        CFI (cfiCond87) V5 load(1, XDATA, add(CFA_XSP16, literal(-13)))
        CFI (cfiCond87) V6 load(1, XDATA, add(CFA_XSP16, literal(-12)))
        CFI (cfiCond87) V7 load(1, XDATA, add(CFA_XSP16, literal(-11)))
        CFI (cfiCond87) V8 load(1, XDATA, add(CFA_XSP16, literal(-10)))
        CFI (cfiCond87) V9 load(1, XDATA, add(CFA_XSP16, literal(-9)))
        CFI (cfiCond87) V10 load(1, XDATA, add(CFA_XSP16, literal(-8)))
        CFI (cfiCond87) V11 load(1, XDATA, add(CFA_XSP16, literal(-7)))
        CFI (cfiCond87) R7 load(1, XDATA, add(CFA_XSP16, literal(-6)))
        CFI (cfiCond87) ?RET_LOW load(1, XDATA, add(CFA_XSP16, literal(-5)))
        CFI (cfiCond87) ?RET_HIGH load(1, XDATA, add(CFA_XSP16, literal(-4)))
        CFI (cfiCond87) ?BRET_EXT load(1, XDATA, add(CFA_XSP16, literal(-3)))
        CFI (cfiCond87) DPL0 load(1, XDATA, add(CFA_XSP16, literal(-2)))
        CFI (cfiCond87) DPH0 load(1, XDATA, add(CFA_XSP16, literal(-1)))
        CFI (cfiCond87) CFA_SP SP+0
        CFI (cfiCond87) CFA_XSP16 add(XSP16, 42)
        CFI Block cfiCond88 Using cfiCommon0
        CFI (cfiCond88) NoFunction
        CFI (cfiCond88) Conditional ??CrossCallReturnLabel_109
        CFI (cfiCond88) R6 load(1, XDATA, add(CFA_XSP16, literal(-20)))
        CFI (cfiCond88) VB load(1, XDATA, add(CFA_XSP16, literal(-19)))
        CFI (cfiCond88) V0 load(1, XDATA, add(CFA_XSP16, literal(-18)))
        CFI (cfiCond88) V1 load(1, XDATA, add(CFA_XSP16, literal(-17)))
        CFI (cfiCond88) V2 load(1, XDATA, add(CFA_XSP16, literal(-16)))
        CFI (cfiCond88) V3 load(1, XDATA, add(CFA_XSP16, literal(-15)))
        CFI (cfiCond88) V4 load(1, XDATA, add(CFA_XSP16, literal(-14)))
        CFI (cfiCond88) V5 load(1, XDATA, add(CFA_XSP16, literal(-13)))
        CFI (cfiCond88) V6 load(1, XDATA, add(CFA_XSP16, literal(-12)))
        CFI (cfiCond88) V7 load(1, XDATA, add(CFA_XSP16, literal(-11)))
        CFI (cfiCond88) V8 load(1, XDATA, add(CFA_XSP16, literal(-10)))
        CFI (cfiCond88) V9 load(1, XDATA, add(CFA_XSP16, literal(-9)))
        CFI (cfiCond88) V10 load(1, XDATA, add(CFA_XSP16, literal(-8)))
        CFI (cfiCond88) V11 load(1, XDATA, add(CFA_XSP16, literal(-7)))
        CFI (cfiCond88) R7 load(1, XDATA, add(CFA_XSP16, literal(-6)))
        CFI (cfiCond88) ?RET_LOW load(1, XDATA, add(CFA_XSP16, literal(-5)))
        CFI (cfiCond88) ?RET_HIGH load(1, XDATA, add(CFA_XSP16, literal(-4)))
        CFI (cfiCond88) ?BRET_EXT load(1, XDATA, add(CFA_XSP16, literal(-3)))
        CFI (cfiCond88) DPL0 load(1, XDATA, add(CFA_XSP16, literal(-2)))
        CFI (cfiCond88) DPH0 load(1, XDATA, add(CFA_XSP16, literal(-1)))
        CFI (cfiCond88) CFA_SP SP+0
        CFI (cfiCond88) CFA_XSP16 add(XSP16, 42)
        CFI Block cfiCond89 Using cfiCommon0
        CFI (cfiCond89) NoFunction
        CFI (cfiCond89) Conditional ??CrossCallReturnLabel_110
        CFI (cfiCond89) R6 load(1, XDATA, add(CFA_XSP16, literal(-20)))
        CFI (cfiCond89) VB load(1, XDATA, add(CFA_XSP16, literal(-19)))
        CFI (cfiCond89) V0 load(1, XDATA, add(CFA_XSP16, literal(-18)))
        CFI (cfiCond89) V1 load(1, XDATA, add(CFA_XSP16, literal(-17)))
        CFI (cfiCond89) V2 load(1, XDATA, add(CFA_XSP16, literal(-16)))
        CFI (cfiCond89) V3 load(1, XDATA, add(CFA_XSP16, literal(-15)))
        CFI (cfiCond89) V4 load(1, XDATA, add(CFA_XSP16, literal(-14)))
        CFI (cfiCond89) V5 load(1, XDATA, add(CFA_XSP16, literal(-13)))
        CFI (cfiCond89) V6 load(1, XDATA, add(CFA_XSP16, literal(-12)))
        CFI (cfiCond89) V7 load(1, XDATA, add(CFA_XSP16, literal(-11)))
        CFI (cfiCond89) V8 load(1, XDATA, add(CFA_XSP16, literal(-10)))
        CFI (cfiCond89) V9 load(1, XDATA, add(CFA_XSP16, literal(-9)))
        CFI (cfiCond89) V10 load(1, XDATA, add(CFA_XSP16, literal(-8)))
        CFI (cfiCond89) V11 load(1, XDATA, add(CFA_XSP16, literal(-7)))
        CFI (cfiCond89) R7 load(1, XDATA, add(CFA_XSP16, literal(-6)))
        CFI (cfiCond89) ?RET_LOW load(1, XDATA, add(CFA_XSP16, literal(-5)))
        CFI (cfiCond89) ?RET_HIGH load(1, XDATA, add(CFA_XSP16, literal(-4)))
        CFI (cfiCond89) ?BRET_EXT load(1, XDATA, add(CFA_XSP16, literal(-3)))
        CFI (cfiCond89) DPL0 load(1, XDATA, add(CFA_XSP16, literal(-2)))
        CFI (cfiCond89) DPH0 load(1, XDATA, add(CFA_XSP16, literal(-1)))
        CFI (cfiCond89) CFA_SP SP+0
        CFI (cfiCond89) CFA_XSP16 add(XSP16, 42)
        CFI Block cfiCond90 Using cfiCommon0
        CFI (cfiCond90) NoFunction
        CFI (cfiCond90) Conditional ??CrossCallReturnLabel_111
        CFI (cfiCond90) R6 load(1, XDATA, add(CFA_XSP16, literal(-10)))
        CFI (cfiCond90) VB load(1, XDATA, add(CFA_XSP16, literal(-9)))
        CFI (cfiCond90) V0 load(1, XDATA, add(CFA_XSP16, literal(-8)))
        CFI (cfiCond90) V1 load(1, XDATA, add(CFA_XSP16, literal(-7)))
        CFI (cfiCond90) R7 load(1, XDATA, add(CFA_XSP16, literal(-6)))
        CFI (cfiCond90) ?RET_LOW load(1, XDATA, add(CFA_XSP16, literal(-5)))
        CFI (cfiCond90) ?RET_HIGH load(1, XDATA, add(CFA_XSP16, literal(-4)))
        CFI (cfiCond90) ?BRET_EXT load(1, XDATA, add(CFA_XSP16, literal(-3)))
        CFI (cfiCond90) DPL0 load(1, XDATA, add(CFA_XSP16, literal(-2)))
        CFI (cfiCond90) DPH0 load(1, XDATA, add(CFA_XSP16, literal(-1)))
        CFI (cfiCond90) CFA_SP SP+0
        CFI (cfiCond90) CFA_XSP16 add(XSP16, 21)
        CFI Block cfiCond91 Using cfiCommon0
        CFI (cfiCond91) NoFunction
        CFI (cfiCond91) Conditional ??CrossCallReturnLabel_112
        CFI (cfiCond91) R6 load(1, XDATA, add(CFA_XSP16, literal(-12)))
        CFI (cfiCond91) VB load(1, XDATA, add(CFA_XSP16, literal(-11)))
        CFI (cfiCond91) V0 load(1, XDATA, add(CFA_XSP16, literal(-10)))
        CFI (cfiCond91) V1 load(1, XDATA, add(CFA_XSP16, literal(-9)))
        CFI (cfiCond91) V2 load(1, XDATA, add(CFA_XSP16, literal(-8)))
        CFI (cfiCond91) V3 load(1, XDATA, add(CFA_XSP16, literal(-7)))
        CFI (cfiCond91) R7 load(1, XDATA, add(CFA_XSP16, literal(-6)))
        CFI (cfiCond91) ?RET_LOW load(1, XDATA, add(CFA_XSP16, literal(-5)))
        CFI (cfiCond91) ?RET_HIGH load(1, XDATA, add(CFA_XSP16, literal(-4)))
        CFI (cfiCond91) ?BRET_EXT load(1, XDATA, add(CFA_XSP16, literal(-3)))
        CFI (cfiCond91) DPL0 load(1, XDATA, add(CFA_XSP16, literal(-2)))
        CFI (cfiCond91) DPH0 load(1, XDATA, add(CFA_XSP16, literal(-1)))
        CFI (cfiCond91) CFA_SP SP+0
        CFI (cfiCond91) CFA_XSP16 add(XSP16, 26)
        CFI Block cfiPicker92 Using cfiCommon1
        CFI (cfiPicker92) NoFunction
        CFI (cfiPicker92) Picker
        LCALL   ??AF_DataRequest?relay
        MOV     A,#0x9
        RET
        CFI EndBlock cfiCond83
        CFI EndBlock cfiCond84
        CFI EndBlock cfiCond85
        CFI EndBlock cfiCond86
        CFI EndBlock cfiCond87
        CFI EndBlock cfiCond88
        CFI EndBlock cfiCond89
        CFI EndBlock cfiCond90
        CFI EndBlock cfiCond91
        CFI EndBlock cfiPicker92

        RSEG BANKED_CODE:CODE:NOROOT(0)
?Subroutine33:
        CFI Block cfiCond93 Using cfiCommon0
        CFI NoFunction
        CFI Conditional ??CrossCallReturnLabel_117
        CFI R6 load(1, XDATA, add(CFA_XSP16, literal(-20)))
        CFI VB load(1, XDATA, add(CFA_XSP16, literal(-19)))
        CFI V0 load(1, XDATA, add(CFA_XSP16, literal(-18)))
        CFI V1 load(1, XDATA, add(CFA_XSP16, literal(-17)))
        CFI V2 load(1, XDATA, add(CFA_XSP16, literal(-16)))
        CFI V3 load(1, XDATA, add(CFA_XSP16, literal(-15)))
        CFI V4 load(1, XDATA, add(CFA_XSP16, literal(-14)))
        CFI V5 load(1, XDATA, add(CFA_XSP16, literal(-13)))
        CFI V6 load(1, XDATA, add(CFA_XSP16, literal(-12)))
        CFI V7 load(1, XDATA, add(CFA_XSP16, literal(-11)))
        CFI V8 load(1, XDATA, add(CFA_XSP16, literal(-10)))
        CFI V9 load(1, XDATA, add(CFA_XSP16, literal(-9)))
        CFI V10 load(1, XDATA, add(CFA_XSP16, literal(-8)))
        CFI V11 load(1, XDATA, add(CFA_XSP16, literal(-7)))
        CFI R7 load(1, XDATA, add(CFA_XSP16, literal(-6)))
        CFI ?RET_LOW load(1, XDATA, add(CFA_XSP16, literal(-5)))
        CFI ?RET_HIGH load(1, XDATA, add(CFA_XSP16, literal(-4)))
        CFI ?BRET_EXT load(1, XDATA, add(CFA_XSP16, literal(-3)))
        CFI DPL0 load(1, XDATA, add(CFA_XSP16, literal(-2)))
        CFI DPH0 load(1, XDATA, add(CFA_XSP16, literal(-1)))
        CFI CFA_SP SP+0
        CFI CFA_XSP16 add(XSP16, 33)
        CFI Block cfiCond94 Using cfiCommon0
        CFI (cfiCond94) NoFunction
        CFI (cfiCond94) Conditional ??CrossCallReturnLabel_118
        CFI (cfiCond94) R6 load(1, XDATA, add(CFA_XSP16, literal(-20)))
        CFI (cfiCond94) VB load(1, XDATA, add(CFA_XSP16, literal(-19)))
        CFI (cfiCond94) V0 load(1, XDATA, add(CFA_XSP16, literal(-18)))
        CFI (cfiCond94) V1 load(1, XDATA, add(CFA_XSP16, literal(-17)))
        CFI (cfiCond94) V2 load(1, XDATA, add(CFA_XSP16, literal(-16)))
        CFI (cfiCond94) V3 load(1, XDATA, add(CFA_XSP16, literal(-15)))
        CFI (cfiCond94) V4 load(1, XDATA, add(CFA_XSP16, literal(-14)))
        CFI (cfiCond94) V5 load(1, XDATA, add(CFA_XSP16, literal(-13)))
        CFI (cfiCond94) V6 load(1, XDATA, add(CFA_XSP16, literal(-12)))
        CFI (cfiCond94) V7 load(1, XDATA, add(CFA_XSP16, literal(-11)))
        CFI (cfiCond94) V8 load(1, XDATA, add(CFA_XSP16, literal(-10)))
        CFI (cfiCond94) V9 load(1, XDATA, add(CFA_XSP16, literal(-9)))
        CFI (cfiCond94) V10 load(1, XDATA, add(CFA_XSP16, literal(-8)))
        CFI (cfiCond94) V11 load(1, XDATA, add(CFA_XSP16, literal(-7)))
        CFI (cfiCond94) R7 load(1, XDATA, add(CFA_XSP16, literal(-6)))
        CFI (cfiCond94) ?RET_LOW load(1, XDATA, add(CFA_XSP16, literal(-5)))
        CFI (cfiCond94) ?RET_HIGH load(1, XDATA, add(CFA_XSP16, literal(-4)))
        CFI (cfiCond94) ?BRET_EXT load(1, XDATA, add(CFA_XSP16, literal(-3)))
        CFI (cfiCond94) DPL0 load(1, XDATA, add(CFA_XSP16, literal(-2)))
        CFI (cfiCond94) DPH0 load(1, XDATA, add(CFA_XSP16, literal(-1)))
        CFI (cfiCond94) CFA_SP SP+0
        CFI (cfiCond94) CFA_XSP16 add(XSP16, 33)
        CFI Block cfiPicker95 Using cfiCommon1
        CFI (cfiPicker95) NoFunction
        CFI (cfiPicker95) Picker
        MOV     DPTR,#LIFE_TIME
        CFI EndBlock cfiCond93
        CFI EndBlock cfiCond94
        CFI EndBlock cfiPicker95
        REQUIRE ??Subroutine66_0
        ; // Fall through to label ??Subroutine66_0

        RSEG BANKED_CODE:CODE:NOROOT(0)
??Subroutine66_0:
        CFI Block cfiCond96 Using cfiCommon0
        CFI NoFunction
        CFI Conditional ??CrossCallReturnLabel_116
        CFI R6 load(1, XDATA, add(CFA_XSP16, literal(-12)))
        CFI VB load(1, XDATA, add(CFA_XSP16, literal(-11)))
        CFI V0 load(1, XDATA, add(CFA_XSP16, literal(-10)))
        CFI V1 load(1, XDATA, add(CFA_XSP16, literal(-9)))
        CFI V2 load(1, XDATA, add(CFA_XSP16, literal(-8)))
        CFI V3 load(1, XDATA, add(CFA_XSP16, literal(-7)))
        CFI R7 load(1, XDATA, add(CFA_XSP16, literal(-6)))
        CFI ?RET_LOW load(1, XDATA, add(CFA_XSP16, literal(-5)))
        CFI ?RET_HIGH load(1, XDATA, add(CFA_XSP16, literal(-4)))
        CFI ?BRET_EXT load(1, XDATA, add(CFA_XSP16, literal(-3)))
        CFI DPL0 load(1, XDATA, add(CFA_XSP16, literal(-2)))
        CFI DPH0 load(1, XDATA, add(CFA_XSP16, literal(-1)))
        CFI CFA_SP SP+0
        CFI CFA_XSP16 add(XSP16, 17)
        CFI Block cfiCond97 Using cfiCommon0
        CFI (cfiCond97) NoFunction
        CFI (cfiCond97) Conditional ??CrossCallReturnLabel_117
        CFI (cfiCond97) R6 load(1, XDATA, add(CFA_XSP16, literal(-20)))
        CFI (cfiCond97) VB load(1, XDATA, add(CFA_XSP16, literal(-19)))
        CFI (cfiCond97) V0 load(1, XDATA, add(CFA_XSP16, literal(-18)))
        CFI (cfiCond97) V1 load(1, XDATA, add(CFA_XSP16, literal(-17)))
        CFI (cfiCond97) V2 load(1, XDATA, add(CFA_XSP16, literal(-16)))
        CFI (cfiCond97) V3 load(1, XDATA, add(CFA_XSP16, literal(-15)))
        CFI (cfiCond97) V4 load(1, XDATA, add(CFA_XSP16, literal(-14)))
        CFI (cfiCond97) V5 load(1, XDATA, add(CFA_XSP16, literal(-13)))
        CFI (cfiCond97) V6 load(1, XDATA, add(CFA_XSP16, literal(-12)))
        CFI (cfiCond97) V7 load(1, XDATA, add(CFA_XSP16, literal(-11)))
        CFI (cfiCond97) V8 load(1, XDATA, add(CFA_XSP16, literal(-10)))
        CFI (cfiCond97) V9 load(1, XDATA, add(CFA_XSP16, literal(-9)))
        CFI (cfiCond97) V10 load(1, XDATA, add(CFA_XSP16, literal(-8)))
        CFI (cfiCond97) V11 load(1, XDATA, add(CFA_XSP16, literal(-7)))
        CFI (cfiCond97) R7 load(1, XDATA, add(CFA_XSP16, literal(-6)))
        CFI (cfiCond97) ?RET_LOW load(1, XDATA, add(CFA_XSP16, literal(-5)))
        CFI (cfiCond97) ?RET_HIGH load(1, XDATA, add(CFA_XSP16, literal(-4)))
        CFI (cfiCond97) ?BRET_EXT load(1, XDATA, add(CFA_XSP16, literal(-3)))
        CFI (cfiCond97) DPL0 load(1, XDATA, add(CFA_XSP16, literal(-2)))
        CFI (cfiCond97) DPH0 load(1, XDATA, add(CFA_XSP16, literal(-1)))
        CFI (cfiCond97) CFA_SP SP+0
        CFI (cfiCond97) CFA_XSP16 add(XSP16, 33)
        CFI Block cfiCond98 Using cfiCommon0
        CFI (cfiCond98) NoFunction
        CFI (cfiCond98) Conditional ??CrossCallReturnLabel_118
        CFI (cfiCond98) R6 load(1, XDATA, add(CFA_XSP16, literal(-20)))
        CFI (cfiCond98) VB load(1, XDATA, add(CFA_XSP16, literal(-19)))
        CFI (cfiCond98) V0 load(1, XDATA, add(CFA_XSP16, literal(-18)))
        CFI (cfiCond98) V1 load(1, XDATA, add(CFA_XSP16, literal(-17)))
        CFI (cfiCond98) V2 load(1, XDATA, add(CFA_XSP16, literal(-16)))
        CFI (cfiCond98) V3 load(1, XDATA, add(CFA_XSP16, literal(-15)))
        CFI (cfiCond98) V4 load(1, XDATA, add(CFA_XSP16, literal(-14)))
        CFI (cfiCond98) V5 load(1, XDATA, add(CFA_XSP16, literal(-13)))
        CFI (cfiCond98) V6 load(1, XDATA, add(CFA_XSP16, literal(-12)))
        CFI (cfiCond98) V7 load(1, XDATA, add(CFA_XSP16, literal(-11)))
        CFI (cfiCond98) V8 load(1, XDATA, add(CFA_XSP16, literal(-10)))
        CFI (cfiCond98) V9 load(1, XDATA, add(CFA_XSP16, literal(-9)))
        CFI (cfiCond98) V10 load(1, XDATA, add(CFA_XSP16, literal(-8)))
        CFI (cfiCond98) V11 load(1, XDATA, add(CFA_XSP16, literal(-7)))
        CFI (cfiCond98) R7 load(1, XDATA, add(CFA_XSP16, literal(-6)))
        CFI (cfiCond98) ?RET_LOW load(1, XDATA, add(CFA_XSP16, literal(-5)))
        CFI (cfiCond98) ?RET_HIGH load(1, XDATA, add(CFA_XSP16, literal(-4)))
        CFI (cfiCond98) ?BRET_EXT load(1, XDATA, add(CFA_XSP16, literal(-3)))
        CFI (cfiCond98) DPL0 load(1, XDATA, add(CFA_XSP16, literal(-2)))
        CFI (cfiCond98) DPH0 load(1, XDATA, add(CFA_XSP16, literal(-1)))
        CFI (cfiCond98) CFA_SP SP+0
        CFI (cfiCond98) CFA_XSP16 add(XSP16, 33)
        CFI Block cfiPicker99 Using cfiCommon1
        CFI (cfiPicker99) NoFunction
        CFI (cfiPicker99) Picker
        MOVX    A,@DPTR
        MOV     R2,A
        RLC     A
        SUBB    A,0xE0 /* A   */
        MOV     R3,A
        RET
        CFI EndBlock cfiCond96
        CFI EndBlock cfiCond97
        CFI EndBlock cfiCond98
        CFI EndBlock cfiPicker99

        RSEG BANKED_CODE:CODE:NOROOT(0)
?Subroutine32:
        CFI Block cfiCond100 Using cfiCommon0
        CFI NoFunction
        CFI Conditional ??CrossCallReturnLabel_122
        CFI R6 load(1, XDATA, add(CFA_XSP16, literal(-20)))
        CFI VB load(1, XDATA, add(CFA_XSP16, literal(-19)))
        CFI V0 load(1, XDATA, add(CFA_XSP16, literal(-18)))
        CFI V1 load(1, XDATA, add(CFA_XSP16, literal(-17)))
        CFI V2 load(1, XDATA, add(CFA_XSP16, literal(-16)))
        CFI V3 load(1, XDATA, add(CFA_XSP16, literal(-15)))
        CFI V4 load(1, XDATA, add(CFA_XSP16, literal(-14)))
        CFI V5 load(1, XDATA, add(CFA_XSP16, literal(-13)))
        CFI V6 load(1, XDATA, add(CFA_XSP16, literal(-12)))
        CFI V7 load(1, XDATA, add(CFA_XSP16, literal(-11)))
        CFI V8 load(1, XDATA, add(CFA_XSP16, literal(-10)))
        CFI V9 load(1, XDATA, add(CFA_XSP16, literal(-9)))
        CFI V10 load(1, XDATA, add(CFA_XSP16, literal(-8)))
        CFI V11 load(1, XDATA, add(CFA_XSP16, literal(-7)))
        CFI R7 load(1, XDATA, add(CFA_XSP16, literal(-6)))
        CFI ?RET_LOW load(1, XDATA, add(CFA_XSP16, literal(-5)))
        CFI ?RET_HIGH load(1, XDATA, add(CFA_XSP16, literal(-4)))
        CFI ?BRET_EXT load(1, XDATA, add(CFA_XSP16, literal(-3)))
        CFI DPL0 load(1, XDATA, add(CFA_XSP16, literal(-2)))
        CFI DPH0 load(1, XDATA, add(CFA_XSP16, literal(-1)))
        CFI CFA_SP SP+0
        CFI CFA_XSP16 add(XSP16, 33)
        CFI Block cfiCond101 Using cfiCommon0
        CFI (cfiCond101) NoFunction
        CFI (cfiCond101) Conditional ??CrossCallReturnLabel_123
        CFI (cfiCond101) R6 load(1, XDATA, add(CFA_XSP16, literal(-20)))
        CFI (cfiCond101) VB load(1, XDATA, add(CFA_XSP16, literal(-19)))
        CFI (cfiCond101) V0 load(1, XDATA, add(CFA_XSP16, literal(-18)))
        CFI (cfiCond101) V1 load(1, XDATA, add(CFA_XSP16, literal(-17)))
        CFI (cfiCond101) V2 load(1, XDATA, add(CFA_XSP16, literal(-16)))
        CFI (cfiCond101) V3 load(1, XDATA, add(CFA_XSP16, literal(-15)))
        CFI (cfiCond101) V4 load(1, XDATA, add(CFA_XSP16, literal(-14)))
        CFI (cfiCond101) V5 load(1, XDATA, add(CFA_XSP16, literal(-13)))
        CFI (cfiCond101) V6 load(1, XDATA, add(CFA_XSP16, literal(-12)))
        CFI (cfiCond101) V7 load(1, XDATA, add(CFA_XSP16, literal(-11)))
        CFI (cfiCond101) V8 load(1, XDATA, add(CFA_XSP16, literal(-10)))
        CFI (cfiCond101) V9 load(1, XDATA, add(CFA_XSP16, literal(-9)))
        CFI (cfiCond101) V10 load(1, XDATA, add(CFA_XSP16, literal(-8)))
        CFI (cfiCond101) V11 load(1, XDATA, add(CFA_XSP16, literal(-7)))
        CFI (cfiCond101) R7 load(1, XDATA, add(CFA_XSP16, literal(-6)))
        CFI (cfiCond101) ?RET_LOW load(1, XDATA, add(CFA_XSP16, literal(-5)))
        CFI (cfiCond101) ?RET_HIGH load(1, XDATA, add(CFA_XSP16, literal(-4)))
        CFI (cfiCond101) ?BRET_EXT load(1, XDATA, add(CFA_XSP16, literal(-3)))
        CFI (cfiCond101) DPL0 load(1, XDATA, add(CFA_XSP16, literal(-2)))
        CFI (cfiCond101) DPH0 load(1, XDATA, add(CFA_XSP16, literal(-1)))
        CFI (cfiCond101) CFA_SP SP+0
        CFI (cfiCond101) CFA_XSP16 add(XSP16, 33)
        CFI Block cfiPicker102 Using cfiCommon1
        CFI (cfiPicker102) NoFunction
        CFI (cfiPicker102) Picker
        MOV     R1,A
        MOV     DPL,R0
        MOV     DPH,R1
        CFI EndBlock cfiCond100
        CFI EndBlock cfiCond101
        CFI EndBlock cfiPicker102
        REQUIRE ??Subroutine67_0
        ; // Fall through to label ??Subroutine67_0

        RSEG BANKED_CODE:CODE:NOROOT(0)
??Subroutine67_0:
        CFI Block cfiCond103 Using cfiCommon0
        CFI NoFunction
        CFI Conditional ??CrossCallReturnLabel_119
        CFI R6 load(1, XDATA, add(CFA_XSP16, literal(-12)))
        CFI VB load(1, XDATA, add(CFA_XSP16, literal(-11)))
        CFI V0 load(1, XDATA, add(CFA_XSP16, literal(-10)))
        CFI V1 load(1, XDATA, add(CFA_XSP16, literal(-9)))
        CFI V2 load(1, XDATA, add(CFA_XSP16, literal(-8)))
        CFI V3 load(1, XDATA, add(CFA_XSP16, literal(-7)))
        CFI R7 load(1, XDATA, add(CFA_XSP16, literal(-6)))
        CFI ?RET_LOW load(1, XDATA, add(CFA_XSP16, literal(-5)))
        CFI ?RET_HIGH load(1, XDATA, add(CFA_XSP16, literal(-4)))
        CFI ?BRET_EXT load(1, XDATA, add(CFA_XSP16, literal(-3)))
        CFI DPL0 load(1, XDATA, add(CFA_XSP16, literal(-2)))
        CFI DPH0 load(1, XDATA, add(CFA_XSP16, literal(-1)))
        CFI CFA_SP SP+0
        CFI CFA_XSP16 add(XSP16, 12)
        CFI Block cfiCond104 Using cfiCommon0
        CFI (cfiCond104) NoFunction
        CFI (cfiCond104) Conditional ??CrossCallReturnLabel_120
        CFI (cfiCond104) R6 load(1, XDATA, add(CFA_XSP16, literal(-20)))
        CFI (cfiCond104) VB load(1, XDATA, add(CFA_XSP16, literal(-19)))
        CFI (cfiCond104) V0 load(1, XDATA, add(CFA_XSP16, literal(-18)))
        CFI (cfiCond104) V1 load(1, XDATA, add(CFA_XSP16, literal(-17)))
        CFI (cfiCond104) V2 load(1, XDATA, add(CFA_XSP16, literal(-16)))
        CFI (cfiCond104) V3 load(1, XDATA, add(CFA_XSP16, literal(-15)))
        CFI (cfiCond104) V4 load(1, XDATA, add(CFA_XSP16, literal(-14)))
        CFI (cfiCond104) V5 load(1, XDATA, add(CFA_XSP16, literal(-13)))
        CFI (cfiCond104) V6 load(1, XDATA, add(CFA_XSP16, literal(-12)))
        CFI (cfiCond104) V7 load(1, XDATA, add(CFA_XSP16, literal(-11)))
        CFI (cfiCond104) V8 load(1, XDATA, add(CFA_XSP16, literal(-10)))
        CFI (cfiCond104) V9 load(1, XDATA, add(CFA_XSP16, literal(-9)))
        CFI (cfiCond104) V10 load(1, XDATA, add(CFA_XSP16, literal(-8)))
        CFI (cfiCond104) V11 load(1, XDATA, add(CFA_XSP16, literal(-7)))
        CFI (cfiCond104) R7 load(1, XDATA, add(CFA_XSP16, literal(-6)))
        CFI (cfiCond104) ?RET_LOW load(1, XDATA, add(CFA_XSP16, literal(-5)))
        CFI (cfiCond104) ?RET_HIGH load(1, XDATA, add(CFA_XSP16, literal(-4)))
        CFI (cfiCond104) ?BRET_EXT load(1, XDATA, add(CFA_XSP16, literal(-3)))
        CFI (cfiCond104) DPL0 load(1, XDATA, add(CFA_XSP16, literal(-2)))
        CFI (cfiCond104) DPH0 load(1, XDATA, add(CFA_XSP16, literal(-1)))
        CFI (cfiCond104) CFA_SP SP+0
        CFI (cfiCond104) CFA_XSP16 add(XSP16, 33)
        CFI Block cfiCond105 Using cfiCommon0
        CFI (cfiCond105) NoFunction
        CFI (cfiCond105) Conditional ??CrossCallReturnLabel_121
        CFI (cfiCond105) R6 load(1, XDATA, add(CFA_XSP16, literal(-20)))
        CFI (cfiCond105) VB load(1, XDATA, add(CFA_XSP16, literal(-19)))
        CFI (cfiCond105) V0 load(1, XDATA, add(CFA_XSP16, literal(-18)))
        CFI (cfiCond105) V1 load(1, XDATA, add(CFA_XSP16, literal(-17)))
        CFI (cfiCond105) V2 load(1, XDATA, add(CFA_XSP16, literal(-16)))
        CFI (cfiCond105) V3 load(1, XDATA, add(CFA_XSP16, literal(-15)))
        CFI (cfiCond105) V4 load(1, XDATA, add(CFA_XSP16, literal(-14)))
        CFI (cfiCond105) V5 load(1, XDATA, add(CFA_XSP16, literal(-13)))
        CFI (cfiCond105) V6 load(1, XDATA, add(CFA_XSP16, literal(-12)))
        CFI (cfiCond105) V7 load(1, XDATA, add(CFA_XSP16, literal(-11)))
        CFI (cfiCond105) V8 load(1, XDATA, add(CFA_XSP16, literal(-10)))
        CFI (cfiCond105) V9 load(1, XDATA, add(CFA_XSP16, literal(-9)))
        CFI (cfiCond105) V10 load(1, XDATA, add(CFA_XSP16, literal(-8)))
        CFI (cfiCond105) V11 load(1, XDATA, add(CFA_XSP16, literal(-7)))
        CFI (cfiCond105) R7 load(1, XDATA, add(CFA_XSP16, literal(-6)))
        CFI (cfiCond105) ?RET_LOW load(1, XDATA, add(CFA_XSP16, literal(-5)))
        CFI (cfiCond105) ?RET_HIGH load(1, XDATA, add(CFA_XSP16, literal(-4)))
        CFI (cfiCond105) ?BRET_EXT load(1, XDATA, add(CFA_XSP16, literal(-3)))
        CFI (cfiCond105) DPL0 load(1, XDATA, add(CFA_XSP16, literal(-2)))
        CFI (cfiCond105) DPH0 load(1, XDATA, add(CFA_XSP16, literal(-1)))
        CFI (cfiCond105) CFA_SP SP+0
        CFI (cfiCond105) CFA_XSP16 add(XSP16, 33)
        CFI Block cfiCond106 Using cfiCommon0
        CFI (cfiCond106) NoFunction
        CFI (cfiCond106) Conditional ??CrossCallReturnLabel_122
        CFI (cfiCond106) R6 load(1, XDATA, add(CFA_XSP16, literal(-20)))
        CFI (cfiCond106) VB load(1, XDATA, add(CFA_XSP16, literal(-19)))
        CFI (cfiCond106) V0 load(1, XDATA, add(CFA_XSP16, literal(-18)))
        CFI (cfiCond106) V1 load(1, XDATA, add(CFA_XSP16, literal(-17)))
        CFI (cfiCond106) V2 load(1, XDATA, add(CFA_XSP16, literal(-16)))
        CFI (cfiCond106) V3 load(1, XDATA, add(CFA_XSP16, literal(-15)))
        CFI (cfiCond106) V4 load(1, XDATA, add(CFA_XSP16, literal(-14)))
        CFI (cfiCond106) V5 load(1, XDATA, add(CFA_XSP16, literal(-13)))
        CFI (cfiCond106) V6 load(1, XDATA, add(CFA_XSP16, literal(-12)))
        CFI (cfiCond106) V7 load(1, XDATA, add(CFA_XSP16, literal(-11)))
        CFI (cfiCond106) V8 load(1, XDATA, add(CFA_XSP16, literal(-10)))
        CFI (cfiCond106) V9 load(1, XDATA, add(CFA_XSP16, literal(-9)))
        CFI (cfiCond106) V10 load(1, XDATA, add(CFA_XSP16, literal(-8)))
        CFI (cfiCond106) V11 load(1, XDATA, add(CFA_XSP16, literal(-7)))
        CFI (cfiCond106) R7 load(1, XDATA, add(CFA_XSP16, literal(-6)))
        CFI (cfiCond106) ?RET_LOW load(1, XDATA, add(CFA_XSP16, literal(-5)))
        CFI (cfiCond106) ?RET_HIGH load(1, XDATA, add(CFA_XSP16, literal(-4)))
        CFI (cfiCond106) ?BRET_EXT load(1, XDATA, add(CFA_XSP16, literal(-3)))
        CFI (cfiCond106) DPL0 load(1, XDATA, add(CFA_XSP16, literal(-2)))
        CFI (cfiCond106) DPH0 load(1, XDATA, add(CFA_XSP16, literal(-1)))
        CFI (cfiCond106) CFA_SP SP+0
        CFI (cfiCond106) CFA_XSP16 add(XSP16, 33)
        CFI Block cfiCond107 Using cfiCommon0
        CFI (cfiCond107) NoFunction
        CFI (cfiCond107) Conditional ??CrossCallReturnLabel_123
        CFI (cfiCond107) R6 load(1, XDATA, add(CFA_XSP16, literal(-20)))
        CFI (cfiCond107) VB load(1, XDATA, add(CFA_XSP16, literal(-19)))
        CFI (cfiCond107) V0 load(1, XDATA, add(CFA_XSP16, literal(-18)))
        CFI (cfiCond107) V1 load(1, XDATA, add(CFA_XSP16, literal(-17)))
        CFI (cfiCond107) V2 load(1, XDATA, add(CFA_XSP16, literal(-16)))
        CFI (cfiCond107) V3 load(1, XDATA, add(CFA_XSP16, literal(-15)))
        CFI (cfiCond107) V4 load(1, XDATA, add(CFA_XSP16, literal(-14)))
        CFI (cfiCond107) V5 load(1, XDATA, add(CFA_XSP16, literal(-13)))
        CFI (cfiCond107) V6 load(1, XDATA, add(CFA_XSP16, literal(-12)))
        CFI (cfiCond107) V7 load(1, XDATA, add(CFA_XSP16, literal(-11)))
        CFI (cfiCond107) V8 load(1, XDATA, add(CFA_XSP16, literal(-10)))
        CFI (cfiCond107) V9 load(1, XDATA, add(CFA_XSP16, literal(-9)))
        CFI (cfiCond107) V10 load(1, XDATA, add(CFA_XSP16, literal(-8)))
        CFI (cfiCond107) V11 load(1, XDATA, add(CFA_XSP16, literal(-7)))
        CFI (cfiCond107) R7 load(1, XDATA, add(CFA_XSP16, literal(-6)))
        CFI (cfiCond107) ?RET_LOW load(1, XDATA, add(CFA_XSP16, literal(-5)))
        CFI (cfiCond107) ?RET_HIGH load(1, XDATA, add(CFA_XSP16, literal(-4)))
        CFI (cfiCond107) ?BRET_EXT load(1, XDATA, add(CFA_XSP16, literal(-3)))
        CFI (cfiCond107) DPL0 load(1, XDATA, add(CFA_XSP16, literal(-2)))
        CFI (cfiCond107) DPH0 load(1, XDATA, add(CFA_XSP16, literal(-1)))
        CFI (cfiCond107) CFA_SP SP+0
        CFI (cfiCond107) CFA_XSP16 add(XSP16, 33)
        CFI Block cfiPicker108 Using cfiCommon1
        CFI (cfiPicker108) NoFunction
        CFI (cfiPicker108) Picker
        MOVX    A,@DPTR
        MOV     R2,A
        INC     DPTR
        MOVX    A,@DPTR
        MOV     R3,A
        RET
        CFI EndBlock cfiCond103
        CFI EndBlock cfiCond104
        CFI EndBlock cfiCond105
        CFI EndBlock cfiCond106
        CFI EndBlock cfiCond107
        CFI EndBlock cfiPicker108

        RSEG BANKED_CODE:CODE:NOROOT(0)
?Subroutine30:
        CFI Block cfiCond109 Using cfiCommon0
        CFI NoFunction
        CFI Conditional ??CrossCallReturnLabel_52
        CFI R6 load(1, XDATA, add(CFA_XSP16, literal(-10)))
        CFI VB load(1, XDATA, add(CFA_XSP16, literal(-9)))
        CFI V0 load(1, XDATA, add(CFA_XSP16, literal(-8)))
        CFI V1 load(1, XDATA, add(CFA_XSP16, literal(-7)))
        CFI R7 load(1, XDATA, add(CFA_XSP16, literal(-6)))
        CFI ?RET_LOW load(1, XDATA, add(CFA_XSP16, literal(-5)))
        CFI ?RET_HIGH load(1, XDATA, add(CFA_XSP16, literal(-4)))
        CFI ?BRET_EXT load(1, XDATA, add(CFA_XSP16, literal(-3)))
        CFI DPL0 load(1, XDATA, add(CFA_XSP16, literal(-2)))
        CFI DPH0 load(1, XDATA, add(CFA_XSP16, literal(-1)))
        CFI CFA_SP SP+0
        CFI CFA_XSP16 add(XSP16, 10)
        CFI Block cfiCond110 Using cfiCommon0
        CFI (cfiCond110) NoFunction
        CFI (cfiCond110) Conditional ??CrossCallReturnLabel_53
        CFI (cfiCond110) R6 load(1, XDATA, add(CFA_XSP16, literal(-20)))
        CFI (cfiCond110) VB load(1, XDATA, add(CFA_XSP16, literal(-19)))
        CFI (cfiCond110) V0 load(1, XDATA, add(CFA_XSP16, literal(-18)))
        CFI (cfiCond110) V1 load(1, XDATA, add(CFA_XSP16, literal(-17)))
        CFI (cfiCond110) V2 load(1, XDATA, add(CFA_XSP16, literal(-16)))
        CFI (cfiCond110) V3 load(1, XDATA, add(CFA_XSP16, literal(-15)))
        CFI (cfiCond110) V4 load(1, XDATA, add(CFA_XSP16, literal(-14)))
        CFI (cfiCond110) V5 load(1, XDATA, add(CFA_XSP16, literal(-13)))
        CFI (cfiCond110) V6 load(1, XDATA, add(CFA_XSP16, literal(-12)))
        CFI (cfiCond110) V7 load(1, XDATA, add(CFA_XSP16, literal(-11)))
        CFI (cfiCond110) V8 load(1, XDATA, add(CFA_XSP16, literal(-10)))
        CFI (cfiCond110) V9 load(1, XDATA, add(CFA_XSP16, literal(-9)))
        CFI (cfiCond110) V10 load(1, XDATA, add(CFA_XSP16, literal(-8)))
        CFI (cfiCond110) V11 load(1, XDATA, add(CFA_XSP16, literal(-7)))
        CFI (cfiCond110) R7 load(1, XDATA, add(CFA_XSP16, literal(-6)))
        CFI (cfiCond110) ?RET_LOW load(1, XDATA, add(CFA_XSP16, literal(-5)))
        CFI (cfiCond110) ?RET_HIGH load(1, XDATA, add(CFA_XSP16, literal(-4)))
        CFI (cfiCond110) ?BRET_EXT load(1, XDATA, add(CFA_XSP16, literal(-3)))
        CFI (cfiCond110) DPL0 load(1, XDATA, add(CFA_XSP16, literal(-2)))
        CFI (cfiCond110) DPH0 load(1, XDATA, add(CFA_XSP16, literal(-1)))
        CFI (cfiCond110) CFA_SP SP+0
        CFI (cfiCond110) CFA_XSP16 add(XSP16, 33)
        CFI Block cfiPicker111 Using cfiCommon1
        CFI (cfiPicker111) NoFunction
        CFI (cfiPicker111) Picker
        MOVX    A,@DPTR
        MOV     R2,A
        LCALL   ?Subroutine54 & 0xFFFF
??CrossCallReturnLabel_124:
        RET
        CFI EndBlock cfiCond109
        CFI EndBlock cfiCond110
        CFI EndBlock cfiPicker111

        RSEG BANKED_CODE:CODE:NOROOT(0)
?Subroutine54:
        CFI Block cfiCond112 Using cfiCommon0
        CFI NoFunction
        CFI Conditional ??CrossCallReturnLabel_124, ??CrossCallReturnLabel_52
        CFI R6 load(1, XDATA, add(CFA_XSP16, literal(-10)))
        CFI VB load(1, XDATA, add(CFA_XSP16, literal(-9)))
        CFI V0 load(1, XDATA, add(CFA_XSP16, literal(-8)))
        CFI V1 load(1, XDATA, add(CFA_XSP16, literal(-7)))
        CFI R7 load(1, XDATA, add(CFA_XSP16, literal(-6)))
        CFI ?RET_LOW load(1, XDATA, add(CFA_XSP16, literal(-5)))
        CFI ?RET_HIGH load(1, XDATA, add(CFA_XSP16, literal(-4)))
        CFI ?BRET_EXT load(1, XDATA, add(CFA_XSP16, literal(-3)))
        CFI DPL0 load(1, XDATA, add(CFA_XSP16, literal(-2)))
        CFI DPH0 load(1, XDATA, add(CFA_XSP16, literal(-1)))
        CFI CFA_SP SP+0
        CFI CFA_XSP16 add(XSP16, 10)
        CFI Block cfiCond113 Using cfiCommon0
        CFI (cfiCond113) NoFunction
        CFI (cfiCond113) Conditional ??CrossCallReturnLabel_124, ??CrossCallReturnLabel_53
        CFI (cfiCond113) R6 load(1, XDATA, add(CFA_XSP16, literal(-20)))
        CFI (cfiCond113) VB load(1, XDATA, add(CFA_XSP16, literal(-19)))
        CFI (cfiCond113) V0 load(1, XDATA, add(CFA_XSP16, literal(-18)))
        CFI (cfiCond113) V1 load(1, XDATA, add(CFA_XSP16, literal(-17)))
        CFI (cfiCond113) V2 load(1, XDATA, add(CFA_XSP16, literal(-16)))
        CFI (cfiCond113) V3 load(1, XDATA, add(CFA_XSP16, literal(-15)))
        CFI (cfiCond113) V4 load(1, XDATA, add(CFA_XSP16, literal(-14)))
        CFI (cfiCond113) V5 load(1, XDATA, add(CFA_XSP16, literal(-13)))
        CFI (cfiCond113) V6 load(1, XDATA, add(CFA_XSP16, literal(-12)))
        CFI (cfiCond113) V7 load(1, XDATA, add(CFA_XSP16, literal(-11)))
        CFI (cfiCond113) V8 load(1, XDATA, add(CFA_XSP16, literal(-10)))
        CFI (cfiCond113) V9 load(1, XDATA, add(CFA_XSP16, literal(-9)))
        CFI (cfiCond113) V10 load(1, XDATA, add(CFA_XSP16, literal(-8)))
        CFI (cfiCond113) V11 load(1, XDATA, add(CFA_XSP16, literal(-7)))
        CFI (cfiCond113) R7 load(1, XDATA, add(CFA_XSP16, literal(-6)))
        CFI (cfiCond113) ?RET_LOW load(1, XDATA, add(CFA_XSP16, literal(-5)))
        CFI (cfiCond113) ?RET_HIGH load(1, XDATA, add(CFA_XSP16, literal(-4)))
        CFI (cfiCond113) ?BRET_EXT load(1, XDATA, add(CFA_XSP16, literal(-3)))
        CFI (cfiCond113) DPL0 load(1, XDATA, add(CFA_XSP16, literal(-2)))
        CFI (cfiCond113) DPH0 load(1, XDATA, add(CFA_XSP16, literal(-1)))
        CFI (cfiCond113) CFA_SP SP+0
        CFI (cfiCond113) CFA_XSP16 add(XSP16, 33)
        CFI Block cfiCond114 Using cfiCommon0
        CFI (cfiCond114) NoFunction
        CFI (cfiCond114) Conditional ??CrossCallReturnLabel_125, ??CrossCallReturnLabel_143
        CFI (cfiCond114) R6 load(1, XDATA, add(CFA_XSP16, literal(-20)))
        CFI (cfiCond114) VB load(1, XDATA, add(CFA_XSP16, literal(-19)))
        CFI (cfiCond114) V0 load(1, XDATA, add(CFA_XSP16, literal(-18)))
        CFI (cfiCond114) V1 load(1, XDATA, add(CFA_XSP16, literal(-17)))
        CFI (cfiCond114) V2 load(1, XDATA, add(CFA_XSP16, literal(-16)))
        CFI (cfiCond114) V3 load(1, XDATA, add(CFA_XSP16, literal(-15)))
        CFI (cfiCond114) V4 load(1, XDATA, add(CFA_XSP16, literal(-14)))
        CFI (cfiCond114) V5 load(1, XDATA, add(CFA_XSP16, literal(-13)))
        CFI (cfiCond114) V6 load(1, XDATA, add(CFA_XSP16, literal(-12)))
        CFI (cfiCond114) V7 load(1, XDATA, add(CFA_XSP16, literal(-11)))
        CFI (cfiCond114) V8 load(1, XDATA, add(CFA_XSP16, literal(-10)))
        CFI (cfiCond114) V9 load(1, XDATA, add(CFA_XSP16, literal(-9)))
        CFI (cfiCond114) V10 load(1, XDATA, add(CFA_XSP16, literal(-8)))
        CFI (cfiCond114) V11 load(1, XDATA, add(CFA_XSP16, literal(-7)))
        CFI (cfiCond114) R7 load(1, XDATA, add(CFA_XSP16, literal(-6)))
        CFI (cfiCond114) ?RET_LOW load(1, XDATA, add(CFA_XSP16, literal(-5)))
        CFI (cfiCond114) ?RET_HIGH load(1, XDATA, add(CFA_XSP16, literal(-4)))
        CFI (cfiCond114) ?BRET_EXT load(1, XDATA, add(CFA_XSP16, literal(-3)))
        CFI (cfiCond114) DPL0 load(1, XDATA, add(CFA_XSP16, literal(-2)))
        CFI (cfiCond114) DPH0 load(1, XDATA, add(CFA_XSP16, literal(-1)))
        CFI (cfiCond114) CFA_SP SP+0
        CFI (cfiCond114) CFA_XSP16 add(XSP16, 33)
        CFI Block cfiCond115 Using cfiCommon0
        CFI (cfiCond115) NoFunction
        CFI (cfiCond115) Conditional ??CrossCallReturnLabel_125, ??CrossCallReturnLabel_144
        CFI (cfiCond115) R6 load(1, XDATA, add(CFA_XSP16, literal(-12)))
        CFI (cfiCond115) VB load(1, XDATA, add(CFA_XSP16, literal(-11)))
        CFI (cfiCond115) V0 load(1, XDATA, add(CFA_XSP16, literal(-10)))
        CFI (cfiCond115) V1 load(1, XDATA, add(CFA_XSP16, literal(-9)))
        CFI (cfiCond115) V2 load(1, XDATA, add(CFA_XSP16, literal(-8)))
        CFI (cfiCond115) V3 load(1, XDATA, add(CFA_XSP16, literal(-7)))
        CFI (cfiCond115) R7 load(1, XDATA, add(CFA_XSP16, literal(-6)))
        CFI (cfiCond115) ?RET_LOW load(1, XDATA, add(CFA_XSP16, literal(-5)))
        CFI (cfiCond115) ?RET_HIGH load(1, XDATA, add(CFA_XSP16, literal(-4)))
        CFI (cfiCond115) ?BRET_EXT load(1, XDATA, add(CFA_XSP16, literal(-3)))
        CFI (cfiCond115) DPL0 load(1, XDATA, add(CFA_XSP16, literal(-2)))
        CFI (cfiCond115) DPH0 load(1, XDATA, add(CFA_XSP16, literal(-1)))
        CFI (cfiCond115) CFA_SP SP+0
        CFI (cfiCond115) CFA_XSP16 add(XSP16, 17)
        CFI Block cfiPicker116 Using cfiCommon1
        CFI (cfiPicker116) NoFunction
        CFI (cfiPicker116) Picker
        MOV     R3,#0x0
        CFI EndBlock cfiCond112
        CFI EndBlock cfiCond113
        CFI EndBlock cfiCond114
        CFI EndBlock cfiCond115
        CFI EndBlock cfiPicker116
        REQUIRE ??Subroutine68_0
        ; // Fall through to label ??Subroutine68_0

        RSEG BANKED_CODE:CODE:NOROOT(0)
??Subroutine68_0:
        CFI Block cfiCond117 Using cfiCommon0
        CFI NoFunction
        CFI Conditional ??CrossCallReturnLabel_126
        CFI R6 load(1, XDATA, add(CFA_XSP16, literal(-12)))
        CFI VB load(1, XDATA, add(CFA_XSP16, literal(-11)))
        CFI V0 load(1, XDATA, add(CFA_XSP16, literal(-10)))
        CFI V1 load(1, XDATA, add(CFA_XSP16, literal(-9)))
        CFI V2 load(1, XDATA, add(CFA_XSP16, literal(-8)))
        CFI V3 load(1, XDATA, add(CFA_XSP16, literal(-7)))
        CFI R7 load(1, XDATA, add(CFA_XSP16, literal(-6)))
        CFI ?RET_LOW load(1, XDATA, add(CFA_XSP16, literal(-5)))
        CFI ?RET_HIGH load(1, XDATA, add(CFA_XSP16, literal(-4)))
        CFI ?BRET_EXT load(1, XDATA, add(CFA_XSP16, literal(-3)))
        CFI DPL0 load(1, XDATA, add(CFA_XSP16, literal(-2)))
        CFI DPH0 load(1, XDATA, add(CFA_XSP16, literal(-1)))
        CFI CFA_SP SP+0
        CFI CFA_XSP16 add(XSP16, 12)
        CFI Block cfiCond118 Using cfiCommon0
        CFI (cfiCond118) NoFunction
        CFI (cfiCond118) Conditional ??CrossCallReturnLabel_124, ??CrossCallReturnLabel_52
        CFI (cfiCond118) R6 load(1, XDATA, add(CFA_XSP16, literal(-10)))
        CFI (cfiCond118) VB load(1, XDATA, add(CFA_XSP16, literal(-9)))
        CFI (cfiCond118) V0 load(1, XDATA, add(CFA_XSP16, literal(-8)))
        CFI (cfiCond118) V1 load(1, XDATA, add(CFA_XSP16, literal(-7)))
        CFI (cfiCond118) R7 load(1, XDATA, add(CFA_XSP16, literal(-6)))
        CFI (cfiCond118) ?RET_LOW load(1, XDATA, add(CFA_XSP16, literal(-5)))
        CFI (cfiCond118) ?RET_HIGH load(1, XDATA, add(CFA_XSP16, literal(-4)))
        CFI (cfiCond118) ?BRET_EXT load(1, XDATA, add(CFA_XSP16, literal(-3)))
        CFI (cfiCond118) DPL0 load(1, XDATA, add(CFA_XSP16, literal(-2)))
        CFI (cfiCond118) DPH0 load(1, XDATA, add(CFA_XSP16, literal(-1)))
        CFI (cfiCond118) CFA_SP SP+0
        CFI (cfiCond118) CFA_XSP16 add(XSP16, 10)
        CFI Block cfiCond119 Using cfiCommon0
        CFI (cfiCond119) NoFunction
        CFI (cfiCond119) Conditional ??CrossCallReturnLabel_124, ??CrossCallReturnLabel_53
        CFI (cfiCond119) R6 load(1, XDATA, add(CFA_XSP16, literal(-20)))
        CFI (cfiCond119) VB load(1, XDATA, add(CFA_XSP16, literal(-19)))
        CFI (cfiCond119) V0 load(1, XDATA, add(CFA_XSP16, literal(-18)))
        CFI (cfiCond119) V1 load(1, XDATA, add(CFA_XSP16, literal(-17)))
        CFI (cfiCond119) V2 load(1, XDATA, add(CFA_XSP16, literal(-16)))
        CFI (cfiCond119) V3 load(1, XDATA, add(CFA_XSP16, literal(-15)))
        CFI (cfiCond119) V4 load(1, XDATA, add(CFA_XSP16, literal(-14)))
        CFI (cfiCond119) V5 load(1, XDATA, add(CFA_XSP16, literal(-13)))
        CFI (cfiCond119) V6 load(1, XDATA, add(CFA_XSP16, literal(-12)))
        CFI (cfiCond119) V7 load(1, XDATA, add(CFA_XSP16, literal(-11)))
        CFI (cfiCond119) V8 load(1, XDATA, add(CFA_XSP16, literal(-10)))
        CFI (cfiCond119) V9 load(1, XDATA, add(CFA_XSP16, literal(-9)))
        CFI (cfiCond119) V10 load(1, XDATA, add(CFA_XSP16, literal(-8)))
        CFI (cfiCond119) V11 load(1, XDATA, add(CFA_XSP16, literal(-7)))
        CFI (cfiCond119) R7 load(1, XDATA, add(CFA_XSP16, literal(-6)))
        CFI (cfiCond119) ?RET_LOW load(1, XDATA, add(CFA_XSP16, literal(-5)))
        CFI (cfiCond119) ?RET_HIGH load(1, XDATA, add(CFA_XSP16, literal(-4)))
        CFI (cfiCond119) ?BRET_EXT load(1, XDATA, add(CFA_XSP16, literal(-3)))
        CFI (cfiCond119) DPL0 load(1, XDATA, add(CFA_XSP16, literal(-2)))
        CFI (cfiCond119) DPH0 load(1, XDATA, add(CFA_XSP16, literal(-1)))
        CFI (cfiCond119) CFA_SP SP+0
        CFI (cfiCond119) CFA_XSP16 add(XSP16, 33)
        CFI Block cfiCond120 Using cfiCommon0
        CFI (cfiCond120) NoFunction
        CFI (cfiCond120) Conditional ??CrossCallReturnLabel_125, ??CrossCallReturnLabel_143
        CFI (cfiCond120) R6 load(1, XDATA, add(CFA_XSP16, literal(-20)))
        CFI (cfiCond120) VB load(1, XDATA, add(CFA_XSP16, literal(-19)))
        CFI (cfiCond120) V0 load(1, XDATA, add(CFA_XSP16, literal(-18)))
        CFI (cfiCond120) V1 load(1, XDATA, add(CFA_XSP16, literal(-17)))
        CFI (cfiCond120) V2 load(1, XDATA, add(CFA_XSP16, literal(-16)))
        CFI (cfiCond120) V3 load(1, XDATA, add(CFA_XSP16, literal(-15)))
        CFI (cfiCond120) V4 load(1, XDATA, add(CFA_XSP16, literal(-14)))
        CFI (cfiCond120) V5 load(1, XDATA, add(CFA_XSP16, literal(-13)))
        CFI (cfiCond120) V6 load(1, XDATA, add(CFA_XSP16, literal(-12)))
        CFI (cfiCond120) V7 load(1, XDATA, add(CFA_XSP16, literal(-11)))
        CFI (cfiCond120) V8 load(1, XDATA, add(CFA_XSP16, literal(-10)))
        CFI (cfiCond120) V9 load(1, XDATA, add(CFA_XSP16, literal(-9)))
        CFI (cfiCond120) V10 load(1, XDATA, add(CFA_XSP16, literal(-8)))
        CFI (cfiCond120) V11 load(1, XDATA, add(CFA_XSP16, literal(-7)))
        CFI (cfiCond120) R7 load(1, XDATA, add(CFA_XSP16, literal(-6)))
        CFI (cfiCond120) ?RET_LOW load(1, XDATA, add(CFA_XSP16, literal(-5)))
        CFI (cfiCond120) ?RET_HIGH load(1, XDATA, add(CFA_XSP16, literal(-4)))
        CFI (cfiCond120) ?BRET_EXT load(1, XDATA, add(CFA_XSP16, literal(-3)))
        CFI (cfiCond120) DPL0 load(1, XDATA, add(CFA_XSP16, literal(-2)))
        CFI (cfiCond120) DPH0 load(1, XDATA, add(CFA_XSP16, literal(-1)))
        CFI (cfiCond120) CFA_SP SP+0
        CFI (cfiCond120) CFA_XSP16 add(XSP16, 33)
        CFI Block cfiCond121 Using cfiCommon0
        CFI (cfiCond121) NoFunction
        CFI (cfiCond121) Conditional ??CrossCallReturnLabel_125, ??CrossCallReturnLabel_144
        CFI (cfiCond121) R6 load(1, XDATA, add(CFA_XSP16, literal(-12)))
        CFI (cfiCond121) VB load(1, XDATA, add(CFA_XSP16, literal(-11)))
        CFI (cfiCond121) V0 load(1, XDATA, add(CFA_XSP16, literal(-10)))
        CFI (cfiCond121) V1 load(1, XDATA, add(CFA_XSP16, literal(-9)))
        CFI (cfiCond121) V2 load(1, XDATA, add(CFA_XSP16, literal(-8)))
        CFI (cfiCond121) V3 load(1, XDATA, add(CFA_XSP16, literal(-7)))
        CFI (cfiCond121) R7 load(1, XDATA, add(CFA_XSP16, literal(-6)))
        CFI (cfiCond121) ?RET_LOW load(1, XDATA, add(CFA_XSP16, literal(-5)))
        CFI (cfiCond121) ?RET_HIGH load(1, XDATA, add(CFA_XSP16, literal(-4)))
        CFI (cfiCond121) ?BRET_EXT load(1, XDATA, add(CFA_XSP16, literal(-3)))
        CFI (cfiCond121) DPL0 load(1, XDATA, add(CFA_XSP16, literal(-2)))
        CFI (cfiCond121) DPH0 load(1, XDATA, add(CFA_XSP16, literal(-1)))
        CFI (cfiCond121) CFA_SP SP+0
        CFI (cfiCond121) CFA_XSP16 add(XSP16, 17)
        CFI Block cfiPicker122 Using cfiCommon1
        CFI (cfiPicker122) NoFunction
        CFI (cfiPicker122) Picker
        LCALL   ?Subroutine61 & 0xFFFF
??CrossCallReturnLabel_128:
        MOV     R2,#`?<Constant " ">` & 0xff
        MOV     R3,#(`?<Constant " ">` >> 8) & 0xff
        RET
        CFI EndBlock cfiCond117
        CFI EndBlock cfiCond118
        CFI EndBlock cfiCond119
        CFI EndBlock cfiCond120
        CFI EndBlock cfiCond121
        CFI EndBlock cfiPicker122

        RSEG BANKED_CODE:CODE:NOROOT(0)
?Subroutine61:
        CFI Block cfiCond123 Using cfiCommon0
        CFI NoFunction
        CFI Conditional ??CrossCallReturnLabel_127, ??CrossCallReturnLabel_85
        CFI R6 load(1, XDATA, add(CFA_XSP16, literal(-20)))
        CFI VB load(1, XDATA, add(CFA_XSP16, literal(-19)))
        CFI V0 load(1, XDATA, add(CFA_XSP16, literal(-18)))
        CFI V1 load(1, XDATA, add(CFA_XSP16, literal(-17)))
        CFI V2 load(1, XDATA, add(CFA_XSP16, literal(-16)))
        CFI V3 load(1, XDATA, add(CFA_XSP16, literal(-15)))
        CFI V4 load(1, XDATA, add(CFA_XSP16, literal(-14)))
        CFI V5 load(1, XDATA, add(CFA_XSP16, literal(-13)))
        CFI V6 load(1, XDATA, add(CFA_XSP16, literal(-12)))
        CFI V7 load(1, XDATA, add(CFA_XSP16, literal(-11)))
        CFI V8 load(1, XDATA, add(CFA_XSP16, literal(-10)))
        CFI V9 load(1, XDATA, add(CFA_XSP16, literal(-9)))
        CFI V10 load(1, XDATA, add(CFA_XSP16, literal(-8)))
        CFI V11 load(1, XDATA, add(CFA_XSP16, literal(-7)))
        CFI R7 load(1, XDATA, add(CFA_XSP16, literal(-6)))
        CFI ?RET_LOW load(1, XDATA, add(CFA_XSP16, literal(-5)))
        CFI ?RET_HIGH load(1, XDATA, add(CFA_XSP16, literal(-4)))
        CFI ?BRET_EXT load(1, XDATA, add(CFA_XSP16, literal(-3)))
        CFI DPL0 load(1, XDATA, add(CFA_XSP16, literal(-2)))
        CFI DPH0 load(1, XDATA, add(CFA_XSP16, literal(-1)))
        CFI CFA_SP SP+0
        CFI CFA_XSP16 add(XSP16, 33)
        CFI Block cfiCond124 Using cfiCommon0
        CFI (cfiCond124) NoFunction
        CFI (cfiCond124) Conditional ??CrossCallReturnLabel_127, ??CrossCallReturnLabel_86, ??CrossCallReturnLabel_64
        CFI (cfiCond124) R6 load(1, XDATA, add(CFA_XSP16, literal(-10)))
        CFI (cfiCond124) VB load(1, XDATA, add(CFA_XSP16, literal(-9)))
        CFI (cfiCond124) V0 load(1, XDATA, add(CFA_XSP16, literal(-8)))
        CFI (cfiCond124) V1 load(1, XDATA, add(CFA_XSP16, literal(-7)))
        CFI (cfiCond124) R7 load(1, XDATA, add(CFA_XSP16, literal(-6)))
        CFI (cfiCond124) ?RET_LOW load(1, XDATA, add(CFA_XSP16, literal(-5)))
        CFI (cfiCond124) ?RET_HIGH load(1, XDATA, add(CFA_XSP16, literal(-4)))
        CFI (cfiCond124) ?BRET_EXT load(1, XDATA, add(CFA_XSP16, literal(-3)))
        CFI (cfiCond124) DPL0 load(1, XDATA, add(CFA_XSP16, literal(-2)))
        CFI (cfiCond124) DPH0 load(1, XDATA, add(CFA_XSP16, literal(-1)))
        CFI (cfiCond124) CFA_SP SP+0
        CFI (cfiCond124) CFA_XSP16 add(XSP16, 10)
        CFI Block cfiCond125 Using cfiCommon0
        CFI (cfiCond125) NoFunction
        CFI (cfiCond125) Conditional ??CrossCallReturnLabel_127, ??CrossCallReturnLabel_86, ??CrossCallReturnLabel_65
        CFI (cfiCond125) R6 load(1, XDATA, add(CFA_XSP16, literal(-20)))
        CFI (cfiCond125) VB load(1, XDATA, add(CFA_XSP16, literal(-19)))
        CFI (cfiCond125) V0 load(1, XDATA, add(CFA_XSP16, literal(-18)))
        CFI (cfiCond125) V1 load(1, XDATA, add(CFA_XSP16, literal(-17)))
        CFI (cfiCond125) V2 load(1, XDATA, add(CFA_XSP16, literal(-16)))
        CFI (cfiCond125) V3 load(1, XDATA, add(CFA_XSP16, literal(-15)))
        CFI (cfiCond125) V4 load(1, XDATA, add(CFA_XSP16, literal(-14)))
        CFI (cfiCond125) V5 load(1, XDATA, add(CFA_XSP16, literal(-13)))
        CFI (cfiCond125) V6 load(1, XDATA, add(CFA_XSP16, literal(-12)))
        CFI (cfiCond125) V7 load(1, XDATA, add(CFA_XSP16, literal(-11)))
        CFI (cfiCond125) V8 load(1, XDATA, add(CFA_XSP16, literal(-10)))
        CFI (cfiCond125) V9 load(1, XDATA, add(CFA_XSP16, literal(-9)))
        CFI (cfiCond125) V10 load(1, XDATA, add(CFA_XSP16, literal(-8)))
        CFI (cfiCond125) V11 load(1, XDATA, add(CFA_XSP16, literal(-7)))
        CFI (cfiCond125) R7 load(1, XDATA, add(CFA_XSP16, literal(-6)))
        CFI (cfiCond125) ?RET_LOW load(1, XDATA, add(CFA_XSP16, literal(-5)))
        CFI (cfiCond125) ?RET_HIGH load(1, XDATA, add(CFA_XSP16, literal(-4)))
        CFI (cfiCond125) ?BRET_EXT load(1, XDATA, add(CFA_XSP16, literal(-3)))
        CFI (cfiCond125) DPL0 load(1, XDATA, add(CFA_XSP16, literal(-2)))
        CFI (cfiCond125) DPH0 load(1, XDATA, add(CFA_XSP16, literal(-1)))
        CFI (cfiCond125) CFA_SP SP+0
        CFI (cfiCond125) CFA_XSP16 add(XSP16, 33)
        CFI Block cfiCond126 Using cfiCommon0
        CFI (cfiCond126) NoFunction
        CFI (cfiCond126) Conditional ??CrossCallReturnLabel_128, ??CrossCallReturnLabel_124, ??CrossCallReturnLabel_52
        CFI (cfiCond126) R6 load(1, XDATA, add(CFA_XSP16, literal(-10)))
        CFI (cfiCond126) VB load(1, XDATA, add(CFA_XSP16, literal(-9)))
        CFI (cfiCond126) V0 load(1, XDATA, add(CFA_XSP16, literal(-8)))
        CFI (cfiCond126) V1 load(1, XDATA, add(CFA_XSP16, literal(-7)))
        CFI (cfiCond126) R7 load(1, XDATA, add(CFA_XSP16, literal(-6)))
        CFI (cfiCond126) ?RET_LOW load(1, XDATA, add(CFA_XSP16, literal(-5)))
        CFI (cfiCond126) ?RET_HIGH load(1, XDATA, add(CFA_XSP16, literal(-4)))
        CFI (cfiCond126) ?BRET_EXT load(1, XDATA, add(CFA_XSP16, literal(-3)))
        CFI (cfiCond126) DPL0 load(1, XDATA, add(CFA_XSP16, literal(-2)))
        CFI (cfiCond126) DPH0 load(1, XDATA, add(CFA_XSP16, literal(-1)))
        CFI (cfiCond126) CFA_SP SP+0
        CFI (cfiCond126) CFA_XSP16 add(XSP16, 10)
        CFI Block cfiCond127 Using cfiCommon0
        CFI (cfiCond127) NoFunction
        CFI (cfiCond127) Conditional ??CrossCallReturnLabel_128, ??CrossCallReturnLabel_124, ??CrossCallReturnLabel_53
        CFI (cfiCond127) R6 load(1, XDATA, add(CFA_XSP16, literal(-20)))
        CFI (cfiCond127) VB load(1, XDATA, add(CFA_XSP16, literal(-19)))
        CFI (cfiCond127) V0 load(1, XDATA, add(CFA_XSP16, literal(-18)))
        CFI (cfiCond127) V1 load(1, XDATA, add(CFA_XSP16, literal(-17)))
        CFI (cfiCond127) V2 load(1, XDATA, add(CFA_XSP16, literal(-16)))
        CFI (cfiCond127) V3 load(1, XDATA, add(CFA_XSP16, literal(-15)))
        CFI (cfiCond127) V4 load(1, XDATA, add(CFA_XSP16, literal(-14)))
        CFI (cfiCond127) V5 load(1, XDATA, add(CFA_XSP16, literal(-13)))
        CFI (cfiCond127) V6 load(1, XDATA, add(CFA_XSP16, literal(-12)))
        CFI (cfiCond127) V7 load(1, XDATA, add(CFA_XSP16, literal(-11)))
        CFI (cfiCond127) V8 load(1, XDATA, add(CFA_XSP16, literal(-10)))
        CFI (cfiCond127) V9 load(1, XDATA, add(CFA_XSP16, literal(-9)))
        CFI (cfiCond127) V10 load(1, XDATA, add(CFA_XSP16, literal(-8)))
        CFI (cfiCond127) V11 load(1, XDATA, add(CFA_XSP16, literal(-7)))
        CFI (cfiCond127) R7 load(1, XDATA, add(CFA_XSP16, literal(-6)))
        CFI (cfiCond127) ?RET_LOW load(1, XDATA, add(CFA_XSP16, literal(-5)))
        CFI (cfiCond127) ?RET_HIGH load(1, XDATA, add(CFA_XSP16, literal(-4)))
        CFI (cfiCond127) ?BRET_EXT load(1, XDATA, add(CFA_XSP16, literal(-3)))
        CFI (cfiCond127) DPL0 load(1, XDATA, add(CFA_XSP16, literal(-2)))
        CFI (cfiCond127) DPH0 load(1, XDATA, add(CFA_XSP16, literal(-1)))
        CFI (cfiCond127) CFA_SP SP+0
        CFI (cfiCond127) CFA_XSP16 add(XSP16, 33)
        CFI Block cfiCond128 Using cfiCommon0
        CFI (cfiCond128) NoFunction
        CFI (cfiCond128) Conditional ??CrossCallReturnLabel_128, ??CrossCallReturnLabel_125, ??CrossCallReturnLabel_143
        CFI (cfiCond128) R6 load(1, XDATA, add(CFA_XSP16, literal(-20)))
        CFI (cfiCond128) VB load(1, XDATA, add(CFA_XSP16, literal(-19)))
        CFI (cfiCond128) V0 load(1, XDATA, add(CFA_XSP16, literal(-18)))
        CFI (cfiCond128) V1 load(1, XDATA, add(CFA_XSP16, literal(-17)))
        CFI (cfiCond128) V2 load(1, XDATA, add(CFA_XSP16, literal(-16)))
        CFI (cfiCond128) V3 load(1, XDATA, add(CFA_XSP16, literal(-15)))
        CFI (cfiCond128) V4 load(1, XDATA, add(CFA_XSP16, literal(-14)))
        CFI (cfiCond128) V5 load(1, XDATA, add(CFA_XSP16, literal(-13)))
        CFI (cfiCond128) V6 load(1, XDATA, add(CFA_XSP16, literal(-12)))
        CFI (cfiCond128) V7 load(1, XDATA, add(CFA_XSP16, literal(-11)))
        CFI (cfiCond128) V8 load(1, XDATA, add(CFA_XSP16, literal(-10)))
        CFI (cfiCond128) V9 load(1, XDATA, add(CFA_XSP16, literal(-9)))
        CFI (cfiCond128) V10 load(1, XDATA, add(CFA_XSP16, literal(-8)))
        CFI (cfiCond128) V11 load(1, XDATA, add(CFA_XSP16, literal(-7)))
        CFI (cfiCond128) R7 load(1, XDATA, add(CFA_XSP16, literal(-6)))
        CFI (cfiCond128) ?RET_LOW load(1, XDATA, add(CFA_XSP16, literal(-5)))
        CFI (cfiCond128) ?RET_HIGH load(1, XDATA, add(CFA_XSP16, literal(-4)))
        CFI (cfiCond128) ?BRET_EXT load(1, XDATA, add(CFA_XSP16, literal(-3)))
        CFI (cfiCond128) DPL0 load(1, XDATA, add(CFA_XSP16, literal(-2)))
        CFI (cfiCond128) DPH0 load(1, XDATA, add(CFA_XSP16, literal(-1)))
        CFI (cfiCond128) CFA_SP SP+0
        CFI (cfiCond128) CFA_XSP16 add(XSP16, 33)
        CFI Block cfiCond129 Using cfiCommon0
        CFI (cfiCond129) NoFunction
        CFI (cfiCond129) Conditional ??CrossCallReturnLabel_128, ??CrossCallReturnLabel_125, ??CrossCallReturnLabel_144
        CFI (cfiCond129) R6 load(1, XDATA, add(CFA_XSP16, literal(-12)))
        CFI (cfiCond129) VB load(1, XDATA, add(CFA_XSP16, literal(-11)))
        CFI (cfiCond129) V0 load(1, XDATA, add(CFA_XSP16, literal(-10)))
        CFI (cfiCond129) V1 load(1, XDATA, add(CFA_XSP16, literal(-9)))
        CFI (cfiCond129) V2 load(1, XDATA, add(CFA_XSP16, literal(-8)))
        CFI (cfiCond129) V3 load(1, XDATA, add(CFA_XSP16, literal(-7)))
        CFI (cfiCond129) R7 load(1, XDATA, add(CFA_XSP16, literal(-6)))
        CFI (cfiCond129) ?RET_LOW load(1, XDATA, add(CFA_XSP16, literal(-5)))
        CFI (cfiCond129) ?RET_HIGH load(1, XDATA, add(CFA_XSP16, literal(-4)))
        CFI (cfiCond129) ?BRET_EXT load(1, XDATA, add(CFA_XSP16, literal(-3)))
        CFI (cfiCond129) DPL0 load(1, XDATA, add(CFA_XSP16, literal(-2)))
        CFI (cfiCond129) DPH0 load(1, XDATA, add(CFA_XSP16, literal(-1)))
        CFI (cfiCond129) CFA_SP SP+0
        CFI (cfiCond129) CFA_XSP16 add(XSP16, 17)
        CFI Block cfiCond130 Using cfiCommon0
        CFI (cfiCond130) NoFunction
        CFI (cfiCond130) Conditional ??CrossCallReturnLabel_128, ??CrossCallReturnLabel_126
        CFI (cfiCond130) R6 load(1, XDATA, add(CFA_XSP16, literal(-12)))
        CFI (cfiCond130) VB load(1, XDATA, add(CFA_XSP16, literal(-11)))
        CFI (cfiCond130) V0 load(1, XDATA, add(CFA_XSP16, literal(-10)))
        CFI (cfiCond130) V1 load(1, XDATA, add(CFA_XSP16, literal(-9)))
        CFI (cfiCond130) V2 load(1, XDATA, add(CFA_XSP16, literal(-8)))
        CFI (cfiCond130) V3 load(1, XDATA, add(CFA_XSP16, literal(-7)))
        CFI (cfiCond130) R7 load(1, XDATA, add(CFA_XSP16, literal(-6)))
        CFI (cfiCond130) ?RET_LOW load(1, XDATA, add(CFA_XSP16, literal(-5)))
        CFI (cfiCond130) ?RET_HIGH load(1, XDATA, add(CFA_XSP16, literal(-4)))
        CFI (cfiCond130) ?BRET_EXT load(1, XDATA, add(CFA_XSP16, literal(-3)))
        CFI (cfiCond130) DPL0 load(1, XDATA, add(CFA_XSP16, literal(-2)))
        CFI (cfiCond130) DPH0 load(1, XDATA, add(CFA_XSP16, literal(-1)))
        CFI (cfiCond130) CFA_SP SP+0
        CFI (cfiCond130) CFA_XSP16 add(XSP16, 12)
        CFI Block cfiCond131 Using cfiCommon0
        CFI (cfiCond131) NoFunction
        CFI (cfiCond131) Conditional ??CrossCallReturnLabel_129, ??CrossCallReturnLabel_25
        CFI (cfiCond131) R6 load(1, XDATA, add(CFA_XSP16, literal(-20)))
        CFI (cfiCond131) VB load(1, XDATA, add(CFA_XSP16, literal(-19)))
        CFI (cfiCond131) V0 load(1, XDATA, add(CFA_XSP16, literal(-18)))
        CFI (cfiCond131) V1 load(1, XDATA, add(CFA_XSP16, literal(-17)))
        CFI (cfiCond131) V2 load(1, XDATA, add(CFA_XSP16, literal(-16)))
        CFI (cfiCond131) V3 load(1, XDATA, add(CFA_XSP16, literal(-15)))
        CFI (cfiCond131) V4 load(1, XDATA, add(CFA_XSP16, literal(-14)))
        CFI (cfiCond131) V5 load(1, XDATA, add(CFA_XSP16, literal(-13)))
        CFI (cfiCond131) V6 load(1, XDATA, add(CFA_XSP16, literal(-12)))
        CFI (cfiCond131) V7 load(1, XDATA, add(CFA_XSP16, literal(-11)))
        CFI (cfiCond131) V8 load(1, XDATA, add(CFA_XSP16, literal(-10)))
        CFI (cfiCond131) V9 load(1, XDATA, add(CFA_XSP16, literal(-9)))
        CFI (cfiCond131) V10 load(1, XDATA, add(CFA_XSP16, literal(-8)))
        CFI (cfiCond131) V11 load(1, XDATA, add(CFA_XSP16, literal(-7)))
        CFI (cfiCond131) R7 load(1, XDATA, add(CFA_XSP16, literal(-6)))
        CFI (cfiCond131) ?RET_LOW load(1, XDATA, add(CFA_XSP16, literal(-5)))
        CFI (cfiCond131) ?RET_HIGH load(1, XDATA, add(CFA_XSP16, literal(-4)))
        CFI (cfiCond131) ?BRET_EXT load(1, XDATA, add(CFA_XSP16, literal(-3)))
        CFI (cfiCond131) DPL0 load(1, XDATA, add(CFA_XSP16, literal(-2)))
        CFI (cfiCond131) DPH0 load(1, XDATA, add(CFA_XSP16, literal(-1)))
        CFI (cfiCond131) CFA_SP SP+0
        CFI (cfiCond131) CFA_XSP16 add(XSP16, 33)
        CFI Block cfiCond132 Using cfiCommon0
        CFI (cfiCond132) NoFunction
        CFI (cfiCond132) Conditional ??CrossCallReturnLabel_129, ??CrossCallReturnLabel_26
        CFI (cfiCond132) R6 load(1, XDATA, add(CFA_XSP16, literal(-20)))
        CFI (cfiCond132) VB load(1, XDATA, add(CFA_XSP16, literal(-19)))
        CFI (cfiCond132) V0 load(1, XDATA, add(CFA_XSP16, literal(-18)))
        CFI (cfiCond132) V1 load(1, XDATA, add(CFA_XSP16, literal(-17)))
        CFI (cfiCond132) V2 load(1, XDATA, add(CFA_XSP16, literal(-16)))
        CFI (cfiCond132) V3 load(1, XDATA, add(CFA_XSP16, literal(-15)))
        CFI (cfiCond132) V4 load(1, XDATA, add(CFA_XSP16, literal(-14)))
        CFI (cfiCond132) V5 load(1, XDATA, add(CFA_XSP16, literal(-13)))
        CFI (cfiCond132) V6 load(1, XDATA, add(CFA_XSP16, literal(-12)))
        CFI (cfiCond132) V7 load(1, XDATA, add(CFA_XSP16, literal(-11)))
        CFI (cfiCond132) V8 load(1, XDATA, add(CFA_XSP16, literal(-10)))
        CFI (cfiCond132) V9 load(1, XDATA, add(CFA_XSP16, literal(-9)))
        CFI (cfiCond132) V10 load(1, XDATA, add(CFA_XSP16, literal(-8)))
        CFI (cfiCond132) V11 load(1, XDATA, add(CFA_XSP16, literal(-7)))
        CFI (cfiCond132) R7 load(1, XDATA, add(CFA_XSP16, literal(-6)))
        CFI (cfiCond132) ?RET_LOW load(1, XDATA, add(CFA_XSP16, literal(-5)))
        CFI (cfiCond132) ?RET_HIGH load(1, XDATA, add(CFA_XSP16, literal(-4)))
        CFI (cfiCond132) ?BRET_EXT load(1, XDATA, add(CFA_XSP16, literal(-3)))
        CFI (cfiCond132) DPL0 load(1, XDATA, add(CFA_XSP16, literal(-2)))
        CFI (cfiCond132) DPH0 load(1, XDATA, add(CFA_XSP16, literal(-1)))
        CFI (cfiCond132) CFA_SP SP+0
        CFI (cfiCond132) CFA_XSP16 add(XSP16, 33)
        CFI Block cfiPicker133 Using cfiCommon1
        CFI (cfiPicker133) NoFunction
        CFI (cfiPicker133) Picker
        LCALL   ??Show_Bit?relay
        ; Setup parameters for call to function HalUARTWrite
        ; Setup parameters for call to function HalUARTWrite
        ; Setup parameters for call to function HalUARTWrite
        ; Setup parameters for call to function HalUARTWrite
        ; Setup parameters for call to function HalUARTWrite
        ; Setup parameters for call to function HalUARTWrite
        ; Setup parameters for call to function HalUARTWrite
        ; Setup parameters for call to function HalUARTWrite
        ; Setup parameters for call to function HalUARTWrite
        ; Setup parameters for call to function HalUARTWrite
        MOV     R4,#0x1
        MOV     R5,#0x0
        RET
        CFI EndBlock cfiCond123
        CFI EndBlock cfiCond124
        CFI EndBlock cfiCond125
        CFI EndBlock cfiCond126
        CFI EndBlock cfiCond127
        CFI EndBlock cfiCond128
        CFI EndBlock cfiCond129
        CFI EndBlock cfiCond130
        CFI EndBlock cfiCond131
        CFI EndBlock cfiCond132
        CFI EndBlock cfiPicker133

        RSEG BANKED_CODE:CODE:NOROOT(0)
?Subroutine29:
        CFI Block cfiCond134 Using cfiCommon0
        CFI NoFunction
        CFI Conditional ??CrossCallReturnLabel_50
        CFI R6 load(1, XDATA, add(CFA_XSP16, literal(-20)))
        CFI VB load(1, XDATA, add(CFA_XSP16, literal(-19)))
        CFI V0 load(1, XDATA, add(CFA_XSP16, literal(-18)))
        CFI V1 load(1, XDATA, add(CFA_XSP16, literal(-17)))
        CFI V2 load(1, XDATA, add(CFA_XSP16, literal(-16)))
        CFI V3 load(1, XDATA, add(CFA_XSP16, literal(-15)))
        CFI V4 load(1, XDATA, add(CFA_XSP16, literal(-14)))
        CFI V5 load(1, XDATA, add(CFA_XSP16, literal(-13)))
        CFI V6 load(1, XDATA, add(CFA_XSP16, literal(-12)))
        CFI V7 load(1, XDATA, add(CFA_XSP16, literal(-11)))
        CFI V8 load(1, XDATA, add(CFA_XSP16, literal(-10)))
        CFI V9 load(1, XDATA, add(CFA_XSP16, literal(-9)))
        CFI V10 load(1, XDATA, add(CFA_XSP16, literal(-8)))
        CFI V11 load(1, XDATA, add(CFA_XSP16, literal(-7)))
        CFI R7 load(1, XDATA, add(CFA_XSP16, literal(-6)))
        CFI ?RET_LOW load(1, XDATA, add(CFA_XSP16, literal(-5)))
        CFI ?RET_HIGH load(1, XDATA, add(CFA_XSP16, literal(-4)))
        CFI ?BRET_EXT load(1, XDATA, add(CFA_XSP16, literal(-3)))
        CFI DPL0 load(1, XDATA, add(CFA_XSP16, literal(-2)))
        CFI DPH0 load(1, XDATA, add(CFA_XSP16, literal(-1)))
        CFI CFA_SP SP+0
        CFI CFA_XSP16 add(XSP16, 33)
        CFI Block cfiCond135 Using cfiCommon0
        CFI (cfiCond135) NoFunction
        CFI (cfiCond135) Conditional ??CrossCallReturnLabel_51
        CFI (cfiCond135) R6 load(1, XDATA, add(CFA_XSP16, literal(-20)))
        CFI (cfiCond135) VB load(1, XDATA, add(CFA_XSP16, literal(-19)))
        CFI (cfiCond135) V0 load(1, XDATA, add(CFA_XSP16, literal(-18)))
        CFI (cfiCond135) V1 load(1, XDATA, add(CFA_XSP16, literal(-17)))
        CFI (cfiCond135) V2 load(1, XDATA, add(CFA_XSP16, literal(-16)))
        CFI (cfiCond135) V3 load(1, XDATA, add(CFA_XSP16, literal(-15)))
        CFI (cfiCond135) V4 load(1, XDATA, add(CFA_XSP16, literal(-14)))
        CFI (cfiCond135) V5 load(1, XDATA, add(CFA_XSP16, literal(-13)))
        CFI (cfiCond135) V6 load(1, XDATA, add(CFA_XSP16, literal(-12)))
        CFI (cfiCond135) V7 load(1, XDATA, add(CFA_XSP16, literal(-11)))
        CFI (cfiCond135) V8 load(1, XDATA, add(CFA_XSP16, literal(-10)))
        CFI (cfiCond135) V9 load(1, XDATA, add(CFA_XSP16, literal(-9)))
        CFI (cfiCond135) V10 load(1, XDATA, add(CFA_XSP16, literal(-8)))
        CFI (cfiCond135) V11 load(1, XDATA, add(CFA_XSP16, literal(-7)))
        CFI (cfiCond135) R7 load(1, XDATA, add(CFA_XSP16, literal(-6)))
        CFI (cfiCond135) ?RET_LOW load(1, XDATA, add(CFA_XSP16, literal(-5)))
        CFI (cfiCond135) ?RET_HIGH load(1, XDATA, add(CFA_XSP16, literal(-4)))
        CFI (cfiCond135) ?BRET_EXT load(1, XDATA, add(CFA_XSP16, literal(-3)))
        CFI (cfiCond135) DPL0 load(1, XDATA, add(CFA_XSP16, literal(-2)))
        CFI (cfiCond135) DPH0 load(1, XDATA, add(CFA_XSP16, literal(-1)))
        CFI (cfiCond135) CFA_SP SP+0
        CFI (cfiCond135) CFA_XSP16 add(XSP16, 33)
        CFI Block cfiPicker136 Using cfiCommon1
        CFI (cfiPicker136) NoFunction
        CFI (cfiPicker136) Picker
        LCALL   ?Subroutine52 & 0xFFFF
??CrossCallReturnLabel_80:
        CLR     C
        MOV     A,R6
        SUBB    A,R0
        MOV     A,R7
        SUBB    A,R1
        MOV     C,0xD0 /* PSW */.2
        XRL     A,PSW
        RLC     A
        RET
        CFI EndBlock cfiCond134
        CFI EndBlock cfiCond135
        CFI EndBlock cfiPicker136

        RSEG BANKED_CODE:CODE:NOROOT(0)
?Subroutine52:
        CFI Block cfiCond137 Using cfiCommon0
        CFI NoFunction
        CFI Conditional ??CrossCallReturnLabel_78
        CFI R6 load(1, XDATA, add(CFA_XSP16, literal(-20)))
        CFI VB load(1, XDATA, add(CFA_XSP16, literal(-19)))
        CFI V0 load(1, XDATA, add(CFA_XSP16, literal(-18)))
        CFI V1 load(1, XDATA, add(CFA_XSP16, literal(-17)))
        CFI V2 load(1, XDATA, add(CFA_XSP16, literal(-16)))
        CFI V3 load(1, XDATA, add(CFA_XSP16, literal(-15)))
        CFI V4 load(1, XDATA, add(CFA_XSP16, literal(-14)))
        CFI V5 load(1, XDATA, add(CFA_XSP16, literal(-13)))
        CFI V6 load(1, XDATA, add(CFA_XSP16, literal(-12)))
        CFI V7 load(1, XDATA, add(CFA_XSP16, literal(-11)))
        CFI V8 load(1, XDATA, add(CFA_XSP16, literal(-10)))
        CFI V9 load(1, XDATA, add(CFA_XSP16, literal(-9)))
        CFI V10 load(1, XDATA, add(CFA_XSP16, literal(-8)))
        CFI V11 load(1, XDATA, add(CFA_XSP16, literal(-7)))
        CFI R7 load(1, XDATA, add(CFA_XSP16, literal(-6)))
        CFI ?RET_LOW load(1, XDATA, add(CFA_XSP16, literal(-5)))
        CFI ?RET_HIGH load(1, XDATA, add(CFA_XSP16, literal(-4)))
        CFI ?BRET_EXT load(1, XDATA, add(CFA_XSP16, literal(-3)))
        CFI DPL0 load(1, XDATA, add(CFA_XSP16, literal(-2)))
        CFI DPH0 load(1, XDATA, add(CFA_XSP16, literal(-1)))
        CFI CFA_SP SP+0
        CFI CFA_XSP16 add(XSP16, 33)
        CFI Block cfiCond138 Using cfiCommon0
        CFI (cfiCond138) NoFunction
        CFI (cfiCond138) Conditional ??CrossCallReturnLabel_79
        CFI (cfiCond138) R6 load(1, XDATA, add(CFA_XSP16, literal(-20)))
        CFI (cfiCond138) VB load(1, XDATA, add(CFA_XSP16, literal(-19)))
        CFI (cfiCond138) V0 load(1, XDATA, add(CFA_XSP16, literal(-18)))
        CFI (cfiCond138) V1 load(1, XDATA, add(CFA_XSP16, literal(-17)))
        CFI (cfiCond138) V2 load(1, XDATA, add(CFA_XSP16, literal(-16)))
        CFI (cfiCond138) V3 load(1, XDATA, add(CFA_XSP16, literal(-15)))
        CFI (cfiCond138) V4 load(1, XDATA, add(CFA_XSP16, literal(-14)))
        CFI (cfiCond138) V5 load(1, XDATA, add(CFA_XSP16, literal(-13)))
        CFI (cfiCond138) V6 load(1, XDATA, add(CFA_XSP16, literal(-12)))
        CFI (cfiCond138) V7 load(1, XDATA, add(CFA_XSP16, literal(-11)))
        CFI (cfiCond138) V8 load(1, XDATA, add(CFA_XSP16, literal(-10)))
        CFI (cfiCond138) V9 load(1, XDATA, add(CFA_XSP16, literal(-9)))
        CFI (cfiCond138) V10 load(1, XDATA, add(CFA_XSP16, literal(-8)))
        CFI (cfiCond138) V11 load(1, XDATA, add(CFA_XSP16, literal(-7)))
        CFI (cfiCond138) R7 load(1, XDATA, add(CFA_XSP16, literal(-6)))
        CFI (cfiCond138) ?RET_LOW load(1, XDATA, add(CFA_XSP16, literal(-5)))
        CFI (cfiCond138) ?RET_HIGH load(1, XDATA, add(CFA_XSP16, literal(-4)))
        CFI (cfiCond138) ?BRET_EXT load(1, XDATA, add(CFA_XSP16, literal(-3)))
        CFI (cfiCond138) DPL0 load(1, XDATA, add(CFA_XSP16, literal(-2)))
        CFI (cfiCond138) DPH0 load(1, XDATA, add(CFA_XSP16, literal(-1)))
        CFI (cfiCond138) CFA_SP SP+0
        CFI (cfiCond138) CFA_XSP16 add(XSP16, 33)
        CFI Block cfiCond139 Using cfiCommon0
        CFI (cfiCond139) NoFunction
        CFI (cfiCond139) Conditional ??CrossCallReturnLabel_80, ??CrossCallReturnLabel_50
        CFI (cfiCond139) R6 load(1, XDATA, add(CFA_XSP16, literal(-20)))
        CFI (cfiCond139) VB load(1, XDATA, add(CFA_XSP16, literal(-19)))
        CFI (cfiCond139) V0 load(1, XDATA, add(CFA_XSP16, literal(-18)))
        CFI (cfiCond139) V1 load(1, XDATA, add(CFA_XSP16, literal(-17)))
        CFI (cfiCond139) V2 load(1, XDATA, add(CFA_XSP16, literal(-16)))
        CFI (cfiCond139) V3 load(1, XDATA, add(CFA_XSP16, literal(-15)))
        CFI (cfiCond139) V4 load(1, XDATA, add(CFA_XSP16, literal(-14)))
        CFI (cfiCond139) V5 load(1, XDATA, add(CFA_XSP16, literal(-13)))
        CFI (cfiCond139) V6 load(1, XDATA, add(CFA_XSP16, literal(-12)))
        CFI (cfiCond139) V7 load(1, XDATA, add(CFA_XSP16, literal(-11)))
        CFI (cfiCond139) V8 load(1, XDATA, add(CFA_XSP16, literal(-10)))
        CFI (cfiCond139) V9 load(1, XDATA, add(CFA_XSP16, literal(-9)))
        CFI (cfiCond139) V10 load(1, XDATA, add(CFA_XSP16, literal(-8)))
        CFI (cfiCond139) V11 load(1, XDATA, add(CFA_XSP16, literal(-7)))
        CFI (cfiCond139) R7 load(1, XDATA, add(CFA_XSP16, literal(-6)))
        CFI (cfiCond139) ?RET_LOW load(1, XDATA, add(CFA_XSP16, literal(-5)))
        CFI (cfiCond139) ?RET_HIGH load(1, XDATA, add(CFA_XSP16, literal(-4)))
        CFI (cfiCond139) ?BRET_EXT load(1, XDATA, add(CFA_XSP16, literal(-3)))
        CFI (cfiCond139) DPL0 load(1, XDATA, add(CFA_XSP16, literal(-2)))
        CFI (cfiCond139) DPH0 load(1, XDATA, add(CFA_XSP16, literal(-1)))
        CFI (cfiCond139) CFA_SP SP+0
        CFI (cfiCond139) CFA_XSP16 add(XSP16, 33)
        CFI Block cfiCond140 Using cfiCommon0
        CFI (cfiCond140) NoFunction
        CFI (cfiCond140) Conditional ??CrossCallReturnLabel_80, ??CrossCallReturnLabel_51
        CFI (cfiCond140) R6 load(1, XDATA, add(CFA_XSP16, literal(-20)))
        CFI (cfiCond140) VB load(1, XDATA, add(CFA_XSP16, literal(-19)))
        CFI (cfiCond140) V0 load(1, XDATA, add(CFA_XSP16, literal(-18)))
        CFI (cfiCond140) V1 load(1, XDATA, add(CFA_XSP16, literal(-17)))
        CFI (cfiCond140) V2 load(1, XDATA, add(CFA_XSP16, literal(-16)))
        CFI (cfiCond140) V3 load(1, XDATA, add(CFA_XSP16, literal(-15)))
        CFI (cfiCond140) V4 load(1, XDATA, add(CFA_XSP16, literal(-14)))
        CFI (cfiCond140) V5 load(1, XDATA, add(CFA_XSP16, literal(-13)))
        CFI (cfiCond140) V6 load(1, XDATA, add(CFA_XSP16, literal(-12)))
        CFI (cfiCond140) V7 load(1, XDATA, add(CFA_XSP16, literal(-11)))
        CFI (cfiCond140) V8 load(1, XDATA, add(CFA_XSP16, literal(-10)))
        CFI (cfiCond140) V9 load(1, XDATA, add(CFA_XSP16, literal(-9)))
        CFI (cfiCond140) V10 load(1, XDATA, add(CFA_XSP16, literal(-8)))
        CFI (cfiCond140) V11 load(1, XDATA, add(CFA_XSP16, literal(-7)))
        CFI (cfiCond140) R7 load(1, XDATA, add(CFA_XSP16, literal(-6)))
        CFI (cfiCond140) ?RET_LOW load(1, XDATA, add(CFA_XSP16, literal(-5)))
        CFI (cfiCond140) ?RET_HIGH load(1, XDATA, add(CFA_XSP16, literal(-4)))
        CFI (cfiCond140) ?BRET_EXT load(1, XDATA, add(CFA_XSP16, literal(-3)))
        CFI (cfiCond140) DPL0 load(1, XDATA, add(CFA_XSP16, literal(-2)))
        CFI (cfiCond140) DPH0 load(1, XDATA, add(CFA_XSP16, literal(-1)))
        CFI (cfiCond140) CFA_SP SP+0
        CFI (cfiCond140) CFA_XSP16 add(XSP16, 33)
        CFI Block cfiPicker141 Using cfiCommon1
        CFI (cfiPicker141) NoFunction
        CFI (cfiPicker141) Picker
        MOV     DPTR,#NEI_NUM
        MOVX    A,@DPTR
        MOV     R0,A
        RLC     A
        SUBB    A,0xE0 /* A   */
        MOV     R1,A
        RET
        CFI EndBlock cfiCond137
        CFI EndBlock cfiCond138
        CFI EndBlock cfiCond139
        CFI EndBlock cfiCond140
        CFI EndBlock cfiPicker141

        RSEG BANKED_CODE:CODE:NOROOT(0)
?Subroutine28:
        CFI Block cfiCond142 Using cfiCommon0
        CFI NoFunction
        CFI Conditional ??CrossCallReturnLabel_132
        CFI R6 load(1, XDATA, add(CFA_XSP16, literal(-20)))
        CFI VB load(1, XDATA, add(CFA_XSP16, literal(-19)))
        CFI V0 load(1, XDATA, add(CFA_XSP16, literal(-18)))
        CFI V1 load(1, XDATA, add(CFA_XSP16, literal(-17)))
        CFI V2 load(1, XDATA, add(CFA_XSP16, literal(-16)))
        CFI V3 load(1, XDATA, add(CFA_XSP16, literal(-15)))
        CFI V4 load(1, XDATA, add(CFA_XSP16, literal(-14)))
        CFI V5 load(1, XDATA, add(CFA_XSP16, literal(-13)))
        CFI V6 load(1, XDATA, add(CFA_XSP16, literal(-12)))
        CFI V7 load(1, XDATA, add(CFA_XSP16, literal(-11)))
        CFI V8 load(1, XDATA, add(CFA_XSP16, literal(-10)))
        CFI V9 load(1, XDATA, add(CFA_XSP16, literal(-9)))
        CFI V10 load(1, XDATA, add(CFA_XSP16, literal(-8)))
        CFI V11 load(1, XDATA, add(CFA_XSP16, literal(-7)))
        CFI R7 load(1, XDATA, add(CFA_XSP16, literal(-6)))
        CFI ?RET_LOW load(1, XDATA, add(CFA_XSP16, literal(-5)))
        CFI ?RET_HIGH load(1, XDATA, add(CFA_XSP16, literal(-4)))
        CFI ?BRET_EXT load(1, XDATA, add(CFA_XSP16, literal(-3)))
        CFI DPL0 load(1, XDATA, add(CFA_XSP16, literal(-2)))
        CFI DPH0 load(1, XDATA, add(CFA_XSP16, literal(-1)))
        CFI CFA_SP SP+0
        CFI CFA_XSP16 add(XSP16, 33)
        CFI Block cfiCond143 Using cfiCommon0
        CFI (cfiCond143) NoFunction
        CFI (cfiCond143) Conditional ??CrossCallReturnLabel_133
        CFI (cfiCond143) R6 load(1, XDATA, add(CFA_XSP16, literal(-20)))
        CFI (cfiCond143) VB load(1, XDATA, add(CFA_XSP16, literal(-19)))
        CFI (cfiCond143) V0 load(1, XDATA, add(CFA_XSP16, literal(-18)))
        CFI (cfiCond143) V1 load(1, XDATA, add(CFA_XSP16, literal(-17)))
        CFI (cfiCond143) V2 load(1, XDATA, add(CFA_XSP16, literal(-16)))
        CFI (cfiCond143) V3 load(1, XDATA, add(CFA_XSP16, literal(-15)))
        CFI (cfiCond143) V4 load(1, XDATA, add(CFA_XSP16, literal(-14)))
        CFI (cfiCond143) V5 load(1, XDATA, add(CFA_XSP16, literal(-13)))
        CFI (cfiCond143) V6 load(1, XDATA, add(CFA_XSP16, literal(-12)))
        CFI (cfiCond143) V7 load(1, XDATA, add(CFA_XSP16, literal(-11)))
        CFI (cfiCond143) V8 load(1, XDATA, add(CFA_XSP16, literal(-10)))
        CFI (cfiCond143) V9 load(1, XDATA, add(CFA_XSP16, literal(-9)))
        CFI (cfiCond143) V10 load(1, XDATA, add(CFA_XSP16, literal(-8)))
        CFI (cfiCond143) V11 load(1, XDATA, add(CFA_XSP16, literal(-7)))
        CFI (cfiCond143) R7 load(1, XDATA, add(CFA_XSP16, literal(-6)))
        CFI (cfiCond143) ?RET_LOW load(1, XDATA, add(CFA_XSP16, literal(-5)))
        CFI (cfiCond143) ?RET_HIGH load(1, XDATA, add(CFA_XSP16, literal(-4)))
        CFI (cfiCond143) ?BRET_EXT load(1, XDATA, add(CFA_XSP16, literal(-3)))
        CFI (cfiCond143) DPL0 load(1, XDATA, add(CFA_XSP16, literal(-2)))
        CFI (cfiCond143) DPH0 load(1, XDATA, add(CFA_XSP16, literal(-1)))
        CFI (cfiCond143) CFA_SP SP+0
        CFI (cfiCond143) CFA_XSP16 add(XSP16, 33)
        CFI Block cfiPicker144 Using cfiCommon1
        CFI (cfiPicker144) NoFunction
        CFI (cfiPicker144) Picker
        MOV     ?V0 + 0,?V0 + 4
        CFI EndBlock cfiCond142
        CFI EndBlock cfiCond143
        CFI EndBlock cfiPicker144
        REQUIRE ??Subroutine69_0
        ; // Fall through to label ??Subroutine69_0

        RSEG BANKED_CODE:CODE:NOROOT(0)
??Subroutine69_0:
        CFI Block cfiCond145 Using cfiCommon0
        CFI NoFunction
        CFI Conditional ??CrossCallReturnLabel_130
        CFI R6 load(1, XDATA, add(CFA_XSP16, literal(-20)))
        CFI VB load(1, XDATA, add(CFA_XSP16, literal(-19)))
        CFI V0 load(1, XDATA, add(CFA_XSP16, literal(-18)))
        CFI V1 load(1, XDATA, add(CFA_XSP16, literal(-17)))
        CFI V2 load(1, XDATA, add(CFA_XSP16, literal(-16)))
        CFI V3 load(1, XDATA, add(CFA_XSP16, literal(-15)))
        CFI V4 load(1, XDATA, add(CFA_XSP16, literal(-14)))
        CFI V5 load(1, XDATA, add(CFA_XSP16, literal(-13)))
        CFI V6 load(1, XDATA, add(CFA_XSP16, literal(-12)))
        CFI V7 load(1, XDATA, add(CFA_XSP16, literal(-11)))
        CFI V8 load(1, XDATA, add(CFA_XSP16, literal(-10)))
        CFI V9 load(1, XDATA, add(CFA_XSP16, literal(-9)))
        CFI V10 load(1, XDATA, add(CFA_XSP16, literal(-8)))
        CFI V11 load(1, XDATA, add(CFA_XSP16, literal(-7)))
        CFI R7 load(1, XDATA, add(CFA_XSP16, literal(-6)))
        CFI ?RET_LOW load(1, XDATA, add(CFA_XSP16, literal(-5)))
        CFI ?RET_HIGH load(1, XDATA, add(CFA_XSP16, literal(-4)))
        CFI ?BRET_EXT load(1, XDATA, add(CFA_XSP16, literal(-3)))
        CFI DPL0 load(1, XDATA, add(CFA_XSP16, literal(-2)))
        CFI DPH0 load(1, XDATA, add(CFA_XSP16, literal(-1)))
        CFI CFA_SP SP+0
        CFI CFA_XSP16 add(XSP16, 33)
        CFI Block cfiCond146 Using cfiCommon0
        CFI (cfiCond146) NoFunction
        CFI (cfiCond146) Conditional ??CrossCallReturnLabel_131
        CFI (cfiCond146) R6 load(1, XDATA, add(CFA_XSP16, literal(-20)))
        CFI (cfiCond146) VB load(1, XDATA, add(CFA_XSP16, literal(-19)))
        CFI (cfiCond146) V0 load(1, XDATA, add(CFA_XSP16, literal(-18)))
        CFI (cfiCond146) V1 load(1, XDATA, add(CFA_XSP16, literal(-17)))
        CFI (cfiCond146) V2 load(1, XDATA, add(CFA_XSP16, literal(-16)))
        CFI (cfiCond146) V3 load(1, XDATA, add(CFA_XSP16, literal(-15)))
        CFI (cfiCond146) V4 load(1, XDATA, add(CFA_XSP16, literal(-14)))
        CFI (cfiCond146) V5 load(1, XDATA, add(CFA_XSP16, literal(-13)))
        CFI (cfiCond146) V6 load(1, XDATA, add(CFA_XSP16, literal(-12)))
        CFI (cfiCond146) V7 load(1, XDATA, add(CFA_XSP16, literal(-11)))
        CFI (cfiCond146) V8 load(1, XDATA, add(CFA_XSP16, literal(-10)))
        CFI (cfiCond146) V9 load(1, XDATA, add(CFA_XSP16, literal(-9)))
        CFI (cfiCond146) V10 load(1, XDATA, add(CFA_XSP16, literal(-8)))
        CFI (cfiCond146) V11 load(1, XDATA, add(CFA_XSP16, literal(-7)))
        CFI (cfiCond146) R7 load(1, XDATA, add(CFA_XSP16, literal(-6)))
        CFI (cfiCond146) ?RET_LOW load(1, XDATA, add(CFA_XSP16, literal(-5)))
        CFI (cfiCond146) ?RET_HIGH load(1, XDATA, add(CFA_XSP16, literal(-4)))
        CFI (cfiCond146) ?BRET_EXT load(1, XDATA, add(CFA_XSP16, literal(-3)))
        CFI (cfiCond146) DPL0 load(1, XDATA, add(CFA_XSP16, literal(-2)))
        CFI (cfiCond146) DPH0 load(1, XDATA, add(CFA_XSP16, literal(-1)))
        CFI (cfiCond146) CFA_SP SP+0
        CFI (cfiCond146) CFA_XSP16 add(XSP16, 33)
        CFI Block cfiCond147 Using cfiCommon0
        CFI (cfiCond147) NoFunction
        CFI (cfiCond147) Conditional ??CrossCallReturnLabel_132
        CFI (cfiCond147) R6 load(1, XDATA, add(CFA_XSP16, literal(-20)))
        CFI (cfiCond147) VB load(1, XDATA, add(CFA_XSP16, literal(-19)))
        CFI (cfiCond147) V0 load(1, XDATA, add(CFA_XSP16, literal(-18)))
        CFI (cfiCond147) V1 load(1, XDATA, add(CFA_XSP16, literal(-17)))
        CFI (cfiCond147) V2 load(1, XDATA, add(CFA_XSP16, literal(-16)))
        CFI (cfiCond147) V3 load(1, XDATA, add(CFA_XSP16, literal(-15)))
        CFI (cfiCond147) V4 load(1, XDATA, add(CFA_XSP16, literal(-14)))
        CFI (cfiCond147) V5 load(1, XDATA, add(CFA_XSP16, literal(-13)))
        CFI (cfiCond147) V6 load(1, XDATA, add(CFA_XSP16, literal(-12)))
        CFI (cfiCond147) V7 load(1, XDATA, add(CFA_XSP16, literal(-11)))
        CFI (cfiCond147) V8 load(1, XDATA, add(CFA_XSP16, literal(-10)))
        CFI (cfiCond147) V9 load(1, XDATA, add(CFA_XSP16, literal(-9)))
        CFI (cfiCond147) V10 load(1, XDATA, add(CFA_XSP16, literal(-8)))
        CFI (cfiCond147) V11 load(1, XDATA, add(CFA_XSP16, literal(-7)))
        CFI (cfiCond147) R7 load(1, XDATA, add(CFA_XSP16, literal(-6)))
        CFI (cfiCond147) ?RET_LOW load(1, XDATA, add(CFA_XSP16, literal(-5)))
        CFI (cfiCond147) ?RET_HIGH load(1, XDATA, add(CFA_XSP16, literal(-4)))
        CFI (cfiCond147) ?BRET_EXT load(1, XDATA, add(CFA_XSP16, literal(-3)))
        CFI (cfiCond147) DPL0 load(1, XDATA, add(CFA_XSP16, literal(-2)))
        CFI (cfiCond147) DPH0 load(1, XDATA, add(CFA_XSP16, literal(-1)))
        CFI (cfiCond147) CFA_SP SP+0
        CFI (cfiCond147) CFA_XSP16 add(XSP16, 33)
        CFI Block cfiCond148 Using cfiCommon0
        CFI (cfiCond148) NoFunction
        CFI (cfiCond148) Conditional ??CrossCallReturnLabel_133
        CFI (cfiCond148) R6 load(1, XDATA, add(CFA_XSP16, literal(-20)))
        CFI (cfiCond148) VB load(1, XDATA, add(CFA_XSP16, literal(-19)))
        CFI (cfiCond148) V0 load(1, XDATA, add(CFA_XSP16, literal(-18)))
        CFI (cfiCond148) V1 load(1, XDATA, add(CFA_XSP16, literal(-17)))
        CFI (cfiCond148) V2 load(1, XDATA, add(CFA_XSP16, literal(-16)))
        CFI (cfiCond148) V3 load(1, XDATA, add(CFA_XSP16, literal(-15)))
        CFI (cfiCond148) V4 load(1, XDATA, add(CFA_XSP16, literal(-14)))
        CFI (cfiCond148) V5 load(1, XDATA, add(CFA_XSP16, literal(-13)))
        CFI (cfiCond148) V6 load(1, XDATA, add(CFA_XSP16, literal(-12)))
        CFI (cfiCond148) V7 load(1, XDATA, add(CFA_XSP16, literal(-11)))
        CFI (cfiCond148) V8 load(1, XDATA, add(CFA_XSP16, literal(-10)))
        CFI (cfiCond148) V9 load(1, XDATA, add(CFA_XSP16, literal(-9)))
        CFI (cfiCond148) V10 load(1, XDATA, add(CFA_XSP16, literal(-8)))
        CFI (cfiCond148) V11 load(1, XDATA, add(CFA_XSP16, literal(-7)))
        CFI (cfiCond148) R7 load(1, XDATA, add(CFA_XSP16, literal(-6)))
        CFI (cfiCond148) ?RET_LOW load(1, XDATA, add(CFA_XSP16, literal(-5)))
        CFI (cfiCond148) ?RET_HIGH load(1, XDATA, add(CFA_XSP16, literal(-4)))
        CFI (cfiCond148) ?BRET_EXT load(1, XDATA, add(CFA_XSP16, literal(-3)))
        CFI (cfiCond148) DPL0 load(1, XDATA, add(CFA_XSP16, literal(-2)))
        CFI (cfiCond148) DPH0 load(1, XDATA, add(CFA_XSP16, literal(-1)))
        CFI (cfiCond148) CFA_SP SP+0
        CFI (cfiCond148) CFA_XSP16 add(XSP16, 33)
        CFI Block cfiPicker149 Using cfiCommon1
        CFI (cfiPicker149) NoFunction
        CFI (cfiPicker149) Picker
        MOV     DPTR,#MAX_Degree
        LCALL   ?Subroutine50 & 0xFFFF
??CrossCallReturnLabel_138:
        CLR     C
        MOV     A,?V0 + 0
        SUBB    A,R0
        CLR     A
        SUBB    A,R1
        RET
        CFI EndBlock cfiCond145
        CFI EndBlock cfiCond146
        CFI EndBlock cfiCond147
        CFI EndBlock cfiCond148
        CFI EndBlock cfiPicker149

        RSEG BANKED_CODE:CODE:NOROOT(0)
?Subroutine27:
        CFI Block cfiCond150 Using cfiCommon0
        CFI NoFunction
        CFI Conditional ??CrossCallReturnLabel_48
        CFI R6 load(1, XDATA, add(CFA_XSP16, literal(-20)))
        CFI VB load(1, XDATA, add(CFA_XSP16, literal(-19)))
        CFI V0 load(1, XDATA, add(CFA_XSP16, literal(-18)))
        CFI V1 load(1, XDATA, add(CFA_XSP16, literal(-17)))
        CFI V2 load(1, XDATA, add(CFA_XSP16, literal(-16)))
        CFI V3 load(1, XDATA, add(CFA_XSP16, literal(-15)))
        CFI V4 load(1, XDATA, add(CFA_XSP16, literal(-14)))
        CFI V5 load(1, XDATA, add(CFA_XSP16, literal(-13)))
        CFI V6 load(1, XDATA, add(CFA_XSP16, literal(-12)))
        CFI V7 load(1, XDATA, add(CFA_XSP16, literal(-11)))
        CFI V8 load(1, XDATA, add(CFA_XSP16, literal(-10)))
        CFI V9 load(1, XDATA, add(CFA_XSP16, literal(-9)))
        CFI V10 load(1, XDATA, add(CFA_XSP16, literal(-8)))
        CFI V11 load(1, XDATA, add(CFA_XSP16, literal(-7)))
        CFI R7 load(1, XDATA, add(CFA_XSP16, literal(-6)))
        CFI ?RET_LOW load(1, XDATA, add(CFA_XSP16, literal(-5)))
        CFI ?RET_HIGH load(1, XDATA, add(CFA_XSP16, literal(-4)))
        CFI ?BRET_EXT load(1, XDATA, add(CFA_XSP16, literal(-3)))
        CFI DPL0 load(1, XDATA, add(CFA_XSP16, literal(-2)))
        CFI DPH0 load(1, XDATA, add(CFA_XSP16, literal(-1)))
        CFI CFA_SP SP+0
        CFI CFA_XSP16 add(XSP16, 33)
        CFI Block cfiCond151 Using cfiCommon0
        CFI (cfiCond151) NoFunction
        CFI (cfiCond151) Conditional ??CrossCallReturnLabel_49
        CFI (cfiCond151) R6 load(1, XDATA, add(CFA_XSP16, literal(-20)))
        CFI (cfiCond151) VB load(1, XDATA, add(CFA_XSP16, literal(-19)))
        CFI (cfiCond151) V0 load(1, XDATA, add(CFA_XSP16, literal(-18)))
        CFI (cfiCond151) V1 load(1, XDATA, add(CFA_XSP16, literal(-17)))
        CFI (cfiCond151) V2 load(1, XDATA, add(CFA_XSP16, literal(-16)))
        CFI (cfiCond151) V3 load(1, XDATA, add(CFA_XSP16, literal(-15)))
        CFI (cfiCond151) V4 load(1, XDATA, add(CFA_XSP16, literal(-14)))
        CFI (cfiCond151) V5 load(1, XDATA, add(CFA_XSP16, literal(-13)))
        CFI (cfiCond151) V6 load(1, XDATA, add(CFA_XSP16, literal(-12)))
        CFI (cfiCond151) V7 load(1, XDATA, add(CFA_XSP16, literal(-11)))
        CFI (cfiCond151) V8 load(1, XDATA, add(CFA_XSP16, literal(-10)))
        CFI (cfiCond151) V9 load(1, XDATA, add(CFA_XSP16, literal(-9)))
        CFI (cfiCond151) V10 load(1, XDATA, add(CFA_XSP16, literal(-8)))
        CFI (cfiCond151) V11 load(1, XDATA, add(CFA_XSP16, literal(-7)))
        CFI (cfiCond151) R7 load(1, XDATA, add(CFA_XSP16, literal(-6)))
        CFI (cfiCond151) ?RET_LOW load(1, XDATA, add(CFA_XSP16, literal(-5)))
        CFI (cfiCond151) ?RET_HIGH load(1, XDATA, add(CFA_XSP16, literal(-4)))
        CFI (cfiCond151) ?BRET_EXT load(1, XDATA, add(CFA_XSP16, literal(-3)))
        CFI (cfiCond151) DPL0 load(1, XDATA, add(CFA_XSP16, literal(-2)))
        CFI (cfiCond151) DPH0 load(1, XDATA, add(CFA_XSP16, literal(-1)))
        CFI (cfiCond151) CFA_SP SP+0
        CFI (cfiCond151) CFA_XSP16 add(XSP16, 33)
        CFI Block cfiPicker152 Using cfiCommon1
        CFI (cfiPicker152) NoFunction
        CFI (cfiPicker152) Picker
        LCALL   ?Subroutine50 & 0xFFFF
??CrossCallReturnLabel_137:
        MOV     DPL,R0
        MOV     DPH,R1
        INC     DPTR
        MOVX    A,@DPTR
        MOV     ?V0 + 5,A
        MOV     DPL,R0
        MOV     DPH,R1
        INC     DPTR
        INC     DPTR
        INC     DPTR
        MOVX    A,@DPTR
        MOV     R2,A
        MOV     DPL,R0
        MOV     DPH,R1
        INC     DPTR
        INC     DPTR
        MOVX    A,@DPTR
        MOV     R0,A
        CLR     A
        XCH     A,R0
        MOV     R1,A
        MOV     A,R2
        MOV     R6,A
        MOV     A,R1
        MOV     R7,A
        MOV     ?V0 + 4,R0
        MOV     ?V0 + 2,R0
        MOV     ?V0 + 0,R0
        MOV     ?V0 + 1,R0
        RET
        CFI EndBlock cfiCond150
        CFI EndBlock cfiCond151
        CFI EndBlock cfiPicker152

        RSEG BANKED_CODE:CODE:NOROOT(0)
?Subroutine50:
        CFI Block cfiCond153 Using cfiCommon0
        CFI NoFunction
        CFI Conditional ??CrossCallReturnLabel_134
        CFI R6 load(1, XDATA, add(CFA_XSP16, literal(-20)))
        CFI VB load(1, XDATA, add(CFA_XSP16, literal(-19)))
        CFI V0 load(1, XDATA, add(CFA_XSP16, literal(-18)))
        CFI V1 load(1, XDATA, add(CFA_XSP16, literal(-17)))
        CFI V2 load(1, XDATA, add(CFA_XSP16, literal(-16)))
        CFI V3 load(1, XDATA, add(CFA_XSP16, literal(-15)))
        CFI V4 load(1, XDATA, add(CFA_XSP16, literal(-14)))
        CFI V5 load(1, XDATA, add(CFA_XSP16, literal(-13)))
        CFI V6 load(1, XDATA, add(CFA_XSP16, literal(-12)))
        CFI V7 load(1, XDATA, add(CFA_XSP16, literal(-11)))
        CFI V8 load(1, XDATA, add(CFA_XSP16, literal(-10)))
        CFI V9 load(1, XDATA, add(CFA_XSP16, literal(-9)))
        CFI V10 load(1, XDATA, add(CFA_XSP16, literal(-8)))
        CFI V11 load(1, XDATA, add(CFA_XSP16, literal(-7)))
        CFI R7 load(1, XDATA, add(CFA_XSP16, literal(-6)))
        CFI ?RET_LOW load(1, XDATA, add(CFA_XSP16, literal(-5)))
        CFI ?RET_HIGH load(1, XDATA, add(CFA_XSP16, literal(-4)))
        CFI ?BRET_EXT load(1, XDATA, add(CFA_XSP16, literal(-3)))
        CFI DPL0 load(1, XDATA, add(CFA_XSP16, literal(-2)))
        CFI DPH0 load(1, XDATA, add(CFA_XSP16, literal(-1)))
        CFI CFA_SP SP+0
        CFI CFA_XSP16 add(XSP16, 33)
        CFI Block cfiCond154 Using cfiCommon0
        CFI (cfiCond154) NoFunction
        CFI (cfiCond154) Conditional ??CrossCallReturnLabel_138, ??CrossCallReturnLabel_132
        CFI (cfiCond154) R6 load(1, XDATA, add(CFA_XSP16, literal(-20)))
        CFI (cfiCond154) VB load(1, XDATA, add(CFA_XSP16, literal(-19)))
        CFI (cfiCond154) V0 load(1, XDATA, add(CFA_XSP16, literal(-18)))
        CFI (cfiCond154) V1 load(1, XDATA, add(CFA_XSP16, literal(-17)))
        CFI (cfiCond154) V2 load(1, XDATA, add(CFA_XSP16, literal(-16)))
        CFI (cfiCond154) V3 load(1, XDATA, add(CFA_XSP16, literal(-15)))
        CFI (cfiCond154) V4 load(1, XDATA, add(CFA_XSP16, literal(-14)))
        CFI (cfiCond154) V5 load(1, XDATA, add(CFA_XSP16, literal(-13)))
        CFI (cfiCond154) V6 load(1, XDATA, add(CFA_XSP16, literal(-12)))
        CFI (cfiCond154) V7 load(1, XDATA, add(CFA_XSP16, literal(-11)))
        CFI (cfiCond154) V8 load(1, XDATA, add(CFA_XSP16, literal(-10)))
        CFI (cfiCond154) V9 load(1, XDATA, add(CFA_XSP16, literal(-9)))
        CFI (cfiCond154) V10 load(1, XDATA, add(CFA_XSP16, literal(-8)))
        CFI (cfiCond154) V11 load(1, XDATA, add(CFA_XSP16, literal(-7)))
        CFI (cfiCond154) R7 load(1, XDATA, add(CFA_XSP16, literal(-6)))
        CFI (cfiCond154) ?RET_LOW load(1, XDATA, add(CFA_XSP16, literal(-5)))
        CFI (cfiCond154) ?RET_HIGH load(1, XDATA, add(CFA_XSP16, literal(-4)))
        CFI (cfiCond154) ?BRET_EXT load(1, XDATA, add(CFA_XSP16, literal(-3)))
        CFI (cfiCond154) DPL0 load(1, XDATA, add(CFA_XSP16, literal(-2)))
        CFI (cfiCond154) DPH0 load(1, XDATA, add(CFA_XSP16, literal(-1)))
        CFI (cfiCond154) CFA_SP SP+0
        CFI (cfiCond154) CFA_XSP16 add(XSP16, 33)
        CFI Block cfiCond155 Using cfiCommon0
        CFI (cfiCond155) NoFunction
        CFI (cfiCond155) Conditional ??CrossCallReturnLabel_138, ??CrossCallReturnLabel_133
        CFI (cfiCond155) R6 load(1, XDATA, add(CFA_XSP16, literal(-20)))
        CFI (cfiCond155) VB load(1, XDATA, add(CFA_XSP16, literal(-19)))
        CFI (cfiCond155) V0 load(1, XDATA, add(CFA_XSP16, literal(-18)))
        CFI (cfiCond155) V1 load(1, XDATA, add(CFA_XSP16, literal(-17)))
        CFI (cfiCond155) V2 load(1, XDATA, add(CFA_XSP16, literal(-16)))
        CFI (cfiCond155) V3 load(1, XDATA, add(CFA_XSP16, literal(-15)))
        CFI (cfiCond155) V4 load(1, XDATA, add(CFA_XSP16, literal(-14)))
        CFI (cfiCond155) V5 load(1, XDATA, add(CFA_XSP16, literal(-13)))
        CFI (cfiCond155) V6 load(1, XDATA, add(CFA_XSP16, literal(-12)))
        CFI (cfiCond155) V7 load(1, XDATA, add(CFA_XSP16, literal(-11)))
        CFI (cfiCond155) V8 load(1, XDATA, add(CFA_XSP16, literal(-10)))
        CFI (cfiCond155) V9 load(1, XDATA, add(CFA_XSP16, literal(-9)))
        CFI (cfiCond155) V10 load(1, XDATA, add(CFA_XSP16, literal(-8)))
        CFI (cfiCond155) V11 load(1, XDATA, add(CFA_XSP16, literal(-7)))
        CFI (cfiCond155) R7 load(1, XDATA, add(CFA_XSP16, literal(-6)))
        CFI (cfiCond155) ?RET_LOW load(1, XDATA, add(CFA_XSP16, literal(-5)))
        CFI (cfiCond155) ?RET_HIGH load(1, XDATA, add(CFA_XSP16, literal(-4)))
        CFI (cfiCond155) ?BRET_EXT load(1, XDATA, add(CFA_XSP16, literal(-3)))
        CFI (cfiCond155) DPL0 load(1, XDATA, add(CFA_XSP16, literal(-2)))
        CFI (cfiCond155) DPH0 load(1, XDATA, add(CFA_XSP16, literal(-1)))
        CFI (cfiCond155) CFA_SP SP+0
        CFI (cfiCond155) CFA_XSP16 add(XSP16, 33)
        CFI Block cfiCond156 Using cfiCommon0
        CFI (cfiCond156) NoFunction
        CFI (cfiCond156) Conditional ??CrossCallReturnLabel_138, ??CrossCallReturnLabel_130
        CFI (cfiCond156) R6 load(1, XDATA, add(CFA_XSP16, literal(-20)))
        CFI (cfiCond156) VB load(1, XDATA, add(CFA_XSP16, literal(-19)))
        CFI (cfiCond156) V0 load(1, XDATA, add(CFA_XSP16, literal(-18)))
        CFI (cfiCond156) V1 load(1, XDATA, add(CFA_XSP16, literal(-17)))
        CFI (cfiCond156) V2 load(1, XDATA, add(CFA_XSP16, literal(-16)))
        CFI (cfiCond156) V3 load(1, XDATA, add(CFA_XSP16, literal(-15)))
        CFI (cfiCond156) V4 load(1, XDATA, add(CFA_XSP16, literal(-14)))
        CFI (cfiCond156) V5 load(1, XDATA, add(CFA_XSP16, literal(-13)))
        CFI (cfiCond156) V6 load(1, XDATA, add(CFA_XSP16, literal(-12)))
        CFI (cfiCond156) V7 load(1, XDATA, add(CFA_XSP16, literal(-11)))
        CFI (cfiCond156) V8 load(1, XDATA, add(CFA_XSP16, literal(-10)))
        CFI (cfiCond156) V9 load(1, XDATA, add(CFA_XSP16, literal(-9)))
        CFI (cfiCond156) V10 load(1, XDATA, add(CFA_XSP16, literal(-8)))
        CFI (cfiCond156) V11 load(1, XDATA, add(CFA_XSP16, literal(-7)))
        CFI (cfiCond156) R7 load(1, XDATA, add(CFA_XSP16, literal(-6)))
        CFI (cfiCond156) ?RET_LOW load(1, XDATA, add(CFA_XSP16, literal(-5)))
        CFI (cfiCond156) ?RET_HIGH load(1, XDATA, add(CFA_XSP16, literal(-4)))
        CFI (cfiCond156) ?BRET_EXT load(1, XDATA, add(CFA_XSP16, literal(-3)))
        CFI (cfiCond156) DPL0 load(1, XDATA, add(CFA_XSP16, literal(-2)))
        CFI (cfiCond156) DPH0 load(1, XDATA, add(CFA_XSP16, literal(-1)))
        CFI (cfiCond156) CFA_SP SP+0
        CFI (cfiCond156) CFA_XSP16 add(XSP16, 33)
        CFI Block cfiCond157 Using cfiCommon0
        CFI (cfiCond157) NoFunction
        CFI (cfiCond157) Conditional ??CrossCallReturnLabel_138, ??CrossCallReturnLabel_131
        CFI (cfiCond157) R6 load(1, XDATA, add(CFA_XSP16, literal(-20)))
        CFI (cfiCond157) VB load(1, XDATA, add(CFA_XSP16, literal(-19)))
        CFI (cfiCond157) V0 load(1, XDATA, add(CFA_XSP16, literal(-18)))
        CFI (cfiCond157) V1 load(1, XDATA, add(CFA_XSP16, literal(-17)))
        CFI (cfiCond157) V2 load(1, XDATA, add(CFA_XSP16, literal(-16)))
        CFI (cfiCond157) V3 load(1, XDATA, add(CFA_XSP16, literal(-15)))
        CFI (cfiCond157) V4 load(1, XDATA, add(CFA_XSP16, literal(-14)))
        CFI (cfiCond157) V5 load(1, XDATA, add(CFA_XSP16, literal(-13)))
        CFI (cfiCond157) V6 load(1, XDATA, add(CFA_XSP16, literal(-12)))
        CFI (cfiCond157) V7 load(1, XDATA, add(CFA_XSP16, literal(-11)))
        CFI (cfiCond157) V8 load(1, XDATA, add(CFA_XSP16, literal(-10)))
        CFI (cfiCond157) V9 load(1, XDATA, add(CFA_XSP16, literal(-9)))
        CFI (cfiCond157) V10 load(1, XDATA, add(CFA_XSP16, literal(-8)))
        CFI (cfiCond157) V11 load(1, XDATA, add(CFA_XSP16, literal(-7)))
        CFI (cfiCond157) R7 load(1, XDATA, add(CFA_XSP16, literal(-6)))
        CFI (cfiCond157) ?RET_LOW load(1, XDATA, add(CFA_XSP16, literal(-5)))
        CFI (cfiCond157) ?RET_HIGH load(1, XDATA, add(CFA_XSP16, literal(-4)))
        CFI (cfiCond157) ?BRET_EXT load(1, XDATA, add(CFA_XSP16, literal(-3)))
        CFI (cfiCond157) DPL0 load(1, XDATA, add(CFA_XSP16, literal(-2)))
        CFI (cfiCond157) DPH0 load(1, XDATA, add(CFA_XSP16, literal(-1)))
        CFI (cfiCond157) CFA_SP SP+0
        CFI (cfiCond157) CFA_XSP16 add(XSP16, 33)
        CFI Block cfiCond158 Using cfiCommon0
        CFI (cfiCond158) NoFunction
        CFI (cfiCond158) Conditional ??CrossCallReturnLabel_137, ??CrossCallReturnLabel_48
        CFI (cfiCond158) R6 load(1, XDATA, add(CFA_XSP16, literal(-20)))
        CFI (cfiCond158) VB load(1, XDATA, add(CFA_XSP16, literal(-19)))
        CFI (cfiCond158) V0 load(1, XDATA, add(CFA_XSP16, literal(-18)))
        CFI (cfiCond158) V1 load(1, XDATA, add(CFA_XSP16, literal(-17)))
        CFI (cfiCond158) V2 load(1, XDATA, add(CFA_XSP16, literal(-16)))
        CFI (cfiCond158) V3 load(1, XDATA, add(CFA_XSP16, literal(-15)))
        CFI (cfiCond158) V4 load(1, XDATA, add(CFA_XSP16, literal(-14)))
        CFI (cfiCond158) V5 load(1, XDATA, add(CFA_XSP16, literal(-13)))
        CFI (cfiCond158) V6 load(1, XDATA, add(CFA_XSP16, literal(-12)))
        CFI (cfiCond158) V7 load(1, XDATA, add(CFA_XSP16, literal(-11)))
        CFI (cfiCond158) V8 load(1, XDATA, add(CFA_XSP16, literal(-10)))
        CFI (cfiCond158) V9 load(1, XDATA, add(CFA_XSP16, literal(-9)))
        CFI (cfiCond158) V10 load(1, XDATA, add(CFA_XSP16, literal(-8)))
        CFI (cfiCond158) V11 load(1, XDATA, add(CFA_XSP16, literal(-7)))
        CFI (cfiCond158) R7 load(1, XDATA, add(CFA_XSP16, literal(-6)))
        CFI (cfiCond158) ?RET_LOW load(1, XDATA, add(CFA_XSP16, literal(-5)))
        CFI (cfiCond158) ?RET_HIGH load(1, XDATA, add(CFA_XSP16, literal(-4)))
        CFI (cfiCond158) ?BRET_EXT load(1, XDATA, add(CFA_XSP16, literal(-3)))
        CFI (cfiCond158) DPL0 load(1, XDATA, add(CFA_XSP16, literal(-2)))
        CFI (cfiCond158) DPH0 load(1, XDATA, add(CFA_XSP16, literal(-1)))
        CFI (cfiCond158) CFA_SP SP+0
        CFI (cfiCond158) CFA_XSP16 add(XSP16, 33)
        CFI Block cfiCond159 Using cfiCommon0
        CFI (cfiCond159) NoFunction
        CFI (cfiCond159) Conditional ??CrossCallReturnLabel_137, ??CrossCallReturnLabel_49
        CFI (cfiCond159) R6 load(1, XDATA, add(CFA_XSP16, literal(-20)))
        CFI (cfiCond159) VB load(1, XDATA, add(CFA_XSP16, literal(-19)))
        CFI (cfiCond159) V0 load(1, XDATA, add(CFA_XSP16, literal(-18)))
        CFI (cfiCond159) V1 load(1, XDATA, add(CFA_XSP16, literal(-17)))
        CFI (cfiCond159) V2 load(1, XDATA, add(CFA_XSP16, literal(-16)))
        CFI (cfiCond159) V3 load(1, XDATA, add(CFA_XSP16, literal(-15)))
        CFI (cfiCond159) V4 load(1, XDATA, add(CFA_XSP16, literal(-14)))
        CFI (cfiCond159) V5 load(1, XDATA, add(CFA_XSP16, literal(-13)))
        CFI (cfiCond159) V6 load(1, XDATA, add(CFA_XSP16, literal(-12)))
        CFI (cfiCond159) V7 load(1, XDATA, add(CFA_XSP16, literal(-11)))
        CFI (cfiCond159) V8 load(1, XDATA, add(CFA_XSP16, literal(-10)))
        CFI (cfiCond159) V9 load(1, XDATA, add(CFA_XSP16, literal(-9)))
        CFI (cfiCond159) V10 load(1, XDATA, add(CFA_XSP16, literal(-8)))
        CFI (cfiCond159) V11 load(1, XDATA, add(CFA_XSP16, literal(-7)))
        CFI (cfiCond159) R7 load(1, XDATA, add(CFA_XSP16, literal(-6)))
        CFI (cfiCond159) ?RET_LOW load(1, XDATA, add(CFA_XSP16, literal(-5)))
        CFI (cfiCond159) ?RET_HIGH load(1, XDATA, add(CFA_XSP16, literal(-4)))
        CFI (cfiCond159) ?BRET_EXT load(1, XDATA, add(CFA_XSP16, literal(-3)))
        CFI (cfiCond159) DPL0 load(1, XDATA, add(CFA_XSP16, literal(-2)))
        CFI (cfiCond159) DPH0 load(1, XDATA, add(CFA_XSP16, literal(-1)))
        CFI (cfiCond159) CFA_SP SP+0
        CFI (cfiCond159) CFA_XSP16 add(XSP16, 33)
        CFI Block cfiCond160 Using cfiCommon0
        CFI (cfiCond160) NoFunction
        CFI (cfiCond160) Conditional ??CrossCallReturnLabel_135
        CFI (cfiCond160) R6 load(1, XDATA, add(CFA_XSP16, literal(-12)))
        CFI (cfiCond160) VB load(1, XDATA, add(CFA_XSP16, literal(-11)))
        CFI (cfiCond160) V0 load(1, XDATA, add(CFA_XSP16, literal(-10)))
        CFI (cfiCond160) V1 load(1, XDATA, add(CFA_XSP16, literal(-9)))
        CFI (cfiCond160) V2 load(1, XDATA, add(CFA_XSP16, literal(-8)))
        CFI (cfiCond160) V3 load(1, XDATA, add(CFA_XSP16, literal(-7)))
        CFI (cfiCond160) R7 load(1, XDATA, add(CFA_XSP16, literal(-6)))
        CFI (cfiCond160) ?RET_LOW load(1, XDATA, add(CFA_XSP16, literal(-5)))
        CFI (cfiCond160) ?RET_HIGH load(1, XDATA, add(CFA_XSP16, literal(-4)))
        CFI (cfiCond160) ?BRET_EXT load(1, XDATA, add(CFA_XSP16, literal(-3)))
        CFI (cfiCond160) DPL0 load(1, XDATA, add(CFA_XSP16, literal(-2)))
        CFI (cfiCond160) DPH0 load(1, XDATA, add(CFA_XSP16, literal(-1)))
        CFI (cfiCond160) CFA_SP SP+0
        CFI (cfiCond160) CFA_XSP16 add(XSP16, 17)
        CFI Block cfiCond161 Using cfiCommon0
        CFI (cfiCond161) NoFunction
        CFI (cfiCond161) Conditional ??CrossCallReturnLabel_136
        CFI (cfiCond161) R6 load(1, XDATA, add(CFA_XSP16, literal(-12)))
        CFI (cfiCond161) VB load(1, XDATA, add(CFA_XSP16, literal(-11)))
        CFI (cfiCond161) V0 load(1, XDATA, add(CFA_XSP16, literal(-10)))
        CFI (cfiCond161) V1 load(1, XDATA, add(CFA_XSP16, literal(-9)))
        CFI (cfiCond161) V2 load(1, XDATA, add(CFA_XSP16, literal(-8)))
        CFI (cfiCond161) V3 load(1, XDATA, add(CFA_XSP16, literal(-7)))
        CFI (cfiCond161) R7 load(1, XDATA, add(CFA_XSP16, literal(-6)))
        CFI (cfiCond161) ?RET_LOW load(1, XDATA, add(CFA_XSP16, literal(-5)))
        CFI (cfiCond161) ?RET_HIGH load(1, XDATA, add(CFA_XSP16, literal(-4)))
        CFI (cfiCond161) ?BRET_EXT load(1, XDATA, add(CFA_XSP16, literal(-3)))
        CFI (cfiCond161) DPL0 load(1, XDATA, add(CFA_XSP16, literal(-2)))
        CFI (cfiCond161) DPH0 load(1, XDATA, add(CFA_XSP16, literal(-1)))
        CFI (cfiCond161) CFA_SP SP+0
        CFI (cfiCond161) CFA_XSP16 add(XSP16, 17)
        CFI Block cfiPicker162 Using cfiCommon1
        CFI (cfiPicker162) NoFunction
        CFI (cfiPicker162) Picker
        MOVX    A,@DPTR
        MOV     R0,A
        INC     DPTR
        MOVX    A,@DPTR
        MOV     R1,A
        RET
        CFI EndBlock cfiCond153
        CFI EndBlock cfiCond154
        CFI EndBlock cfiCond155
        CFI EndBlock cfiCond156
        CFI EndBlock cfiCond157
        CFI EndBlock cfiCond158
        CFI EndBlock cfiCond159
        CFI EndBlock cfiCond160
        CFI EndBlock cfiCond161
        CFI EndBlock cfiPicker162

        RSEG BANKED_CODE:CODE:NOROOT(0)
?Subroutine25:
        CFI Block cfiCond163 Using cfiCommon0
        CFI NoFunction
        CFI Conditional ??CrossCallReturnLabel_139
        CFI R6 load(1, XDATA, add(CFA_XSP16, literal(-20)))
        CFI VB load(1, XDATA, add(CFA_XSP16, literal(-19)))
        CFI V0 load(1, XDATA, add(CFA_XSP16, literal(-18)))
        CFI V1 load(1, XDATA, add(CFA_XSP16, literal(-17)))
        CFI V2 load(1, XDATA, add(CFA_XSP16, literal(-16)))
        CFI V3 load(1, XDATA, add(CFA_XSP16, literal(-15)))
        CFI V4 load(1, XDATA, add(CFA_XSP16, literal(-14)))
        CFI V5 load(1, XDATA, add(CFA_XSP16, literal(-13)))
        CFI V6 load(1, XDATA, add(CFA_XSP16, literal(-12)))
        CFI V7 load(1, XDATA, add(CFA_XSP16, literal(-11)))
        CFI V8 load(1, XDATA, add(CFA_XSP16, literal(-10)))
        CFI V9 load(1, XDATA, add(CFA_XSP16, literal(-9)))
        CFI V10 load(1, XDATA, add(CFA_XSP16, literal(-8)))
        CFI V11 load(1, XDATA, add(CFA_XSP16, literal(-7)))
        CFI R7 load(1, XDATA, add(CFA_XSP16, literal(-6)))
        CFI ?RET_LOW load(1, XDATA, add(CFA_XSP16, literal(-5)))
        CFI ?RET_HIGH load(1, XDATA, add(CFA_XSP16, literal(-4)))
        CFI ?BRET_EXT load(1, XDATA, add(CFA_XSP16, literal(-3)))
        CFI DPL0 load(1, XDATA, add(CFA_XSP16, literal(-2)))
        CFI DPH0 load(1, XDATA, add(CFA_XSP16, literal(-1)))
        CFI CFA_SP SP+0
        CFI CFA_XSP16 add(XSP16, 33)
        CFI Block cfiCond164 Using cfiCommon0
        CFI (cfiCond164) NoFunction
        CFI (cfiCond164) Conditional ??CrossCallReturnLabel_140
        CFI (cfiCond164) R6 load(1, XDATA, add(CFA_XSP16, literal(-20)))
        CFI (cfiCond164) VB load(1, XDATA, add(CFA_XSP16, literal(-19)))
        CFI (cfiCond164) V0 load(1, XDATA, add(CFA_XSP16, literal(-18)))
        CFI (cfiCond164) V1 load(1, XDATA, add(CFA_XSP16, literal(-17)))
        CFI (cfiCond164) V2 load(1, XDATA, add(CFA_XSP16, literal(-16)))
        CFI (cfiCond164) V3 load(1, XDATA, add(CFA_XSP16, literal(-15)))
        CFI (cfiCond164) V4 load(1, XDATA, add(CFA_XSP16, literal(-14)))
        CFI (cfiCond164) V5 load(1, XDATA, add(CFA_XSP16, literal(-13)))
        CFI (cfiCond164) V6 load(1, XDATA, add(CFA_XSP16, literal(-12)))
        CFI (cfiCond164) V7 load(1, XDATA, add(CFA_XSP16, literal(-11)))
        CFI (cfiCond164) V8 load(1, XDATA, add(CFA_XSP16, literal(-10)))
        CFI (cfiCond164) V9 load(1, XDATA, add(CFA_XSP16, literal(-9)))
        CFI (cfiCond164) V10 load(1, XDATA, add(CFA_XSP16, literal(-8)))
        CFI (cfiCond164) V11 load(1, XDATA, add(CFA_XSP16, literal(-7)))
        CFI (cfiCond164) R7 load(1, XDATA, add(CFA_XSP16, literal(-6)))
        CFI (cfiCond164) ?RET_LOW load(1, XDATA, add(CFA_XSP16, literal(-5)))
        CFI (cfiCond164) ?RET_HIGH load(1, XDATA, add(CFA_XSP16, literal(-4)))
        CFI (cfiCond164) ?BRET_EXT load(1, XDATA, add(CFA_XSP16, literal(-3)))
        CFI (cfiCond164) DPL0 load(1, XDATA, add(CFA_XSP16, literal(-2)))
        CFI (cfiCond164) DPH0 load(1, XDATA, add(CFA_XSP16, literal(-1)))
        CFI (cfiCond164) CFA_SP SP+0
        CFI (cfiCond164) CFA_XSP16 add(XSP16, 33)
        CFI Block cfiPicker165 Using cfiCommon1
        CFI (cfiPicker165) NoFunction
        CFI (cfiPicker165) Picker
        MOVX    @DPTR,A
        INC     DPTR
        CFI EndBlock cfiCond163
        CFI EndBlock cfiCond164
        CFI EndBlock cfiPicker165
        REQUIRE ??Subroutine70_0
        ; // Fall through to label ??Subroutine70_0

        RSEG BANKED_CODE:CODE:NOROOT(0)
??Subroutine70_0:
        CFI Block cfiCond166 Using cfiCommon0
        CFI NoFunction
        CFI Conditional ??CrossCallReturnLabel_141
        CFI R6 load(1, XDATA, add(CFA_XSP16, literal(-10)))
        CFI VB load(1, XDATA, add(CFA_XSP16, literal(-9)))
        CFI V0 load(1, XDATA, add(CFA_XSP16, literal(-8)))
        CFI V1 load(1, XDATA, add(CFA_XSP16, literal(-7)))
        CFI R7 load(1, XDATA, add(CFA_XSP16, literal(-6)))
        CFI ?RET_LOW load(1, XDATA, add(CFA_XSP16, literal(-5)))
        CFI ?RET_HIGH load(1, XDATA, add(CFA_XSP16, literal(-4)))
        CFI ?BRET_EXT load(1, XDATA, add(CFA_XSP16, literal(-3)))
        CFI DPL0 load(1, XDATA, add(CFA_XSP16, literal(-2)))
        CFI DPH0 load(1, XDATA, add(CFA_XSP16, literal(-1)))
        CFI CFA_SP SP+0
        CFI CFA_XSP16 add(XSP16, 13)
        CFI Block cfiCond167 Using cfiCommon0
        CFI (cfiCond167) NoFunction
        CFI (cfiCond167) Conditional ??CrossCallReturnLabel_142
        CFI (cfiCond167) R6 load(1, XDATA, add(CFA_XSP16, literal(-20)))
        CFI (cfiCond167) VB load(1, XDATA, add(CFA_XSP16, literal(-19)))
        CFI (cfiCond167) V0 load(1, XDATA, add(CFA_XSP16, literal(-18)))
        CFI (cfiCond167) V1 load(1, XDATA, add(CFA_XSP16, literal(-17)))
        CFI (cfiCond167) V2 load(1, XDATA, add(CFA_XSP16, literal(-16)))
        CFI (cfiCond167) V3 load(1, XDATA, add(CFA_XSP16, literal(-15)))
        CFI (cfiCond167) V4 load(1, XDATA, add(CFA_XSP16, literal(-14)))
        CFI (cfiCond167) V5 load(1, XDATA, add(CFA_XSP16, literal(-13)))
        CFI (cfiCond167) V6 load(1, XDATA, add(CFA_XSP16, literal(-12)))
        CFI (cfiCond167) V7 load(1, XDATA, add(CFA_XSP16, literal(-11)))
        CFI (cfiCond167) V8 load(1, XDATA, add(CFA_XSP16, literal(-10)))
        CFI (cfiCond167) V9 load(1, XDATA, add(CFA_XSP16, literal(-9)))
        CFI (cfiCond167) V10 load(1, XDATA, add(CFA_XSP16, literal(-8)))
        CFI (cfiCond167) V11 load(1, XDATA, add(CFA_XSP16, literal(-7)))
        CFI (cfiCond167) R7 load(1, XDATA, add(CFA_XSP16, literal(-6)))
        CFI (cfiCond167) ?RET_LOW load(1, XDATA, add(CFA_XSP16, literal(-5)))
        CFI (cfiCond167) ?RET_HIGH load(1, XDATA, add(CFA_XSP16, literal(-4)))
        CFI (cfiCond167) ?BRET_EXT load(1, XDATA, add(CFA_XSP16, literal(-3)))
        CFI (cfiCond167) DPL0 load(1, XDATA, add(CFA_XSP16, literal(-2)))
        CFI (cfiCond167) DPH0 load(1, XDATA, add(CFA_XSP16, literal(-1)))
        CFI (cfiCond167) CFA_SP SP+0
        CFI (cfiCond167) CFA_XSP16 add(XSP16, 33)
        CFI Block cfiCond168 Using cfiCommon0
        CFI (cfiCond168) NoFunction
        CFI (cfiCond168) Conditional ??CrossCallReturnLabel_139
        CFI (cfiCond168) R6 load(1, XDATA, add(CFA_XSP16, literal(-20)))
        CFI (cfiCond168) VB load(1, XDATA, add(CFA_XSP16, literal(-19)))
        CFI (cfiCond168) V0 load(1, XDATA, add(CFA_XSP16, literal(-18)))
        CFI (cfiCond168) V1 load(1, XDATA, add(CFA_XSP16, literal(-17)))
        CFI (cfiCond168) V2 load(1, XDATA, add(CFA_XSP16, literal(-16)))
        CFI (cfiCond168) V3 load(1, XDATA, add(CFA_XSP16, literal(-15)))
        CFI (cfiCond168) V4 load(1, XDATA, add(CFA_XSP16, literal(-14)))
        CFI (cfiCond168) V5 load(1, XDATA, add(CFA_XSP16, literal(-13)))
        CFI (cfiCond168) V6 load(1, XDATA, add(CFA_XSP16, literal(-12)))
        CFI (cfiCond168) V7 load(1, XDATA, add(CFA_XSP16, literal(-11)))
        CFI (cfiCond168) V8 load(1, XDATA, add(CFA_XSP16, literal(-10)))
        CFI (cfiCond168) V9 load(1, XDATA, add(CFA_XSP16, literal(-9)))
        CFI (cfiCond168) V10 load(1, XDATA, add(CFA_XSP16, literal(-8)))
        CFI (cfiCond168) V11 load(1, XDATA, add(CFA_XSP16, literal(-7)))
        CFI (cfiCond168) R7 load(1, XDATA, add(CFA_XSP16, literal(-6)))
        CFI (cfiCond168) ?RET_LOW load(1, XDATA, add(CFA_XSP16, literal(-5)))
        CFI (cfiCond168) ?RET_HIGH load(1, XDATA, add(CFA_XSP16, literal(-4)))
        CFI (cfiCond168) ?BRET_EXT load(1, XDATA, add(CFA_XSP16, literal(-3)))
        CFI (cfiCond168) DPL0 load(1, XDATA, add(CFA_XSP16, literal(-2)))
        CFI (cfiCond168) DPH0 load(1, XDATA, add(CFA_XSP16, literal(-1)))
        CFI (cfiCond168) CFA_SP SP+0
        CFI (cfiCond168) CFA_XSP16 add(XSP16, 33)
        CFI Block cfiCond169 Using cfiCommon0
        CFI (cfiCond169) NoFunction
        CFI (cfiCond169) Conditional ??CrossCallReturnLabel_140
        CFI (cfiCond169) R6 load(1, XDATA, add(CFA_XSP16, literal(-20)))
        CFI (cfiCond169) VB load(1, XDATA, add(CFA_XSP16, literal(-19)))
        CFI (cfiCond169) V0 load(1, XDATA, add(CFA_XSP16, literal(-18)))
        CFI (cfiCond169) V1 load(1, XDATA, add(CFA_XSP16, literal(-17)))
        CFI (cfiCond169) V2 load(1, XDATA, add(CFA_XSP16, literal(-16)))
        CFI (cfiCond169) V3 load(1, XDATA, add(CFA_XSP16, literal(-15)))
        CFI (cfiCond169) V4 load(1, XDATA, add(CFA_XSP16, literal(-14)))
        CFI (cfiCond169) V5 load(1, XDATA, add(CFA_XSP16, literal(-13)))
        CFI (cfiCond169) V6 load(1, XDATA, add(CFA_XSP16, literal(-12)))
        CFI (cfiCond169) V7 load(1, XDATA, add(CFA_XSP16, literal(-11)))
        CFI (cfiCond169) V8 load(1, XDATA, add(CFA_XSP16, literal(-10)))
        CFI (cfiCond169) V9 load(1, XDATA, add(CFA_XSP16, literal(-9)))
        CFI (cfiCond169) V10 load(1, XDATA, add(CFA_XSP16, literal(-8)))
        CFI (cfiCond169) V11 load(1, XDATA, add(CFA_XSP16, literal(-7)))
        CFI (cfiCond169) R7 load(1, XDATA, add(CFA_XSP16, literal(-6)))
        CFI (cfiCond169) ?RET_LOW load(1, XDATA, add(CFA_XSP16, literal(-5)))
        CFI (cfiCond169) ?RET_HIGH load(1, XDATA, add(CFA_XSP16, literal(-4)))
        CFI (cfiCond169) ?BRET_EXT load(1, XDATA, add(CFA_XSP16, literal(-3)))
        CFI (cfiCond169) DPL0 load(1, XDATA, add(CFA_XSP16, literal(-2)))
        CFI (cfiCond169) DPH0 load(1, XDATA, add(CFA_XSP16, literal(-1)))
        CFI (cfiCond169) CFA_SP SP+0
        CFI (cfiCond169) CFA_XSP16 add(XSP16, 33)
        CFI Block cfiPicker170 Using cfiCommon1
        CFI (cfiPicker170) NoFunction
        CFI (cfiPicker170) Picker
        MOVX    @DPTR,A
        ; Setup parameters for call to function AF_DataRequest
        ; Setup parameters for call to function AF_DataRequest
        ; Setup parameters for call to function AF_DataRequest
        ; Setup parameters for call to function AF_DataRequest
        MOV     ?V0 + 0,#0x1e
        MOV     R0,#?V0 + 0
        RET
        CFI EndBlock cfiCond166
        CFI EndBlock cfiCond167
        CFI EndBlock cfiCond168
        CFI EndBlock cfiCond169
        CFI EndBlock cfiPicker170

        RSEG BANKED_CODE:CODE:NOROOT(0)
?Subroutine22:
        CFI Block cfiCond171 Using cfiCommon0
        CFI NoFunction
        CFI Conditional ??CrossCallReturnLabel_39
        CFI R6 load(1, XDATA, add(CFA_XSP16, literal(-20)))
        CFI VB load(1, XDATA, add(CFA_XSP16, literal(-19)))
        CFI V0 load(1, XDATA, add(CFA_XSP16, literal(-18)))
        CFI V1 load(1, XDATA, add(CFA_XSP16, literal(-17)))
        CFI V2 load(1, XDATA, add(CFA_XSP16, literal(-16)))
        CFI V3 load(1, XDATA, add(CFA_XSP16, literal(-15)))
        CFI V4 load(1, XDATA, add(CFA_XSP16, literal(-14)))
        CFI V5 load(1, XDATA, add(CFA_XSP16, literal(-13)))
        CFI V6 load(1, XDATA, add(CFA_XSP16, literal(-12)))
        CFI V7 load(1, XDATA, add(CFA_XSP16, literal(-11)))
        CFI V8 load(1, XDATA, add(CFA_XSP16, literal(-10)))
        CFI V9 load(1, XDATA, add(CFA_XSP16, literal(-9)))
        CFI V10 load(1, XDATA, add(CFA_XSP16, literal(-8)))
        CFI V11 load(1, XDATA, add(CFA_XSP16, literal(-7)))
        CFI R7 load(1, XDATA, add(CFA_XSP16, literal(-6)))
        CFI ?RET_LOW load(1, XDATA, add(CFA_XSP16, literal(-5)))
        CFI ?RET_HIGH load(1, XDATA, add(CFA_XSP16, literal(-4)))
        CFI ?BRET_EXT load(1, XDATA, add(CFA_XSP16, literal(-3)))
        CFI DPL0 load(1, XDATA, add(CFA_XSP16, literal(-2)))
        CFI DPH0 load(1, XDATA, add(CFA_XSP16, literal(-1)))
        CFI CFA_SP SP+0
        CFI CFA_XSP16 add(XSP16, 33)
        CFI Block cfiCond172 Using cfiCommon0
        CFI (cfiCond172) NoFunction
        CFI (cfiCond172) Conditional ??CrossCallReturnLabel_40
        CFI (cfiCond172) R6 load(1, XDATA, add(CFA_XSP16, literal(-20)))
        CFI (cfiCond172) VB load(1, XDATA, add(CFA_XSP16, literal(-19)))
        CFI (cfiCond172) V0 load(1, XDATA, add(CFA_XSP16, literal(-18)))
        CFI (cfiCond172) V1 load(1, XDATA, add(CFA_XSP16, literal(-17)))
        CFI (cfiCond172) V2 load(1, XDATA, add(CFA_XSP16, literal(-16)))
        CFI (cfiCond172) V3 load(1, XDATA, add(CFA_XSP16, literal(-15)))
        CFI (cfiCond172) V4 load(1, XDATA, add(CFA_XSP16, literal(-14)))
        CFI (cfiCond172) V5 load(1, XDATA, add(CFA_XSP16, literal(-13)))
        CFI (cfiCond172) V6 load(1, XDATA, add(CFA_XSP16, literal(-12)))
        CFI (cfiCond172) V7 load(1, XDATA, add(CFA_XSP16, literal(-11)))
        CFI (cfiCond172) V8 load(1, XDATA, add(CFA_XSP16, literal(-10)))
        CFI (cfiCond172) V9 load(1, XDATA, add(CFA_XSP16, literal(-9)))
        CFI (cfiCond172) V10 load(1, XDATA, add(CFA_XSP16, literal(-8)))
        CFI (cfiCond172) V11 load(1, XDATA, add(CFA_XSP16, literal(-7)))
        CFI (cfiCond172) R7 load(1, XDATA, add(CFA_XSP16, literal(-6)))
        CFI (cfiCond172) ?RET_LOW load(1, XDATA, add(CFA_XSP16, literal(-5)))
        CFI (cfiCond172) ?RET_HIGH load(1, XDATA, add(CFA_XSP16, literal(-4)))
        CFI (cfiCond172) ?BRET_EXT load(1, XDATA, add(CFA_XSP16, literal(-3)))
        CFI (cfiCond172) DPL0 load(1, XDATA, add(CFA_XSP16, literal(-2)))
        CFI (cfiCond172) DPH0 load(1, XDATA, add(CFA_XSP16, literal(-1)))
        CFI (cfiCond172) CFA_SP SP+0
        CFI (cfiCond172) CFA_XSP16 add(XSP16, 33)
        CFI Block cfiPicker173 Using cfiCommon1
        CFI (cfiPicker173) NoFunction
        CFI (cfiPicker173) Picker
        LCALL   ?Subroutine55 & 0xFFFF
??CrossCallReturnLabel_83:
        MOV     A,?V0 + 5
        LCALL   ?Subroutine48 & 0xFFFF
??CrossCallReturnLabel_97:
        MOV     A,R6
        MOVX    @DPTR,A
        INC     DPTR
        MOV     A,R7
        MOVX    @DPTR,A
        RET
        CFI EndBlock cfiCond171
        CFI EndBlock cfiCond172
        CFI EndBlock cfiPicker173

        RSEG BANKED_CODE:CODE:NOROOT(0)
?Subroutine21:
        CFI Block cfiCond174 Using cfiCommon0
        CFI NoFunction
        CFI Conditional ??CrossCallReturnLabel_37
        CFI R6 load(1, XDATA, add(CFA_XSP16, literal(-20)))
        CFI VB load(1, XDATA, add(CFA_XSP16, literal(-19)))
        CFI V0 load(1, XDATA, add(CFA_XSP16, literal(-18)))
        CFI V1 load(1, XDATA, add(CFA_XSP16, literal(-17)))
        CFI V2 load(1, XDATA, add(CFA_XSP16, literal(-16)))
        CFI V3 load(1, XDATA, add(CFA_XSP16, literal(-15)))
        CFI V4 load(1, XDATA, add(CFA_XSP16, literal(-14)))
        CFI V5 load(1, XDATA, add(CFA_XSP16, literal(-13)))
        CFI V6 load(1, XDATA, add(CFA_XSP16, literal(-12)))
        CFI V7 load(1, XDATA, add(CFA_XSP16, literal(-11)))
        CFI V8 load(1, XDATA, add(CFA_XSP16, literal(-10)))
        CFI V9 load(1, XDATA, add(CFA_XSP16, literal(-9)))
        CFI V10 load(1, XDATA, add(CFA_XSP16, literal(-8)))
        CFI V11 load(1, XDATA, add(CFA_XSP16, literal(-7)))
        CFI R7 load(1, XDATA, add(CFA_XSP16, literal(-6)))
        CFI ?RET_LOW load(1, XDATA, add(CFA_XSP16, literal(-5)))
        CFI ?RET_HIGH load(1, XDATA, add(CFA_XSP16, literal(-4)))
        CFI ?BRET_EXT load(1, XDATA, add(CFA_XSP16, literal(-3)))
        CFI DPL0 load(1, XDATA, add(CFA_XSP16, literal(-2)))
        CFI DPH0 load(1, XDATA, add(CFA_XSP16, literal(-1)))
        CFI CFA_SP SP+0
        CFI CFA_XSP16 add(XSP16, 33)
        CFI Block cfiCond175 Using cfiCommon0
        CFI (cfiCond175) NoFunction
        CFI (cfiCond175) Conditional ??CrossCallReturnLabel_38
        CFI (cfiCond175) R6 load(1, XDATA, add(CFA_XSP16, literal(-20)))
        CFI (cfiCond175) VB load(1, XDATA, add(CFA_XSP16, literal(-19)))
        CFI (cfiCond175) V0 load(1, XDATA, add(CFA_XSP16, literal(-18)))
        CFI (cfiCond175) V1 load(1, XDATA, add(CFA_XSP16, literal(-17)))
        CFI (cfiCond175) V2 load(1, XDATA, add(CFA_XSP16, literal(-16)))
        CFI (cfiCond175) V3 load(1, XDATA, add(CFA_XSP16, literal(-15)))
        CFI (cfiCond175) V4 load(1, XDATA, add(CFA_XSP16, literal(-14)))
        CFI (cfiCond175) V5 load(1, XDATA, add(CFA_XSP16, literal(-13)))
        CFI (cfiCond175) V6 load(1, XDATA, add(CFA_XSP16, literal(-12)))
        CFI (cfiCond175) V7 load(1, XDATA, add(CFA_XSP16, literal(-11)))
        CFI (cfiCond175) V8 load(1, XDATA, add(CFA_XSP16, literal(-10)))
        CFI (cfiCond175) V9 load(1, XDATA, add(CFA_XSP16, literal(-9)))
        CFI (cfiCond175) V10 load(1, XDATA, add(CFA_XSP16, literal(-8)))
        CFI (cfiCond175) V11 load(1, XDATA, add(CFA_XSP16, literal(-7)))
        CFI (cfiCond175) R7 load(1, XDATA, add(CFA_XSP16, literal(-6)))
        CFI (cfiCond175) ?RET_LOW load(1, XDATA, add(CFA_XSP16, literal(-5)))
        CFI (cfiCond175) ?RET_HIGH load(1, XDATA, add(CFA_XSP16, literal(-4)))
        CFI (cfiCond175) ?BRET_EXT load(1, XDATA, add(CFA_XSP16, literal(-3)))
        CFI (cfiCond175) DPL0 load(1, XDATA, add(CFA_XSP16, literal(-2)))
        CFI (cfiCond175) DPH0 load(1, XDATA, add(CFA_XSP16, literal(-1)))
        CFI (cfiCond175) CFA_SP SP+0
        CFI (cfiCond175) CFA_XSP16 add(XSP16, 33)
        CFI Block cfiPicker176 Using cfiCommon1
        CFI (cfiPicker176) NoFunction
        CFI (cfiPicker176) Picker
        MOV     R1,#0x0
        LCALL   ??HalUARTWrite?relay
        MOV     A,R6
        ADD     A,#0x22
        MOV     ?V0 + 0,A
        MOV     A,R7
        ADDC    A,#0x0
        RET
        CFI EndBlock cfiCond174
        CFI EndBlock cfiCond175
        CFI EndBlock cfiPicker176

        RSEG BANKED_CODE:CODE:NOROOT(0)
?Subroutine20:
        CFI Block cfiCond177 Using cfiCommon0
        CFI NoFunction
        CFI Conditional ??CrossCallReturnLabel_143
        CFI R6 load(1, XDATA, add(CFA_XSP16, literal(-20)))
        CFI VB load(1, XDATA, add(CFA_XSP16, literal(-19)))
        CFI V0 load(1, XDATA, add(CFA_XSP16, literal(-18)))
        CFI V1 load(1, XDATA, add(CFA_XSP16, literal(-17)))
        CFI V2 load(1, XDATA, add(CFA_XSP16, literal(-16)))
        CFI V3 load(1, XDATA, add(CFA_XSP16, literal(-15)))
        CFI V4 load(1, XDATA, add(CFA_XSP16, literal(-14)))
        CFI V5 load(1, XDATA, add(CFA_XSP16, literal(-13)))
        CFI V6 load(1, XDATA, add(CFA_XSP16, literal(-12)))
        CFI V7 load(1, XDATA, add(CFA_XSP16, literal(-11)))
        CFI V8 load(1, XDATA, add(CFA_XSP16, literal(-10)))
        CFI V9 load(1, XDATA, add(CFA_XSP16, literal(-9)))
        CFI V10 load(1, XDATA, add(CFA_XSP16, literal(-8)))
        CFI V11 load(1, XDATA, add(CFA_XSP16, literal(-7)))
        CFI R7 load(1, XDATA, add(CFA_XSP16, literal(-6)))
        CFI ?RET_LOW load(1, XDATA, add(CFA_XSP16, literal(-5)))
        CFI ?RET_HIGH load(1, XDATA, add(CFA_XSP16, literal(-4)))
        CFI ?BRET_EXT load(1, XDATA, add(CFA_XSP16, literal(-3)))
        CFI DPL0 load(1, XDATA, add(CFA_XSP16, literal(-2)))
        CFI DPH0 load(1, XDATA, add(CFA_XSP16, literal(-1)))
        CFI CFA_SP SP+0
        CFI CFA_XSP16 add(XSP16, 33)
        CFI Block cfiCond178 Using cfiCommon0
        CFI (cfiCond178) NoFunction
        CFI (cfiCond178) Conditional ??CrossCallReturnLabel_144
        CFI (cfiCond178) R6 load(1, XDATA, add(CFA_XSP16, literal(-12)))
        CFI (cfiCond178) VB load(1, XDATA, add(CFA_XSP16, literal(-11)))
        CFI (cfiCond178) V0 load(1, XDATA, add(CFA_XSP16, literal(-10)))
        CFI (cfiCond178) V1 load(1, XDATA, add(CFA_XSP16, literal(-9)))
        CFI (cfiCond178) V2 load(1, XDATA, add(CFA_XSP16, literal(-8)))
        CFI (cfiCond178) V3 load(1, XDATA, add(CFA_XSP16, literal(-7)))
        CFI (cfiCond178) R7 load(1, XDATA, add(CFA_XSP16, literal(-6)))
        CFI (cfiCond178) ?RET_LOW load(1, XDATA, add(CFA_XSP16, literal(-5)))
        CFI (cfiCond178) ?RET_HIGH load(1, XDATA, add(CFA_XSP16, literal(-4)))
        CFI (cfiCond178) ?BRET_EXT load(1, XDATA, add(CFA_XSP16, literal(-3)))
        CFI (cfiCond178) DPL0 load(1, XDATA, add(CFA_XSP16, literal(-2)))
        CFI (cfiCond178) DPH0 load(1, XDATA, add(CFA_XSP16, literal(-1)))
        CFI (cfiCond178) CFA_SP SP+0
        CFI (cfiCond178) CFA_XSP16 add(XSP16, 17)
        CFI Block cfiPicker179 Using cfiCommon1
        CFI (cfiPicker179) NoFunction
        CFI (cfiPicker179) Picker
        LCALL   ?Subroutine54 & 0xFFFF
        CFI EndBlock cfiCond177
        CFI EndBlock cfiCond178
        CFI EndBlock cfiPicker179
??CrossCallReturnLabel_125:
        REQUIRE ??Subroutine71_0
        ; // Fall through to label ??Subroutine71_0

        RSEG BANKED_CODE:CODE:NOROOT(0)
??Subroutine71_0:
        CFI Block cfiCond180 Using cfiCommon0
        CFI NoFunction
        CFI Conditional ??CrossCallReturnLabel_145
        CFI R6 load(1, XDATA, add(CFA_XSP16, literal(-10)))
        CFI VB load(1, XDATA, add(CFA_XSP16, literal(-9)))
        CFI V0 load(1, XDATA, add(CFA_XSP16, literal(-8)))
        CFI V1 load(1, XDATA, add(CFA_XSP16, literal(-7)))
        CFI R7 load(1, XDATA, add(CFA_XSP16, literal(-6)))
        CFI ?RET_LOW load(1, XDATA, add(CFA_XSP16, literal(-5)))
        CFI ?RET_HIGH load(1, XDATA, add(CFA_XSP16, literal(-4)))
        CFI ?BRET_EXT load(1, XDATA, add(CFA_XSP16, literal(-3)))
        CFI DPL0 load(1, XDATA, add(CFA_XSP16, literal(-2)))
        CFI DPH0 load(1, XDATA, add(CFA_XSP16, literal(-1)))
        CFI CFA_SP SP+0
        CFI CFA_XSP16 add(XSP16, 10)
        CFI Block cfiCond181 Using cfiCommon0
        CFI (cfiCond181) NoFunction
        CFI (cfiCond181) Conditional ??CrossCallReturnLabel_146
        CFI (cfiCond181) R6 load(1, XDATA, add(CFA_XSP16, literal(-20)))
        CFI (cfiCond181) VB load(1, XDATA, add(CFA_XSP16, literal(-19)))
        CFI (cfiCond181) V0 load(1, XDATA, add(CFA_XSP16, literal(-18)))
        CFI (cfiCond181) V1 load(1, XDATA, add(CFA_XSP16, literal(-17)))
        CFI (cfiCond181) V2 load(1, XDATA, add(CFA_XSP16, literal(-16)))
        CFI (cfiCond181) V3 load(1, XDATA, add(CFA_XSP16, literal(-15)))
        CFI (cfiCond181) V4 load(1, XDATA, add(CFA_XSP16, literal(-14)))
        CFI (cfiCond181) V5 load(1, XDATA, add(CFA_XSP16, literal(-13)))
        CFI (cfiCond181) V6 load(1, XDATA, add(CFA_XSP16, literal(-12)))
        CFI (cfiCond181) V7 load(1, XDATA, add(CFA_XSP16, literal(-11)))
        CFI (cfiCond181) V8 load(1, XDATA, add(CFA_XSP16, literal(-10)))
        CFI (cfiCond181) V9 load(1, XDATA, add(CFA_XSP16, literal(-9)))
        CFI (cfiCond181) V10 load(1, XDATA, add(CFA_XSP16, literal(-8)))
        CFI (cfiCond181) V11 load(1, XDATA, add(CFA_XSP16, literal(-7)))
        CFI (cfiCond181) R7 load(1, XDATA, add(CFA_XSP16, literal(-6)))
        CFI (cfiCond181) ?RET_LOW load(1, XDATA, add(CFA_XSP16, literal(-5)))
        CFI (cfiCond181) ?RET_HIGH load(1, XDATA, add(CFA_XSP16, literal(-4)))
        CFI (cfiCond181) ?BRET_EXT load(1, XDATA, add(CFA_XSP16, literal(-3)))
        CFI (cfiCond181) DPL0 load(1, XDATA, add(CFA_XSP16, literal(-2)))
        CFI (cfiCond181) DPH0 load(1, XDATA, add(CFA_XSP16, literal(-1)))
        CFI (cfiCond181) CFA_SP SP+0
        CFI (cfiCond181) CFA_XSP16 add(XSP16, 33)
        CFI Block cfiCond182 Using cfiCommon0
        CFI (cfiCond182) NoFunction
        CFI (cfiCond182) Conditional ??CrossCallReturnLabel_147
        CFI (cfiCond182) R6 load(1, XDATA, add(CFA_XSP16, literal(-12)))
        CFI (cfiCond182) VB load(1, XDATA, add(CFA_XSP16, literal(-11)))
        CFI (cfiCond182) V0 load(1, XDATA, add(CFA_XSP16, literal(-10)))
        CFI (cfiCond182) V1 load(1, XDATA, add(CFA_XSP16, literal(-9)))
        CFI (cfiCond182) V2 load(1, XDATA, add(CFA_XSP16, literal(-8)))
        CFI (cfiCond182) V3 load(1, XDATA, add(CFA_XSP16, literal(-7)))
        CFI (cfiCond182) R7 load(1, XDATA, add(CFA_XSP16, literal(-6)))
        CFI (cfiCond182) ?RET_LOW load(1, XDATA, add(CFA_XSP16, literal(-5)))
        CFI (cfiCond182) ?RET_HIGH load(1, XDATA, add(CFA_XSP16, literal(-4)))
        CFI (cfiCond182) ?BRET_EXT load(1, XDATA, add(CFA_XSP16, literal(-3)))
        CFI (cfiCond182) DPL0 load(1, XDATA, add(CFA_XSP16, literal(-2)))
        CFI (cfiCond182) DPH0 load(1, XDATA, add(CFA_XSP16, literal(-1)))
        CFI (cfiCond182) CFA_SP SP+0
        CFI (cfiCond182) CFA_XSP16 add(XSP16, 17)
        CFI Block cfiCond183 Using cfiCommon0
        CFI (cfiCond183) NoFunction
        CFI (cfiCond183) Conditional ??CrossCallReturnLabel_143
        CFI (cfiCond183) R6 load(1, XDATA, add(CFA_XSP16, literal(-20)))
        CFI (cfiCond183) VB load(1, XDATA, add(CFA_XSP16, literal(-19)))
        CFI (cfiCond183) V0 load(1, XDATA, add(CFA_XSP16, literal(-18)))
        CFI (cfiCond183) V1 load(1, XDATA, add(CFA_XSP16, literal(-17)))
        CFI (cfiCond183) V2 load(1, XDATA, add(CFA_XSP16, literal(-16)))
        CFI (cfiCond183) V3 load(1, XDATA, add(CFA_XSP16, literal(-15)))
        CFI (cfiCond183) V4 load(1, XDATA, add(CFA_XSP16, literal(-14)))
        CFI (cfiCond183) V5 load(1, XDATA, add(CFA_XSP16, literal(-13)))
        CFI (cfiCond183) V6 load(1, XDATA, add(CFA_XSP16, literal(-12)))
        CFI (cfiCond183) V7 load(1, XDATA, add(CFA_XSP16, literal(-11)))
        CFI (cfiCond183) V8 load(1, XDATA, add(CFA_XSP16, literal(-10)))
        CFI (cfiCond183) V9 load(1, XDATA, add(CFA_XSP16, literal(-9)))
        CFI (cfiCond183) V10 load(1, XDATA, add(CFA_XSP16, literal(-8)))
        CFI (cfiCond183) V11 load(1, XDATA, add(CFA_XSP16, literal(-7)))
        CFI (cfiCond183) R7 load(1, XDATA, add(CFA_XSP16, literal(-6)))
        CFI (cfiCond183) ?RET_LOW load(1, XDATA, add(CFA_XSP16, literal(-5)))
        CFI (cfiCond183) ?RET_HIGH load(1, XDATA, add(CFA_XSP16, literal(-4)))
        CFI (cfiCond183) ?BRET_EXT load(1, XDATA, add(CFA_XSP16, literal(-3)))
        CFI (cfiCond183) DPL0 load(1, XDATA, add(CFA_XSP16, literal(-2)))
        CFI (cfiCond183) DPH0 load(1, XDATA, add(CFA_XSP16, literal(-1)))
        CFI (cfiCond183) CFA_SP SP+0
        CFI (cfiCond183) CFA_XSP16 add(XSP16, 33)
        CFI Block cfiCond184 Using cfiCommon0
        CFI (cfiCond184) NoFunction
        CFI (cfiCond184) Conditional ??CrossCallReturnLabel_144
        CFI (cfiCond184) R6 load(1, XDATA, add(CFA_XSP16, literal(-12)))
        CFI (cfiCond184) VB load(1, XDATA, add(CFA_XSP16, literal(-11)))
        CFI (cfiCond184) V0 load(1, XDATA, add(CFA_XSP16, literal(-10)))
        CFI (cfiCond184) V1 load(1, XDATA, add(CFA_XSP16, literal(-9)))
        CFI (cfiCond184) V2 load(1, XDATA, add(CFA_XSP16, literal(-8)))
        CFI (cfiCond184) V3 load(1, XDATA, add(CFA_XSP16, literal(-7)))
        CFI (cfiCond184) R7 load(1, XDATA, add(CFA_XSP16, literal(-6)))
        CFI (cfiCond184) ?RET_LOW load(1, XDATA, add(CFA_XSP16, literal(-5)))
        CFI (cfiCond184) ?RET_HIGH load(1, XDATA, add(CFA_XSP16, literal(-4)))
        CFI (cfiCond184) ?BRET_EXT load(1, XDATA, add(CFA_XSP16, literal(-3)))
        CFI (cfiCond184) DPL0 load(1, XDATA, add(CFA_XSP16, literal(-2)))
        CFI (cfiCond184) DPH0 load(1, XDATA, add(CFA_XSP16, literal(-1)))
        CFI (cfiCond184) CFA_SP SP+0
        CFI (cfiCond184) CFA_XSP16 add(XSP16, 17)
        CFI Block cfiPicker185 Using cfiCommon1
        CFI (cfiPicker185) NoFunction
        CFI (cfiPicker185) Picker
        LCALL   ??Subroutine73_0 & 0xFFFF
??CrossCallReturnLabel_154:
        RET
        CFI EndBlock cfiCond180
        CFI EndBlock cfiCond181
        CFI EndBlock cfiCond182
        CFI EndBlock cfiCond183
        CFI EndBlock cfiCond184
        CFI EndBlock cfiPicker185

        RSEG BANKED_CODE:CODE:NOROOT(0)
?Subroutine19:
        CFI Block cfiCond186 Using cfiCommon0
        CFI NoFunction
        CFI Conditional ??CrossCallReturnLabel_150
        CFI R6 load(1, XDATA, add(CFA_XSP16, literal(-11)))
        CFI VB load(1, XDATA, add(CFA_XSP16, literal(-10)))
        CFI V0 load(1, XDATA, add(CFA_XSP16, literal(-9)))
        CFI V1 load(1, XDATA, add(CFA_XSP16, literal(-8)))
        CFI V2 load(1, XDATA, add(CFA_XSP16, literal(-7)))
        CFI R7 load(1, XDATA, add(CFA_XSP16, literal(-6)))
        CFI ?RET_LOW load(1, XDATA, add(CFA_XSP16, literal(-5)))
        CFI ?RET_HIGH load(1, XDATA, add(CFA_XSP16, literal(-4)))
        CFI ?BRET_EXT load(1, XDATA, add(CFA_XSP16, literal(-3)))
        CFI DPL0 load(1, XDATA, add(CFA_XSP16, literal(-2)))
        CFI DPH0 load(1, XDATA, add(CFA_XSP16, literal(-1)))
        CFI CFA_SP SP+0
        CFI CFA_XSP16 add(XSP16, 11)
        CFI Block cfiCond187 Using cfiCommon0
        CFI (cfiCond187) NoFunction
        CFI (cfiCond187) Conditional ??CrossCallReturnLabel_151
        CFI (cfiCond187) R6 load(1, XDATA, add(CFA_XSP16, literal(-11)))
        CFI (cfiCond187) VB load(1, XDATA, add(CFA_XSP16, literal(-10)))
        CFI (cfiCond187) V0 load(1, XDATA, add(CFA_XSP16, literal(-9)))
        CFI (cfiCond187) V1 load(1, XDATA, add(CFA_XSP16, literal(-8)))
        CFI (cfiCond187) V2 load(1, XDATA, add(CFA_XSP16, literal(-7)))
        CFI (cfiCond187) R7 load(1, XDATA, add(CFA_XSP16, literal(-6)))
        CFI (cfiCond187) ?RET_LOW load(1, XDATA, add(CFA_XSP16, literal(-5)))
        CFI (cfiCond187) ?RET_HIGH load(1, XDATA, add(CFA_XSP16, literal(-4)))
        CFI (cfiCond187) ?BRET_EXT load(1, XDATA, add(CFA_XSP16, literal(-3)))
        CFI (cfiCond187) DPL0 load(1, XDATA, add(CFA_XSP16, literal(-2)))
        CFI (cfiCond187) DPH0 load(1, XDATA, add(CFA_XSP16, literal(-1)))
        CFI (cfiCond187) CFA_SP SP+0
        CFI (cfiCond187) CFA_XSP16 add(XSP16, 11)
        CFI Block cfiPicker188 Using cfiCommon1
        CFI (cfiPicker188) NoFunction
        CFI (cfiPicker188) Picker
        MOV     A,R3
        CFI EndBlock cfiCond186
        CFI EndBlock cfiCond187
        CFI EndBlock cfiPicker188
        REQUIRE ??Subroutine72_0
        ; // Fall through to label ??Subroutine72_0

        RSEG BANKED_CODE:CODE:NOROOT(0)
??Subroutine72_0:
        CFI Block cfiCond189 Using cfiCommon0
        CFI NoFunction
        CFI Conditional ??CrossCallReturnLabel_148
        CFI R6 load(1, XDATA, add(CFA_XSP16, literal(-13)))
        CFI VB load(1, XDATA, add(CFA_XSP16, literal(-12)))
        CFI V0 load(1, XDATA, add(CFA_XSP16, literal(-11)))
        CFI V1 load(1, XDATA, add(CFA_XSP16, literal(-10)))
        CFI V2 load(1, XDATA, add(CFA_XSP16, literal(-9)))
        CFI V3 load(1, XDATA, add(CFA_XSP16, literal(-8)))
        CFI V4 load(1, XDATA, add(CFA_XSP16, literal(-7)))
        CFI R7 load(1, XDATA, add(CFA_XSP16, literal(-6)))
        CFI ?RET_LOW load(1, XDATA, add(CFA_XSP16, literal(-5)))
        CFI ?RET_HIGH load(1, XDATA, add(CFA_XSP16, literal(-4)))
        CFI ?BRET_EXT load(1, XDATA, add(CFA_XSP16, literal(-3)))
        CFI DPL0 load(1, XDATA, add(CFA_XSP16, literal(-2)))
        CFI DPH0 load(1, XDATA, add(CFA_XSP16, literal(-1)))
        CFI CFA_SP SP+0
        CFI CFA_XSP16 add(XSP16, 15)
        CFI Block cfiCond190 Using cfiCommon0
        CFI (cfiCond190) NoFunction
        CFI (cfiCond190) Conditional ??CrossCallReturnLabel_149
        CFI (cfiCond190) R6 load(1, XDATA, add(CFA_XSP16, literal(-20)))
        CFI (cfiCond190) VB load(1, XDATA, add(CFA_XSP16, literal(-19)))
        CFI (cfiCond190) V0 load(1, XDATA, add(CFA_XSP16, literal(-18)))
        CFI (cfiCond190) V1 load(1, XDATA, add(CFA_XSP16, literal(-17)))
        CFI (cfiCond190) V2 load(1, XDATA, add(CFA_XSP16, literal(-16)))
        CFI (cfiCond190) V3 load(1, XDATA, add(CFA_XSP16, literal(-15)))
        CFI (cfiCond190) V4 load(1, XDATA, add(CFA_XSP16, literal(-14)))
        CFI (cfiCond190) V5 load(1, XDATA, add(CFA_XSP16, literal(-13)))
        CFI (cfiCond190) V6 load(1, XDATA, add(CFA_XSP16, literal(-12)))
        CFI (cfiCond190) V7 load(1, XDATA, add(CFA_XSP16, literal(-11)))
        CFI (cfiCond190) V8 load(1, XDATA, add(CFA_XSP16, literal(-10)))
        CFI (cfiCond190) V9 load(1, XDATA, add(CFA_XSP16, literal(-9)))
        CFI (cfiCond190) V10 load(1, XDATA, add(CFA_XSP16, literal(-8)))
        CFI (cfiCond190) V11 load(1, XDATA, add(CFA_XSP16, literal(-7)))
        CFI (cfiCond190) R7 load(1, XDATA, add(CFA_XSP16, literal(-6)))
        CFI (cfiCond190) ?RET_LOW load(1, XDATA, add(CFA_XSP16, literal(-5)))
        CFI (cfiCond190) ?RET_HIGH load(1, XDATA, add(CFA_XSP16, literal(-4)))
        CFI (cfiCond190) ?BRET_EXT load(1, XDATA, add(CFA_XSP16, literal(-3)))
        CFI (cfiCond190) DPL0 load(1, XDATA, add(CFA_XSP16, literal(-2)))
        CFI (cfiCond190) DPH0 load(1, XDATA, add(CFA_XSP16, literal(-1)))
        CFI (cfiCond190) CFA_SP SP+0
        CFI (cfiCond190) CFA_XSP16 add(XSP16, 33)
        CFI Block cfiCond191 Using cfiCommon0
        CFI (cfiCond191) NoFunction
        CFI (cfiCond191) Conditional ??CrossCallReturnLabel_150
        CFI (cfiCond191) R6 load(1, XDATA, add(CFA_XSP16, literal(-11)))
        CFI (cfiCond191) VB load(1, XDATA, add(CFA_XSP16, literal(-10)))
        CFI (cfiCond191) V0 load(1, XDATA, add(CFA_XSP16, literal(-9)))
        CFI (cfiCond191) V1 load(1, XDATA, add(CFA_XSP16, literal(-8)))
        CFI (cfiCond191) V2 load(1, XDATA, add(CFA_XSP16, literal(-7)))
        CFI (cfiCond191) R7 load(1, XDATA, add(CFA_XSP16, literal(-6)))
        CFI (cfiCond191) ?RET_LOW load(1, XDATA, add(CFA_XSP16, literal(-5)))
        CFI (cfiCond191) ?RET_HIGH load(1, XDATA, add(CFA_XSP16, literal(-4)))
        CFI (cfiCond191) ?BRET_EXT load(1, XDATA, add(CFA_XSP16, literal(-3)))
        CFI (cfiCond191) DPL0 load(1, XDATA, add(CFA_XSP16, literal(-2)))
        CFI (cfiCond191) DPH0 load(1, XDATA, add(CFA_XSP16, literal(-1)))
        CFI (cfiCond191) CFA_SP SP+0
        CFI (cfiCond191) CFA_XSP16 add(XSP16, 11)
        CFI Block cfiCond192 Using cfiCommon0
        CFI (cfiCond192) NoFunction
        CFI (cfiCond192) Conditional ??CrossCallReturnLabel_151
        CFI (cfiCond192) R6 load(1, XDATA, add(CFA_XSP16, literal(-11)))
        CFI (cfiCond192) VB load(1, XDATA, add(CFA_XSP16, literal(-10)))
        CFI (cfiCond192) V0 load(1, XDATA, add(CFA_XSP16, literal(-9)))
        CFI (cfiCond192) V1 load(1, XDATA, add(CFA_XSP16, literal(-8)))
        CFI (cfiCond192) V2 load(1, XDATA, add(CFA_XSP16, literal(-7)))
        CFI (cfiCond192) R7 load(1, XDATA, add(CFA_XSP16, literal(-6)))
        CFI (cfiCond192) ?RET_LOW load(1, XDATA, add(CFA_XSP16, literal(-5)))
        CFI (cfiCond192) ?RET_HIGH load(1, XDATA, add(CFA_XSP16, literal(-4)))
        CFI (cfiCond192) ?BRET_EXT load(1, XDATA, add(CFA_XSP16, literal(-3)))
        CFI (cfiCond192) DPL0 load(1, XDATA, add(CFA_XSP16, literal(-2)))
        CFI (cfiCond192) DPH0 load(1, XDATA, add(CFA_XSP16, literal(-1)))
        CFI (cfiCond192) CFA_SP SP+0
        CFI (cfiCond192) CFA_XSP16 add(XSP16, 11)
        CFI Block cfiPicker193 Using cfiCommon1
        CFI (cfiPicker193) NoFunction
        CFI (cfiPicker193) Picker
        SUBB    A,#0x0
        MOV     C,0xD0 /* PSW */.2
        XRL     A,PSW
        RLC     A
        RET
        CFI EndBlock cfiCond189
        CFI EndBlock cfiCond190
        CFI EndBlock cfiCond191
        CFI EndBlock cfiCond192
        CFI EndBlock cfiPicker193

        RSEG BANKED_CODE:CODE:NOROOT(0)
?Subroutine17:
        CFI Block cfiCond194 Using cfiCommon0
        CFI NoFunction
        CFI Conditional ??CrossCallReturnLabel_33
        CFI R6 load(1, XDATA, add(CFA_XSP16, literal(-20)))
        CFI VB load(1, XDATA, add(CFA_XSP16, literal(-19)))
        CFI V0 load(1, XDATA, add(CFA_XSP16, literal(-18)))
        CFI V1 load(1, XDATA, add(CFA_XSP16, literal(-17)))
        CFI V2 load(1, XDATA, add(CFA_XSP16, literal(-16)))
        CFI V3 load(1, XDATA, add(CFA_XSP16, literal(-15)))
        CFI V4 load(1, XDATA, add(CFA_XSP16, literal(-14)))
        CFI V5 load(1, XDATA, add(CFA_XSP16, literal(-13)))
        CFI V6 load(1, XDATA, add(CFA_XSP16, literal(-12)))
        CFI V7 load(1, XDATA, add(CFA_XSP16, literal(-11)))
        CFI V8 load(1, XDATA, add(CFA_XSP16, literal(-10)))
        CFI V9 load(1, XDATA, add(CFA_XSP16, literal(-9)))
        CFI V10 load(1, XDATA, add(CFA_XSP16, literal(-8)))
        CFI V11 load(1, XDATA, add(CFA_XSP16, literal(-7)))
        CFI R7 load(1, XDATA, add(CFA_XSP16, literal(-6)))
        CFI ?RET_LOW load(1, XDATA, add(CFA_XSP16, literal(-5)))
        CFI ?RET_HIGH load(1, XDATA, add(CFA_XSP16, literal(-4)))
        CFI ?BRET_EXT load(1, XDATA, add(CFA_XSP16, literal(-3)))
        CFI DPL0 load(1, XDATA, add(CFA_XSP16, literal(-2)))
        CFI DPH0 load(1, XDATA, add(CFA_XSP16, literal(-1)))
        CFI CFA_SP SP+0
        CFI CFA_XSP16 add(XSP16, 33)
        CFI Block cfiCond195 Using cfiCommon0
        CFI (cfiCond195) NoFunction
        CFI (cfiCond195) Conditional ??CrossCallReturnLabel_34
        CFI (cfiCond195) R6 load(1, XDATA, add(CFA_XSP16, literal(-20)))
        CFI (cfiCond195) VB load(1, XDATA, add(CFA_XSP16, literal(-19)))
        CFI (cfiCond195) V0 load(1, XDATA, add(CFA_XSP16, literal(-18)))
        CFI (cfiCond195) V1 load(1, XDATA, add(CFA_XSP16, literal(-17)))
        CFI (cfiCond195) V2 load(1, XDATA, add(CFA_XSP16, literal(-16)))
        CFI (cfiCond195) V3 load(1, XDATA, add(CFA_XSP16, literal(-15)))
        CFI (cfiCond195) V4 load(1, XDATA, add(CFA_XSP16, literal(-14)))
        CFI (cfiCond195) V5 load(1, XDATA, add(CFA_XSP16, literal(-13)))
        CFI (cfiCond195) V6 load(1, XDATA, add(CFA_XSP16, literal(-12)))
        CFI (cfiCond195) V7 load(1, XDATA, add(CFA_XSP16, literal(-11)))
        CFI (cfiCond195) V8 load(1, XDATA, add(CFA_XSP16, literal(-10)))
        CFI (cfiCond195) V9 load(1, XDATA, add(CFA_XSP16, literal(-9)))
        CFI (cfiCond195) V10 load(1, XDATA, add(CFA_XSP16, literal(-8)))
        CFI (cfiCond195) V11 load(1, XDATA, add(CFA_XSP16, literal(-7)))
        CFI (cfiCond195) R7 load(1, XDATA, add(CFA_XSP16, literal(-6)))
        CFI (cfiCond195) ?RET_LOW load(1, XDATA, add(CFA_XSP16, literal(-5)))
        CFI (cfiCond195) ?RET_HIGH load(1, XDATA, add(CFA_XSP16, literal(-4)))
        CFI (cfiCond195) ?BRET_EXT load(1, XDATA, add(CFA_XSP16, literal(-3)))
        CFI (cfiCond195) DPL0 load(1, XDATA, add(CFA_XSP16, literal(-2)))
        CFI (cfiCond195) DPH0 load(1, XDATA, add(CFA_XSP16, literal(-1)))
        CFI (cfiCond195) CFA_SP SP+0
        CFI (cfiCond195) CFA_XSP16 add(XSP16, 33)
        CFI Block cfiPicker196 Using cfiCommon1
        CFI (cfiPicker196) NoFunction
        CFI (cfiPicker196) Picker
        MOV     R4,#0xe
        MOV     R5,#0x0
        MOV     R2,#`?<Constant "\\n------------\\n">` & 0xff
        MOV     R3,#(`?<Constant "\\n------------\\n">` >> 8) & 0xff
        MOV     R1,#0x0
        LCALL   ??HalUARTWrite?relay
        ; Setup parameters for call to function HalUARTWrite
        ; Setup parameters for call to function HalUARTWrite
        MOV     R4,#0x8
        MOV     R5,#0x0
        MOV     R2,#`?<Constant "active: ">` & 0xff
        MOV     R3,#(`?<Constant "active: ">` >> 8) & 0xff
        MOV     R1,#0x0
        LCALL   ??HalUARTWrite?relay
        MOV     R6,#0x0
        MOV     R7,#0x0
        RET
        CFI EndBlock cfiCond194
        CFI EndBlock cfiCond195
        CFI EndBlock cfiPicker196

        RSEG BANKED_CODE:CODE:NOROOT(0)
?Subroutine16:
        CFI Block cfiCond197 Using cfiCommon0
        CFI NoFunction
        CFI Conditional ??CrossCallReturnLabel_31
        CFI R6 load(1, XDATA, add(CFA_XSP16, literal(-20)))
        CFI VB load(1, XDATA, add(CFA_XSP16, literal(-19)))
        CFI V0 load(1, XDATA, add(CFA_XSP16, literal(-18)))
        CFI V1 load(1, XDATA, add(CFA_XSP16, literal(-17)))
        CFI V2 load(1, XDATA, add(CFA_XSP16, literal(-16)))
        CFI V3 load(1, XDATA, add(CFA_XSP16, literal(-15)))
        CFI V4 load(1, XDATA, add(CFA_XSP16, literal(-14)))
        CFI V5 load(1, XDATA, add(CFA_XSP16, literal(-13)))
        CFI V6 load(1, XDATA, add(CFA_XSP16, literal(-12)))
        CFI V7 load(1, XDATA, add(CFA_XSP16, literal(-11)))
        CFI V8 load(1, XDATA, add(CFA_XSP16, literal(-10)))
        CFI V9 load(1, XDATA, add(CFA_XSP16, literal(-9)))
        CFI V10 load(1, XDATA, add(CFA_XSP16, literal(-8)))
        CFI V11 load(1, XDATA, add(CFA_XSP16, literal(-7)))
        CFI R7 load(1, XDATA, add(CFA_XSP16, literal(-6)))
        CFI ?RET_LOW load(1, XDATA, add(CFA_XSP16, literal(-5)))
        CFI ?RET_HIGH load(1, XDATA, add(CFA_XSP16, literal(-4)))
        CFI ?BRET_EXT load(1, XDATA, add(CFA_XSP16, literal(-3)))
        CFI DPL0 load(1, XDATA, add(CFA_XSP16, literal(-2)))
        CFI DPH0 load(1, XDATA, add(CFA_XSP16, literal(-1)))
        CFI CFA_SP SP+0
        CFI CFA_XSP16 add(XSP16, 33)
        CFI Block cfiCond198 Using cfiCommon0
        CFI (cfiCond198) NoFunction
        CFI (cfiCond198) Conditional ??CrossCallReturnLabel_32
        CFI (cfiCond198) R6 load(1, XDATA, add(CFA_XSP16, literal(-20)))
        CFI (cfiCond198) VB load(1, XDATA, add(CFA_XSP16, literal(-19)))
        CFI (cfiCond198) V0 load(1, XDATA, add(CFA_XSP16, literal(-18)))
        CFI (cfiCond198) V1 load(1, XDATA, add(CFA_XSP16, literal(-17)))
        CFI (cfiCond198) V2 load(1, XDATA, add(CFA_XSP16, literal(-16)))
        CFI (cfiCond198) V3 load(1, XDATA, add(CFA_XSP16, literal(-15)))
        CFI (cfiCond198) V4 load(1, XDATA, add(CFA_XSP16, literal(-14)))
        CFI (cfiCond198) V5 load(1, XDATA, add(CFA_XSP16, literal(-13)))
        CFI (cfiCond198) V6 load(1, XDATA, add(CFA_XSP16, literal(-12)))
        CFI (cfiCond198) V7 load(1, XDATA, add(CFA_XSP16, literal(-11)))
        CFI (cfiCond198) V8 load(1, XDATA, add(CFA_XSP16, literal(-10)))
        CFI (cfiCond198) V9 load(1, XDATA, add(CFA_XSP16, literal(-9)))
        CFI (cfiCond198) V10 load(1, XDATA, add(CFA_XSP16, literal(-8)))
        CFI (cfiCond198) V11 load(1, XDATA, add(CFA_XSP16, literal(-7)))
        CFI (cfiCond198) R7 load(1, XDATA, add(CFA_XSP16, literal(-6)))
        CFI (cfiCond198) ?RET_LOW load(1, XDATA, add(CFA_XSP16, literal(-5)))
        CFI (cfiCond198) ?RET_HIGH load(1, XDATA, add(CFA_XSP16, literal(-4)))
        CFI (cfiCond198) ?BRET_EXT load(1, XDATA, add(CFA_XSP16, literal(-3)))
        CFI (cfiCond198) DPL0 load(1, XDATA, add(CFA_XSP16, literal(-2)))
        CFI (cfiCond198) DPH0 load(1, XDATA, add(CFA_XSP16, literal(-1)))
        CFI (cfiCond198) CFA_SP SP+0
        CFI (cfiCond198) CFA_XSP16 add(XSP16, 33)
        CFI Block cfiPicker199 Using cfiCommon1
        CFI (cfiPicker199) NoFunction
        CFI (cfiPicker199) Picker
        LCALL   ??Subroutine73_0 & 0xFFFF
??CrossCallReturnLabel_155:
        MOV     DPL,?V0 + 0
        MOV     DPH,?V0 + 1
        MOVX    A,@DPTR
        MOV     R0,A
        LCALL   ??Subroutine74_0 & 0xFFFF
??CrossCallReturnLabel_156:
        RET
        CFI EndBlock cfiCond197
        CFI EndBlock cfiCond198
        CFI EndBlock cfiPicker199

        RSEG BANKED_CODE:CODE:NOROOT(0)
?Subroutine44:
        CFI Block cfiCond200 Using cfiCommon0
        CFI NoFunction
        CFI Conditional ??CrossCallReturnLabel_152, ??CrossCallReturnLabel_25
        CFI R6 load(1, XDATA, add(CFA_XSP16, literal(-20)))
        CFI VB load(1, XDATA, add(CFA_XSP16, literal(-19)))
        CFI V0 load(1, XDATA, add(CFA_XSP16, literal(-18)))
        CFI V1 load(1, XDATA, add(CFA_XSP16, literal(-17)))
        CFI V2 load(1, XDATA, add(CFA_XSP16, literal(-16)))
        CFI V3 load(1, XDATA, add(CFA_XSP16, literal(-15)))
        CFI V4 load(1, XDATA, add(CFA_XSP16, literal(-14)))
        CFI V5 load(1, XDATA, add(CFA_XSP16, literal(-13)))
        CFI V6 load(1, XDATA, add(CFA_XSP16, literal(-12)))
        CFI V7 load(1, XDATA, add(CFA_XSP16, literal(-11)))
        CFI V8 load(1, XDATA, add(CFA_XSP16, literal(-10)))
        CFI V9 load(1, XDATA, add(CFA_XSP16, literal(-9)))
        CFI V10 load(1, XDATA, add(CFA_XSP16, literal(-8)))
        CFI V11 load(1, XDATA, add(CFA_XSP16, literal(-7)))
        CFI R7 load(1, XDATA, add(CFA_XSP16, literal(-6)))
        CFI ?RET_LOW load(1, XDATA, add(CFA_XSP16, literal(-5)))
        CFI ?RET_HIGH load(1, XDATA, add(CFA_XSP16, literal(-4)))
        CFI ?BRET_EXT load(1, XDATA, add(CFA_XSP16, literal(-3)))
        CFI DPL0 load(1, XDATA, add(CFA_XSP16, literal(-2)))
        CFI DPH0 load(1, XDATA, add(CFA_XSP16, literal(-1)))
        CFI CFA_SP SP+0
        CFI CFA_XSP16 add(XSP16, 33)
        CFI Block cfiCond201 Using cfiCommon0
        CFI (cfiCond201) NoFunction
        CFI (cfiCond201) Conditional ??CrossCallReturnLabel_152, ??CrossCallReturnLabel_26
        CFI (cfiCond201) R6 load(1, XDATA, add(CFA_XSP16, literal(-20)))
        CFI (cfiCond201) VB load(1, XDATA, add(CFA_XSP16, literal(-19)))
        CFI (cfiCond201) V0 load(1, XDATA, add(CFA_XSP16, literal(-18)))
        CFI (cfiCond201) V1 load(1, XDATA, add(CFA_XSP16, literal(-17)))
        CFI (cfiCond201) V2 load(1, XDATA, add(CFA_XSP16, literal(-16)))
        CFI (cfiCond201) V3 load(1, XDATA, add(CFA_XSP16, literal(-15)))
        CFI (cfiCond201) V4 load(1, XDATA, add(CFA_XSP16, literal(-14)))
        CFI (cfiCond201) V5 load(1, XDATA, add(CFA_XSP16, literal(-13)))
        CFI (cfiCond201) V6 load(1, XDATA, add(CFA_XSP16, literal(-12)))
        CFI (cfiCond201) V7 load(1, XDATA, add(CFA_XSP16, literal(-11)))
        CFI (cfiCond201) V8 load(1, XDATA, add(CFA_XSP16, literal(-10)))
        CFI (cfiCond201) V9 load(1, XDATA, add(CFA_XSP16, literal(-9)))
        CFI (cfiCond201) V10 load(1, XDATA, add(CFA_XSP16, literal(-8)))
        CFI (cfiCond201) V11 load(1, XDATA, add(CFA_XSP16, literal(-7)))
        CFI (cfiCond201) R7 load(1, XDATA, add(CFA_XSP16, literal(-6)))
        CFI (cfiCond201) ?RET_LOW load(1, XDATA, add(CFA_XSP16, literal(-5)))
        CFI (cfiCond201) ?RET_HIGH load(1, XDATA, add(CFA_XSP16, literal(-4)))
        CFI (cfiCond201) ?BRET_EXT load(1, XDATA, add(CFA_XSP16, literal(-3)))
        CFI (cfiCond201) DPL0 load(1, XDATA, add(CFA_XSP16, literal(-2)))
        CFI (cfiCond201) DPH0 load(1, XDATA, add(CFA_XSP16, literal(-1)))
        CFI (cfiCond201) CFA_SP SP+0
        CFI (cfiCond201) CFA_XSP16 add(XSP16, 33)
        CFI Block cfiCond202 Using cfiCommon0
        CFI (cfiCond202) NoFunction
        CFI (cfiCond202) Conditional ??CrossCallReturnLabel_153, ??CrossCallReturnLabel_25
        CFI (cfiCond202) R6 load(1, XDATA, add(CFA_XSP16, literal(-20)))
        CFI (cfiCond202) VB load(1, XDATA, add(CFA_XSP16, literal(-19)))
        CFI (cfiCond202) V0 load(1, XDATA, add(CFA_XSP16, literal(-18)))
        CFI (cfiCond202) V1 load(1, XDATA, add(CFA_XSP16, literal(-17)))
        CFI (cfiCond202) V2 load(1, XDATA, add(CFA_XSP16, literal(-16)))
        CFI (cfiCond202) V3 load(1, XDATA, add(CFA_XSP16, literal(-15)))
        CFI (cfiCond202) V4 load(1, XDATA, add(CFA_XSP16, literal(-14)))
        CFI (cfiCond202) V5 load(1, XDATA, add(CFA_XSP16, literal(-13)))
        CFI (cfiCond202) V6 load(1, XDATA, add(CFA_XSP16, literal(-12)))
        CFI (cfiCond202) V7 load(1, XDATA, add(CFA_XSP16, literal(-11)))
        CFI (cfiCond202) V8 load(1, XDATA, add(CFA_XSP16, literal(-10)))
        CFI (cfiCond202) V9 load(1, XDATA, add(CFA_XSP16, literal(-9)))
        CFI (cfiCond202) V10 load(1, XDATA, add(CFA_XSP16, literal(-8)))
        CFI (cfiCond202) V11 load(1, XDATA, add(CFA_XSP16, literal(-7)))
        CFI (cfiCond202) R7 load(1, XDATA, add(CFA_XSP16, literal(-6)))
        CFI (cfiCond202) ?RET_LOW load(1, XDATA, add(CFA_XSP16, literal(-5)))
        CFI (cfiCond202) ?RET_HIGH load(1, XDATA, add(CFA_XSP16, literal(-4)))
        CFI (cfiCond202) ?BRET_EXT load(1, XDATA, add(CFA_XSP16, literal(-3)))
        CFI (cfiCond202) DPL0 load(1, XDATA, add(CFA_XSP16, literal(-2)))
        CFI (cfiCond202) DPH0 load(1, XDATA, add(CFA_XSP16, literal(-1)))
        CFI (cfiCond202) CFA_SP SP+0
        CFI (cfiCond202) CFA_XSP16 add(XSP16, 33)
        CFI Block cfiCond203 Using cfiCommon0
        CFI (cfiCond203) NoFunction
        CFI (cfiCond203) Conditional ??CrossCallReturnLabel_153, ??CrossCallReturnLabel_26
        CFI (cfiCond203) R6 load(1, XDATA, add(CFA_XSP16, literal(-20)))
        CFI (cfiCond203) VB load(1, XDATA, add(CFA_XSP16, literal(-19)))
        CFI (cfiCond203) V0 load(1, XDATA, add(CFA_XSP16, literal(-18)))
        CFI (cfiCond203) V1 load(1, XDATA, add(CFA_XSP16, literal(-17)))
        CFI (cfiCond203) V2 load(1, XDATA, add(CFA_XSP16, literal(-16)))
        CFI (cfiCond203) V3 load(1, XDATA, add(CFA_XSP16, literal(-15)))
        CFI (cfiCond203) V4 load(1, XDATA, add(CFA_XSP16, literal(-14)))
        CFI (cfiCond203) V5 load(1, XDATA, add(CFA_XSP16, literal(-13)))
        CFI (cfiCond203) V6 load(1, XDATA, add(CFA_XSP16, literal(-12)))
        CFI (cfiCond203) V7 load(1, XDATA, add(CFA_XSP16, literal(-11)))
        CFI (cfiCond203) V8 load(1, XDATA, add(CFA_XSP16, literal(-10)))
        CFI (cfiCond203) V9 load(1, XDATA, add(CFA_XSP16, literal(-9)))
        CFI (cfiCond203) V10 load(1, XDATA, add(CFA_XSP16, literal(-8)))
        CFI (cfiCond203) V11 load(1, XDATA, add(CFA_XSP16, literal(-7)))
        CFI (cfiCond203) R7 load(1, XDATA, add(CFA_XSP16, literal(-6)))
        CFI (cfiCond203) ?RET_LOW load(1, XDATA, add(CFA_XSP16, literal(-5)))
        CFI (cfiCond203) ?RET_HIGH load(1, XDATA, add(CFA_XSP16, literal(-4)))
        CFI (cfiCond203) ?BRET_EXT load(1, XDATA, add(CFA_XSP16, literal(-3)))
        CFI (cfiCond203) DPL0 load(1, XDATA, add(CFA_XSP16, literal(-2)))
        CFI (cfiCond203) DPH0 load(1, XDATA, add(CFA_XSP16, literal(-1)))
        CFI (cfiCond203) CFA_SP SP+0
        CFI (cfiCond203) CFA_XSP16 add(XSP16, 33)
        CFI Block cfiPicker204 Using cfiCommon1
        CFI (cfiPicker204) NoFunction
        CFI (cfiPicker204) Picker
        MOV     R4,#0x3
        MOV     R5,#0x0
        MOV     R2,?V0 + 0
        MOV     R3,?V0 + 1
        CFI EndBlock cfiCond200
        CFI EndBlock cfiCond201
        CFI EndBlock cfiCond202
        CFI EndBlock cfiCond203
        CFI EndBlock cfiPicker204
        REQUIRE ??Subroutine73_0
        ; // Fall through to label ??Subroutine73_0

        RSEG BANKED_CODE:CODE:NOROOT(0)
??Subroutine73_0:
        CFI Block cfiCond205 Using cfiCommon0
        CFI NoFunction
        CFI Conditional ??CrossCallReturnLabel_154, ??CrossCallReturnLabel_143
        CFI R6 load(1, XDATA, add(CFA_XSP16, literal(-20)))
        CFI VB load(1, XDATA, add(CFA_XSP16, literal(-19)))
        CFI V0 load(1, XDATA, add(CFA_XSP16, literal(-18)))
        CFI V1 load(1, XDATA, add(CFA_XSP16, literal(-17)))
        CFI V2 load(1, XDATA, add(CFA_XSP16, literal(-16)))
        CFI V3 load(1, XDATA, add(CFA_XSP16, literal(-15)))
        CFI V4 load(1, XDATA, add(CFA_XSP16, literal(-14)))
        CFI V5 load(1, XDATA, add(CFA_XSP16, literal(-13)))
        CFI V6 load(1, XDATA, add(CFA_XSP16, literal(-12)))
        CFI V7 load(1, XDATA, add(CFA_XSP16, literal(-11)))
        CFI V8 load(1, XDATA, add(CFA_XSP16, literal(-10)))
        CFI V9 load(1, XDATA, add(CFA_XSP16, literal(-9)))
        CFI V10 load(1, XDATA, add(CFA_XSP16, literal(-8)))
        CFI V11 load(1, XDATA, add(CFA_XSP16, literal(-7)))
        CFI R7 load(1, XDATA, add(CFA_XSP16, literal(-6)))
        CFI ?RET_LOW load(1, XDATA, add(CFA_XSP16, literal(-5)))
        CFI ?RET_HIGH load(1, XDATA, add(CFA_XSP16, literal(-4)))
        CFI ?BRET_EXT load(1, XDATA, add(CFA_XSP16, literal(-3)))
        CFI DPL0 load(1, XDATA, add(CFA_XSP16, literal(-2)))
        CFI DPH0 load(1, XDATA, add(CFA_XSP16, literal(-1)))
        CFI CFA_SP SP+0
        CFI CFA_XSP16 add(XSP16, 33)
        CFI Block cfiCond206 Using cfiCommon0
        CFI (cfiCond206) NoFunction
        CFI (cfiCond206) Conditional ??CrossCallReturnLabel_154, ??CrossCallReturnLabel_144
        CFI (cfiCond206) R6 load(1, XDATA, add(CFA_XSP16, literal(-12)))
        CFI (cfiCond206) VB load(1, XDATA, add(CFA_XSP16, literal(-11)))
        CFI (cfiCond206) V0 load(1, XDATA, add(CFA_XSP16, literal(-10)))
        CFI (cfiCond206) V1 load(1, XDATA, add(CFA_XSP16, literal(-9)))
        CFI (cfiCond206) V2 load(1, XDATA, add(CFA_XSP16, literal(-8)))
        CFI (cfiCond206) V3 load(1, XDATA, add(CFA_XSP16, literal(-7)))
        CFI (cfiCond206) R7 load(1, XDATA, add(CFA_XSP16, literal(-6)))
        CFI (cfiCond206) ?RET_LOW load(1, XDATA, add(CFA_XSP16, literal(-5)))
        CFI (cfiCond206) ?RET_HIGH load(1, XDATA, add(CFA_XSP16, literal(-4)))
        CFI (cfiCond206) ?BRET_EXT load(1, XDATA, add(CFA_XSP16, literal(-3)))
        CFI (cfiCond206) DPL0 load(1, XDATA, add(CFA_XSP16, literal(-2)))
        CFI (cfiCond206) DPH0 load(1, XDATA, add(CFA_XSP16, literal(-1)))
        CFI (cfiCond206) CFA_SP SP+0
        CFI (cfiCond206) CFA_XSP16 add(XSP16, 17)
        CFI Block cfiCond207 Using cfiCommon0
        CFI (cfiCond207) NoFunction
        CFI (cfiCond207) Conditional ??CrossCallReturnLabel_154, ??CrossCallReturnLabel_145
        CFI (cfiCond207) R6 load(1, XDATA, add(CFA_XSP16, literal(-10)))
        CFI (cfiCond207) VB load(1, XDATA, add(CFA_XSP16, literal(-9)))
        CFI (cfiCond207) V0 load(1, XDATA, add(CFA_XSP16, literal(-8)))
        CFI (cfiCond207) V1 load(1, XDATA, add(CFA_XSP16, literal(-7)))
        CFI (cfiCond207) R7 load(1, XDATA, add(CFA_XSP16, literal(-6)))
        CFI (cfiCond207) ?RET_LOW load(1, XDATA, add(CFA_XSP16, literal(-5)))
        CFI (cfiCond207) ?RET_HIGH load(1, XDATA, add(CFA_XSP16, literal(-4)))
        CFI (cfiCond207) ?BRET_EXT load(1, XDATA, add(CFA_XSP16, literal(-3)))
        CFI (cfiCond207) DPL0 load(1, XDATA, add(CFA_XSP16, literal(-2)))
        CFI (cfiCond207) DPH0 load(1, XDATA, add(CFA_XSP16, literal(-1)))
        CFI (cfiCond207) CFA_SP SP+0
        CFI (cfiCond207) CFA_XSP16 add(XSP16, 10)
        CFI Block cfiCond208 Using cfiCommon0
        CFI (cfiCond208) NoFunction
        CFI (cfiCond208) Conditional ??CrossCallReturnLabel_154, ??CrossCallReturnLabel_146
        CFI (cfiCond208) R6 load(1, XDATA, add(CFA_XSP16, literal(-20)))
        CFI (cfiCond208) VB load(1, XDATA, add(CFA_XSP16, literal(-19)))
        CFI (cfiCond208) V0 load(1, XDATA, add(CFA_XSP16, literal(-18)))
        CFI (cfiCond208) V1 load(1, XDATA, add(CFA_XSP16, literal(-17)))
        CFI (cfiCond208) V2 load(1, XDATA, add(CFA_XSP16, literal(-16)))
        CFI (cfiCond208) V3 load(1, XDATA, add(CFA_XSP16, literal(-15)))
        CFI (cfiCond208) V4 load(1, XDATA, add(CFA_XSP16, literal(-14)))
        CFI (cfiCond208) V5 load(1, XDATA, add(CFA_XSP16, literal(-13)))
        CFI (cfiCond208) V6 load(1, XDATA, add(CFA_XSP16, literal(-12)))
        CFI (cfiCond208) V7 load(1, XDATA, add(CFA_XSP16, literal(-11)))
        CFI (cfiCond208) V8 load(1, XDATA, add(CFA_XSP16, literal(-10)))
        CFI (cfiCond208) V9 load(1, XDATA, add(CFA_XSP16, literal(-9)))
        CFI (cfiCond208) V10 load(1, XDATA, add(CFA_XSP16, literal(-8)))
        CFI (cfiCond208) V11 load(1, XDATA, add(CFA_XSP16, literal(-7)))
        CFI (cfiCond208) R7 load(1, XDATA, add(CFA_XSP16, literal(-6)))
        CFI (cfiCond208) ?RET_LOW load(1, XDATA, add(CFA_XSP16, literal(-5)))
        CFI (cfiCond208) ?RET_HIGH load(1, XDATA, add(CFA_XSP16, literal(-4)))
        CFI (cfiCond208) ?BRET_EXT load(1, XDATA, add(CFA_XSP16, literal(-3)))
        CFI (cfiCond208) DPL0 load(1, XDATA, add(CFA_XSP16, literal(-2)))
        CFI (cfiCond208) DPH0 load(1, XDATA, add(CFA_XSP16, literal(-1)))
        CFI (cfiCond208) CFA_SP SP+0
        CFI (cfiCond208) CFA_XSP16 add(XSP16, 33)
        CFI Block cfiCond209 Using cfiCommon0
        CFI (cfiCond209) NoFunction
        CFI (cfiCond209) Conditional ??CrossCallReturnLabel_154, ??CrossCallReturnLabel_147
        CFI (cfiCond209) R6 load(1, XDATA, add(CFA_XSP16, literal(-12)))
        CFI (cfiCond209) VB load(1, XDATA, add(CFA_XSP16, literal(-11)))
        CFI (cfiCond209) V0 load(1, XDATA, add(CFA_XSP16, literal(-10)))
        CFI (cfiCond209) V1 load(1, XDATA, add(CFA_XSP16, literal(-9)))
        CFI (cfiCond209) V2 load(1, XDATA, add(CFA_XSP16, literal(-8)))
        CFI (cfiCond209) V3 load(1, XDATA, add(CFA_XSP16, literal(-7)))
        CFI (cfiCond209) R7 load(1, XDATA, add(CFA_XSP16, literal(-6)))
        CFI (cfiCond209) ?RET_LOW load(1, XDATA, add(CFA_XSP16, literal(-5)))
        CFI (cfiCond209) ?RET_HIGH load(1, XDATA, add(CFA_XSP16, literal(-4)))
        CFI (cfiCond209) ?BRET_EXT load(1, XDATA, add(CFA_XSP16, literal(-3)))
        CFI (cfiCond209) DPL0 load(1, XDATA, add(CFA_XSP16, literal(-2)))
        CFI (cfiCond209) DPH0 load(1, XDATA, add(CFA_XSP16, literal(-1)))
        CFI (cfiCond209) CFA_SP SP+0
        CFI (cfiCond209) CFA_XSP16 add(XSP16, 17)
        CFI Block cfiCond210 Using cfiCommon0
        CFI (cfiCond210) NoFunction
        CFI (cfiCond210) Conditional ??CrossCallReturnLabel_155, ??CrossCallReturnLabel_31
        CFI (cfiCond210) R6 load(1, XDATA, add(CFA_XSP16, literal(-20)))
        CFI (cfiCond210) VB load(1, XDATA, add(CFA_XSP16, literal(-19)))
        CFI (cfiCond210) V0 load(1, XDATA, add(CFA_XSP16, literal(-18)))
        CFI (cfiCond210) V1 load(1, XDATA, add(CFA_XSP16, literal(-17)))
        CFI (cfiCond210) V2 load(1, XDATA, add(CFA_XSP16, literal(-16)))
        CFI (cfiCond210) V3 load(1, XDATA, add(CFA_XSP16, literal(-15)))
        CFI (cfiCond210) V4 load(1, XDATA, add(CFA_XSP16, literal(-14)))
        CFI (cfiCond210) V5 load(1, XDATA, add(CFA_XSP16, literal(-13)))
        CFI (cfiCond210) V6 load(1, XDATA, add(CFA_XSP16, literal(-12)))
        CFI (cfiCond210) V7 load(1, XDATA, add(CFA_XSP16, literal(-11)))
        CFI (cfiCond210) V8 load(1, XDATA, add(CFA_XSP16, literal(-10)))
        CFI (cfiCond210) V9 load(1, XDATA, add(CFA_XSP16, literal(-9)))
        CFI (cfiCond210) V10 load(1, XDATA, add(CFA_XSP16, literal(-8)))
        CFI (cfiCond210) V11 load(1, XDATA, add(CFA_XSP16, literal(-7)))
        CFI (cfiCond210) R7 load(1, XDATA, add(CFA_XSP16, literal(-6)))
        CFI (cfiCond210) ?RET_LOW load(1, XDATA, add(CFA_XSP16, literal(-5)))
        CFI (cfiCond210) ?RET_HIGH load(1, XDATA, add(CFA_XSP16, literal(-4)))
        CFI (cfiCond210) ?BRET_EXT load(1, XDATA, add(CFA_XSP16, literal(-3)))
        CFI (cfiCond210) DPL0 load(1, XDATA, add(CFA_XSP16, literal(-2)))
        CFI (cfiCond210) DPH0 load(1, XDATA, add(CFA_XSP16, literal(-1)))
        CFI (cfiCond210) CFA_SP SP+0
        CFI (cfiCond210) CFA_XSP16 add(XSP16, 33)
        CFI Block cfiCond211 Using cfiCommon0
        CFI (cfiCond211) NoFunction
        CFI (cfiCond211) Conditional ??CrossCallReturnLabel_155, ??CrossCallReturnLabel_32
        CFI (cfiCond211) R6 load(1, XDATA, add(CFA_XSP16, literal(-20)))
        CFI (cfiCond211) VB load(1, XDATA, add(CFA_XSP16, literal(-19)))
        CFI (cfiCond211) V0 load(1, XDATA, add(CFA_XSP16, literal(-18)))
        CFI (cfiCond211) V1 load(1, XDATA, add(CFA_XSP16, literal(-17)))
        CFI (cfiCond211) V2 load(1, XDATA, add(CFA_XSP16, literal(-16)))
        CFI (cfiCond211) V3 load(1, XDATA, add(CFA_XSP16, literal(-15)))
        CFI (cfiCond211) V4 load(1, XDATA, add(CFA_XSP16, literal(-14)))
        CFI (cfiCond211) V5 load(1, XDATA, add(CFA_XSP16, literal(-13)))
        CFI (cfiCond211) V6 load(1, XDATA, add(CFA_XSP16, literal(-12)))
        CFI (cfiCond211) V7 load(1, XDATA, add(CFA_XSP16, literal(-11)))
        CFI (cfiCond211) V8 load(1, XDATA, add(CFA_XSP16, literal(-10)))
        CFI (cfiCond211) V9 load(1, XDATA, add(CFA_XSP16, literal(-9)))
        CFI (cfiCond211) V10 load(1, XDATA, add(CFA_XSP16, literal(-8)))
        CFI (cfiCond211) V11 load(1, XDATA, add(CFA_XSP16, literal(-7)))
        CFI (cfiCond211) R7 load(1, XDATA, add(CFA_XSP16, literal(-6)))
        CFI (cfiCond211) ?RET_LOW load(1, XDATA, add(CFA_XSP16, literal(-5)))
        CFI (cfiCond211) ?RET_HIGH load(1, XDATA, add(CFA_XSP16, literal(-4)))
        CFI (cfiCond211) ?BRET_EXT load(1, XDATA, add(CFA_XSP16, literal(-3)))
        CFI (cfiCond211) DPL0 load(1, XDATA, add(CFA_XSP16, literal(-2)))
        CFI (cfiCond211) DPH0 load(1, XDATA, add(CFA_XSP16, literal(-1)))
        CFI (cfiCond211) CFA_SP SP+0
        CFI (cfiCond211) CFA_XSP16 add(XSP16, 33)
        CFI Block cfiCond212 Using cfiCommon0
        CFI (cfiCond212) NoFunction
        CFI (cfiCond212) Conditional ??CrossCallReturnLabel_152, ??CrossCallReturnLabel_25
        CFI (cfiCond212) R6 load(1, XDATA, add(CFA_XSP16, literal(-20)))
        CFI (cfiCond212) VB load(1, XDATA, add(CFA_XSP16, literal(-19)))
        CFI (cfiCond212) V0 load(1, XDATA, add(CFA_XSP16, literal(-18)))
        CFI (cfiCond212) V1 load(1, XDATA, add(CFA_XSP16, literal(-17)))
        CFI (cfiCond212) V2 load(1, XDATA, add(CFA_XSP16, literal(-16)))
        CFI (cfiCond212) V3 load(1, XDATA, add(CFA_XSP16, literal(-15)))
        CFI (cfiCond212) V4 load(1, XDATA, add(CFA_XSP16, literal(-14)))
        CFI (cfiCond212) V5 load(1, XDATA, add(CFA_XSP16, literal(-13)))
        CFI (cfiCond212) V6 load(1, XDATA, add(CFA_XSP16, literal(-12)))
        CFI (cfiCond212) V7 load(1, XDATA, add(CFA_XSP16, literal(-11)))
        CFI (cfiCond212) V8 load(1, XDATA, add(CFA_XSP16, literal(-10)))
        CFI (cfiCond212) V9 load(1, XDATA, add(CFA_XSP16, literal(-9)))
        CFI (cfiCond212) V10 load(1, XDATA, add(CFA_XSP16, literal(-8)))
        CFI (cfiCond212) V11 load(1, XDATA, add(CFA_XSP16, literal(-7)))
        CFI (cfiCond212) R7 load(1, XDATA, add(CFA_XSP16, literal(-6)))
        CFI (cfiCond212) ?RET_LOW load(1, XDATA, add(CFA_XSP16, literal(-5)))
        CFI (cfiCond212) ?RET_HIGH load(1, XDATA, add(CFA_XSP16, literal(-4)))
        CFI (cfiCond212) ?BRET_EXT load(1, XDATA, add(CFA_XSP16, literal(-3)))
        CFI (cfiCond212) DPL0 load(1, XDATA, add(CFA_XSP16, literal(-2)))
        CFI (cfiCond212) DPH0 load(1, XDATA, add(CFA_XSP16, literal(-1)))
        CFI (cfiCond212) CFA_SP SP+0
        CFI (cfiCond212) CFA_XSP16 add(XSP16, 33)
        CFI Block cfiCond213 Using cfiCommon0
        CFI (cfiCond213) NoFunction
        CFI (cfiCond213) Conditional ??CrossCallReturnLabel_152, ??CrossCallReturnLabel_26
        CFI (cfiCond213) R6 load(1, XDATA, add(CFA_XSP16, literal(-20)))
        CFI (cfiCond213) VB load(1, XDATA, add(CFA_XSP16, literal(-19)))
        CFI (cfiCond213) V0 load(1, XDATA, add(CFA_XSP16, literal(-18)))
        CFI (cfiCond213) V1 load(1, XDATA, add(CFA_XSP16, literal(-17)))
        CFI (cfiCond213) V2 load(1, XDATA, add(CFA_XSP16, literal(-16)))
        CFI (cfiCond213) V3 load(1, XDATA, add(CFA_XSP16, literal(-15)))
        CFI (cfiCond213) V4 load(1, XDATA, add(CFA_XSP16, literal(-14)))
        CFI (cfiCond213) V5 load(1, XDATA, add(CFA_XSP16, literal(-13)))
        CFI (cfiCond213) V6 load(1, XDATA, add(CFA_XSP16, literal(-12)))
        CFI (cfiCond213) V7 load(1, XDATA, add(CFA_XSP16, literal(-11)))
        CFI (cfiCond213) V8 load(1, XDATA, add(CFA_XSP16, literal(-10)))
        CFI (cfiCond213) V9 load(1, XDATA, add(CFA_XSP16, literal(-9)))
        CFI (cfiCond213) V10 load(1, XDATA, add(CFA_XSP16, literal(-8)))
        CFI (cfiCond213) V11 load(1, XDATA, add(CFA_XSP16, literal(-7)))
        CFI (cfiCond213) R7 load(1, XDATA, add(CFA_XSP16, literal(-6)))
        CFI (cfiCond213) ?RET_LOW load(1, XDATA, add(CFA_XSP16, literal(-5)))
        CFI (cfiCond213) ?RET_HIGH load(1, XDATA, add(CFA_XSP16, literal(-4)))
        CFI (cfiCond213) ?BRET_EXT load(1, XDATA, add(CFA_XSP16, literal(-3)))
        CFI (cfiCond213) DPL0 load(1, XDATA, add(CFA_XSP16, literal(-2)))
        CFI (cfiCond213) DPH0 load(1, XDATA, add(CFA_XSP16, literal(-1)))
        CFI (cfiCond213) CFA_SP SP+0
        CFI (cfiCond213) CFA_XSP16 add(XSP16, 33)
        CFI Block cfiCond214 Using cfiCommon0
        CFI (cfiCond214) NoFunction
        CFI (cfiCond214) Conditional ??CrossCallReturnLabel_153, ??CrossCallReturnLabel_25
        CFI (cfiCond214) R6 load(1, XDATA, add(CFA_XSP16, literal(-20)))
        CFI (cfiCond214) VB load(1, XDATA, add(CFA_XSP16, literal(-19)))
        CFI (cfiCond214) V0 load(1, XDATA, add(CFA_XSP16, literal(-18)))
        CFI (cfiCond214) V1 load(1, XDATA, add(CFA_XSP16, literal(-17)))
        CFI (cfiCond214) V2 load(1, XDATA, add(CFA_XSP16, literal(-16)))
        CFI (cfiCond214) V3 load(1, XDATA, add(CFA_XSP16, literal(-15)))
        CFI (cfiCond214) V4 load(1, XDATA, add(CFA_XSP16, literal(-14)))
        CFI (cfiCond214) V5 load(1, XDATA, add(CFA_XSP16, literal(-13)))
        CFI (cfiCond214) V6 load(1, XDATA, add(CFA_XSP16, literal(-12)))
        CFI (cfiCond214) V7 load(1, XDATA, add(CFA_XSP16, literal(-11)))
        CFI (cfiCond214) V8 load(1, XDATA, add(CFA_XSP16, literal(-10)))
        CFI (cfiCond214) V9 load(1, XDATA, add(CFA_XSP16, literal(-9)))
        CFI (cfiCond214) V10 load(1, XDATA, add(CFA_XSP16, literal(-8)))
        CFI (cfiCond214) V11 load(1, XDATA, add(CFA_XSP16, literal(-7)))
        CFI (cfiCond214) R7 load(1, XDATA, add(CFA_XSP16, literal(-6)))
        CFI (cfiCond214) ?RET_LOW load(1, XDATA, add(CFA_XSP16, literal(-5)))
        CFI (cfiCond214) ?RET_HIGH load(1, XDATA, add(CFA_XSP16, literal(-4)))
        CFI (cfiCond214) ?BRET_EXT load(1, XDATA, add(CFA_XSP16, literal(-3)))
        CFI (cfiCond214) DPL0 load(1, XDATA, add(CFA_XSP16, literal(-2)))
        CFI (cfiCond214) DPH0 load(1, XDATA, add(CFA_XSP16, literal(-1)))
        CFI (cfiCond214) CFA_SP SP+0
        CFI (cfiCond214) CFA_XSP16 add(XSP16, 33)
        CFI Block cfiCond215 Using cfiCommon0
        CFI (cfiCond215) NoFunction
        CFI (cfiCond215) Conditional ??CrossCallReturnLabel_153, ??CrossCallReturnLabel_26
        CFI (cfiCond215) R6 load(1, XDATA, add(CFA_XSP16, literal(-20)))
        CFI (cfiCond215) VB load(1, XDATA, add(CFA_XSP16, literal(-19)))
        CFI (cfiCond215) V0 load(1, XDATA, add(CFA_XSP16, literal(-18)))
        CFI (cfiCond215) V1 load(1, XDATA, add(CFA_XSP16, literal(-17)))
        CFI (cfiCond215) V2 load(1, XDATA, add(CFA_XSP16, literal(-16)))
        CFI (cfiCond215) V3 load(1, XDATA, add(CFA_XSP16, literal(-15)))
        CFI (cfiCond215) V4 load(1, XDATA, add(CFA_XSP16, literal(-14)))
        CFI (cfiCond215) V5 load(1, XDATA, add(CFA_XSP16, literal(-13)))
        CFI (cfiCond215) V6 load(1, XDATA, add(CFA_XSP16, literal(-12)))
        CFI (cfiCond215) V7 load(1, XDATA, add(CFA_XSP16, literal(-11)))
        CFI (cfiCond215) V8 load(1, XDATA, add(CFA_XSP16, literal(-10)))
        CFI (cfiCond215) V9 load(1, XDATA, add(CFA_XSP16, literal(-9)))
        CFI (cfiCond215) V10 load(1, XDATA, add(CFA_XSP16, literal(-8)))
        CFI (cfiCond215) V11 load(1, XDATA, add(CFA_XSP16, literal(-7)))
        CFI (cfiCond215) R7 load(1, XDATA, add(CFA_XSP16, literal(-6)))
        CFI (cfiCond215) ?RET_LOW load(1, XDATA, add(CFA_XSP16, literal(-5)))
        CFI (cfiCond215) ?RET_HIGH load(1, XDATA, add(CFA_XSP16, literal(-4)))
        CFI (cfiCond215) ?BRET_EXT load(1, XDATA, add(CFA_XSP16, literal(-3)))
        CFI (cfiCond215) DPL0 load(1, XDATA, add(CFA_XSP16, literal(-2)))
        CFI (cfiCond215) DPH0 load(1, XDATA, add(CFA_XSP16, literal(-1)))
        CFI (cfiCond215) CFA_SP SP+0
        CFI (cfiCond215) CFA_XSP16 add(XSP16, 33)
        CFI Block cfiPicker216 Using cfiCommon1
        CFI (cfiPicker216) NoFunction
        CFI (cfiPicker216) Picker
        MOV     R1,#0x0
        LCALL   ??HalUARTWrite?relay
        ; Setup parameters for call to function Show_Bit
        ; Setup parameters for call to function Show_Bit
        ; Setup parameters for call to function Show_Bit
        ; Setup parameters for call to function Show_Bit
        ; Setup parameters for call to function Show_Bit
        ; Setup parameters for call to function Show_Bit
        ; Setup parameters for call to function Show_Bit
        ; Setup parameters for call to function Show_Bit
        ; Setup parameters for call to function Show_Bit
        ; Setup parameters for call to function Show_Bit
        ; Setup parameters for call to function Show_Bit
        MOV     R1,#0x8
        RET
        CFI EndBlock cfiCond205
        CFI EndBlock cfiCond206
        CFI EndBlock cfiCond207
        CFI EndBlock cfiCond208
        CFI EndBlock cfiCond209
        CFI EndBlock cfiCond210
        CFI EndBlock cfiCond211
        CFI EndBlock cfiCond212
        CFI EndBlock cfiCond213
        CFI EndBlock cfiCond214
        CFI EndBlock cfiCond215
        CFI EndBlock cfiPicker216

        RSEG BANKED_CODE:CODE:NOROOT(0)
?Subroutine15:
        CFI Block cfiCond217 Using cfiCommon0
        CFI NoFunction
        CFI Conditional ??CrossCallReturnLabel_29
        CFI R6 load(1, XDATA, add(CFA_XSP16, literal(-20)))
        CFI VB load(1, XDATA, add(CFA_XSP16, literal(-19)))
        CFI V0 load(1, XDATA, add(CFA_XSP16, literal(-18)))
        CFI V1 load(1, XDATA, add(CFA_XSP16, literal(-17)))
        CFI V2 load(1, XDATA, add(CFA_XSP16, literal(-16)))
        CFI V3 load(1, XDATA, add(CFA_XSP16, literal(-15)))
        CFI V4 load(1, XDATA, add(CFA_XSP16, literal(-14)))
        CFI V5 load(1, XDATA, add(CFA_XSP16, literal(-13)))
        CFI V6 load(1, XDATA, add(CFA_XSP16, literal(-12)))
        CFI V7 load(1, XDATA, add(CFA_XSP16, literal(-11)))
        CFI V8 load(1, XDATA, add(CFA_XSP16, literal(-10)))
        CFI V9 load(1, XDATA, add(CFA_XSP16, literal(-9)))
        CFI V10 load(1, XDATA, add(CFA_XSP16, literal(-8)))
        CFI V11 load(1, XDATA, add(CFA_XSP16, literal(-7)))
        CFI R7 load(1, XDATA, add(CFA_XSP16, literal(-6)))
        CFI ?RET_LOW load(1, XDATA, add(CFA_XSP16, literal(-5)))
        CFI ?RET_HIGH load(1, XDATA, add(CFA_XSP16, literal(-4)))
        CFI ?BRET_EXT load(1, XDATA, add(CFA_XSP16, literal(-3)))
        CFI DPL0 load(1, XDATA, add(CFA_XSP16, literal(-2)))
        CFI DPH0 load(1, XDATA, add(CFA_XSP16, literal(-1)))
        CFI CFA_SP SP+0
        CFI CFA_XSP16 add(XSP16, 33)
        CFI Block cfiCond218 Using cfiCommon0
        CFI (cfiCond218) NoFunction
        CFI (cfiCond218) Conditional ??CrossCallReturnLabel_30
        CFI (cfiCond218) R6 load(1, XDATA, add(CFA_XSP16, literal(-20)))
        CFI (cfiCond218) VB load(1, XDATA, add(CFA_XSP16, literal(-19)))
        CFI (cfiCond218) V0 load(1, XDATA, add(CFA_XSP16, literal(-18)))
        CFI (cfiCond218) V1 load(1, XDATA, add(CFA_XSP16, literal(-17)))
        CFI (cfiCond218) V2 load(1, XDATA, add(CFA_XSP16, literal(-16)))
        CFI (cfiCond218) V3 load(1, XDATA, add(CFA_XSP16, literal(-15)))
        CFI (cfiCond218) V4 load(1, XDATA, add(CFA_XSP16, literal(-14)))
        CFI (cfiCond218) V5 load(1, XDATA, add(CFA_XSP16, literal(-13)))
        CFI (cfiCond218) V6 load(1, XDATA, add(CFA_XSP16, literal(-12)))
        CFI (cfiCond218) V7 load(1, XDATA, add(CFA_XSP16, literal(-11)))
        CFI (cfiCond218) V8 load(1, XDATA, add(CFA_XSP16, literal(-10)))
        CFI (cfiCond218) V9 load(1, XDATA, add(CFA_XSP16, literal(-9)))
        CFI (cfiCond218) V10 load(1, XDATA, add(CFA_XSP16, literal(-8)))
        CFI (cfiCond218) V11 load(1, XDATA, add(CFA_XSP16, literal(-7)))
        CFI (cfiCond218) R7 load(1, XDATA, add(CFA_XSP16, literal(-6)))
        CFI (cfiCond218) ?RET_LOW load(1, XDATA, add(CFA_XSP16, literal(-5)))
        CFI (cfiCond218) ?RET_HIGH load(1, XDATA, add(CFA_XSP16, literal(-4)))
        CFI (cfiCond218) ?BRET_EXT load(1, XDATA, add(CFA_XSP16, literal(-3)))
        CFI (cfiCond218) DPL0 load(1, XDATA, add(CFA_XSP16, literal(-2)))
        CFI (cfiCond218) DPH0 load(1, XDATA, add(CFA_XSP16, literal(-1)))
        CFI (cfiCond218) CFA_SP SP+0
        CFI (cfiCond218) CFA_XSP16 add(XSP16, 33)
        CFI Block cfiPicker219 Using cfiCommon1
        CFI (cfiPicker219) NoFunction
        CFI (cfiPicker219) Picker
        MOV     R4,#0x3
        MOV     R5,#0x0
        MOV     R2,#`?<Constant "\\n\\323\\320">` & 0xff
        MOV     R3,#(`?<Constant "\\n\\323\\320">` >> 8) & 0xff
        MOV     R1,#0x0
        LCALL   ??HalUARTWrite?relay
        MOV     DPTR,#NEI_NUM
        LCALL   ?Subroutine47 & 0xFFFF
??CrossCallReturnLabel_75:
        ; Setup parameters for call to function HalUARTWrite
        ; Setup parameters for call to function HalUARTWrite
        MOV     R4,#0x6
        MOV     R5,#0x0
        MOV     R2,#`?<Constant "\\270\\366\\301\\332\\276\\323">` & 0xff
        MOV     R3,#(`?<Constant "\\270\\366\\301\\332\\276\\323">` >> 8) & 0xff
        MOV     R1,#0x0
        LCALL   ??HalUARTWrite?relay
        ; Setup parameters for call to function HalUARTWrite
        ; Setup parameters for call to function HalUARTWrite
        MOV     R4,#0xe
        MOV     R5,#0x0
        MOV     R2,#`?<Constant "\\n------------\\n">` & 0xff
        MOV     R3,#(`?<Constant "\\n------------\\n">` >> 8) & 0xff
        RET
        CFI EndBlock cfiCond217
        CFI EndBlock cfiCond218
        CFI EndBlock cfiPicker219

        RSEG BANKED_CODE:CODE:NOROOT(0)
?Subroutine47:
        CFI Block cfiCond220 Using cfiCommon0
        CFI NoFunction
        CFI Conditional ??CrossCallReturnLabel_74
        CFI R6 load(1, XDATA, add(CFA_XSP16, literal(-10)))
        CFI VB load(1, XDATA, add(CFA_XSP16, literal(-9)))
        CFI V0 load(1, XDATA, add(CFA_XSP16, literal(-8)))
        CFI V1 load(1, XDATA, add(CFA_XSP16, literal(-7)))
        CFI R7 load(1, XDATA, add(CFA_XSP16, literal(-6)))
        CFI ?RET_LOW load(1, XDATA, add(CFA_XSP16, literal(-5)))
        CFI ?RET_HIGH load(1, XDATA, add(CFA_XSP16, literal(-4)))
        CFI ?BRET_EXT load(1, XDATA, add(CFA_XSP16, literal(-3)))
        CFI DPL0 load(1, XDATA, add(CFA_XSP16, literal(-2)))
        CFI DPH0 load(1, XDATA, add(CFA_XSP16, literal(-1)))
        CFI CFA_SP SP+0
        CFI CFA_XSP16 add(XSP16, 15)
        CFI Block cfiCond221 Using cfiCommon0
        CFI (cfiCond221) NoFunction
        CFI (cfiCond221) Conditional ??CrossCallReturnLabel_75, ??CrossCallReturnLabel_29
        CFI (cfiCond221) R6 load(1, XDATA, add(CFA_XSP16, literal(-20)))
        CFI (cfiCond221) VB load(1, XDATA, add(CFA_XSP16, literal(-19)))
        CFI (cfiCond221) V0 load(1, XDATA, add(CFA_XSP16, literal(-18)))
        CFI (cfiCond221) V1 load(1, XDATA, add(CFA_XSP16, literal(-17)))
        CFI (cfiCond221) V2 load(1, XDATA, add(CFA_XSP16, literal(-16)))
        CFI (cfiCond221) V3 load(1, XDATA, add(CFA_XSP16, literal(-15)))
        CFI (cfiCond221) V4 load(1, XDATA, add(CFA_XSP16, literal(-14)))
        CFI (cfiCond221) V5 load(1, XDATA, add(CFA_XSP16, literal(-13)))
        CFI (cfiCond221) V6 load(1, XDATA, add(CFA_XSP16, literal(-12)))
        CFI (cfiCond221) V7 load(1, XDATA, add(CFA_XSP16, literal(-11)))
        CFI (cfiCond221) V8 load(1, XDATA, add(CFA_XSP16, literal(-10)))
        CFI (cfiCond221) V9 load(1, XDATA, add(CFA_XSP16, literal(-9)))
        CFI (cfiCond221) V10 load(1, XDATA, add(CFA_XSP16, literal(-8)))
        CFI (cfiCond221) V11 load(1, XDATA, add(CFA_XSP16, literal(-7)))
        CFI (cfiCond221) R7 load(1, XDATA, add(CFA_XSP16, literal(-6)))
        CFI (cfiCond221) ?RET_LOW load(1, XDATA, add(CFA_XSP16, literal(-5)))
        CFI (cfiCond221) ?RET_HIGH load(1, XDATA, add(CFA_XSP16, literal(-4)))
        CFI (cfiCond221) ?BRET_EXT load(1, XDATA, add(CFA_XSP16, literal(-3)))
        CFI (cfiCond221) DPL0 load(1, XDATA, add(CFA_XSP16, literal(-2)))
        CFI (cfiCond221) DPH0 load(1, XDATA, add(CFA_XSP16, literal(-1)))
        CFI (cfiCond221) CFA_SP SP+0
        CFI (cfiCond221) CFA_XSP16 add(XSP16, 33)
        CFI Block cfiCond222 Using cfiCommon0
        CFI (cfiCond222) NoFunction
        CFI (cfiCond222) Conditional ??CrossCallReturnLabel_75, ??CrossCallReturnLabel_30
        CFI (cfiCond222) R6 load(1, XDATA, add(CFA_XSP16, literal(-20)))
        CFI (cfiCond222) VB load(1, XDATA, add(CFA_XSP16, literal(-19)))
        CFI (cfiCond222) V0 load(1, XDATA, add(CFA_XSP16, literal(-18)))
        CFI (cfiCond222) V1 load(1, XDATA, add(CFA_XSP16, literal(-17)))
        CFI (cfiCond222) V2 load(1, XDATA, add(CFA_XSP16, literal(-16)))
        CFI (cfiCond222) V3 load(1, XDATA, add(CFA_XSP16, literal(-15)))
        CFI (cfiCond222) V4 load(1, XDATA, add(CFA_XSP16, literal(-14)))
        CFI (cfiCond222) V5 load(1, XDATA, add(CFA_XSP16, literal(-13)))
        CFI (cfiCond222) V6 load(1, XDATA, add(CFA_XSP16, literal(-12)))
        CFI (cfiCond222) V7 load(1, XDATA, add(CFA_XSP16, literal(-11)))
        CFI (cfiCond222) V8 load(1, XDATA, add(CFA_XSP16, literal(-10)))
        CFI (cfiCond222) V9 load(1, XDATA, add(CFA_XSP16, literal(-9)))
        CFI (cfiCond222) V10 load(1, XDATA, add(CFA_XSP16, literal(-8)))
        CFI (cfiCond222) V11 load(1, XDATA, add(CFA_XSP16, literal(-7)))
        CFI (cfiCond222) R7 load(1, XDATA, add(CFA_XSP16, literal(-6)))
        CFI (cfiCond222) ?RET_LOW load(1, XDATA, add(CFA_XSP16, literal(-5)))
        CFI (cfiCond222) ?RET_HIGH load(1, XDATA, add(CFA_XSP16, literal(-4)))
        CFI (cfiCond222) ?BRET_EXT load(1, XDATA, add(CFA_XSP16, literal(-3)))
        CFI (cfiCond222) DPL0 load(1, XDATA, add(CFA_XSP16, literal(-2)))
        CFI (cfiCond222) DPH0 load(1, XDATA, add(CFA_XSP16, literal(-1)))
        CFI (cfiCond222) CFA_SP SP+0
        CFI (cfiCond222) CFA_XSP16 add(XSP16, 33)
        CFI Block cfiPicker223 Using cfiCommon1
        CFI (cfiPicker223) NoFunction
        CFI (cfiPicker223) Picker
        LCALL   ?Subroutine58 & 0xFFFF
??CrossCallReturnLabel_89:
        MOV     R1,#0x0
        LCALL   ??HalUARTWrite?relay
        RET
        CFI EndBlock cfiCond220
        CFI EndBlock cfiCond221
        CFI EndBlock cfiCond222
        CFI EndBlock cfiPicker223

        RSEG BANKED_CODE:CODE:NOROOT(0)
?Subroutine14:
        CFI Block cfiCond224 Using cfiCommon0
        CFI NoFunction
        CFI Conditional ??CrossCallReturnLabel_27
        CFI R6 load(1, XDATA, add(CFA_XSP16, literal(-20)))
        CFI VB load(1, XDATA, add(CFA_XSP16, literal(-19)))
        CFI V0 load(1, XDATA, add(CFA_XSP16, literal(-18)))
        CFI V1 load(1, XDATA, add(CFA_XSP16, literal(-17)))
        CFI V2 load(1, XDATA, add(CFA_XSP16, literal(-16)))
        CFI V3 load(1, XDATA, add(CFA_XSP16, literal(-15)))
        CFI V4 load(1, XDATA, add(CFA_XSP16, literal(-14)))
        CFI V5 load(1, XDATA, add(CFA_XSP16, literal(-13)))
        CFI V6 load(1, XDATA, add(CFA_XSP16, literal(-12)))
        CFI V7 load(1, XDATA, add(CFA_XSP16, literal(-11)))
        CFI V8 load(1, XDATA, add(CFA_XSP16, literal(-10)))
        CFI V9 load(1, XDATA, add(CFA_XSP16, literal(-9)))
        CFI V10 load(1, XDATA, add(CFA_XSP16, literal(-8)))
        CFI V11 load(1, XDATA, add(CFA_XSP16, literal(-7)))
        CFI R7 load(1, XDATA, add(CFA_XSP16, literal(-6)))
        CFI ?RET_LOW load(1, XDATA, add(CFA_XSP16, literal(-5)))
        CFI ?RET_HIGH load(1, XDATA, add(CFA_XSP16, literal(-4)))
        CFI ?BRET_EXT load(1, XDATA, add(CFA_XSP16, literal(-3)))
        CFI DPL0 load(1, XDATA, add(CFA_XSP16, literal(-2)))
        CFI DPH0 load(1, XDATA, add(CFA_XSP16, literal(-1)))
        CFI CFA_SP SP+0
        CFI CFA_XSP16 add(XSP16, 33)
        CFI Block cfiCond225 Using cfiCommon0
        CFI (cfiCond225) NoFunction
        CFI (cfiCond225) Conditional ??CrossCallReturnLabel_28
        CFI (cfiCond225) R6 load(1, XDATA, add(CFA_XSP16, literal(-20)))
        CFI (cfiCond225) VB load(1, XDATA, add(CFA_XSP16, literal(-19)))
        CFI (cfiCond225) V0 load(1, XDATA, add(CFA_XSP16, literal(-18)))
        CFI (cfiCond225) V1 load(1, XDATA, add(CFA_XSP16, literal(-17)))
        CFI (cfiCond225) V2 load(1, XDATA, add(CFA_XSP16, literal(-16)))
        CFI (cfiCond225) V3 load(1, XDATA, add(CFA_XSP16, literal(-15)))
        CFI (cfiCond225) V4 load(1, XDATA, add(CFA_XSP16, literal(-14)))
        CFI (cfiCond225) V5 load(1, XDATA, add(CFA_XSP16, literal(-13)))
        CFI (cfiCond225) V6 load(1, XDATA, add(CFA_XSP16, literal(-12)))
        CFI (cfiCond225) V7 load(1, XDATA, add(CFA_XSP16, literal(-11)))
        CFI (cfiCond225) V8 load(1, XDATA, add(CFA_XSP16, literal(-10)))
        CFI (cfiCond225) V9 load(1, XDATA, add(CFA_XSP16, literal(-9)))
        CFI (cfiCond225) V10 load(1, XDATA, add(CFA_XSP16, literal(-8)))
        CFI (cfiCond225) V11 load(1, XDATA, add(CFA_XSP16, literal(-7)))
        CFI (cfiCond225) R7 load(1, XDATA, add(CFA_XSP16, literal(-6)))
        CFI (cfiCond225) ?RET_LOW load(1, XDATA, add(CFA_XSP16, literal(-5)))
        CFI (cfiCond225) ?RET_HIGH load(1, XDATA, add(CFA_XSP16, literal(-4)))
        CFI (cfiCond225) ?BRET_EXT load(1, XDATA, add(CFA_XSP16, literal(-3)))
        CFI (cfiCond225) DPL0 load(1, XDATA, add(CFA_XSP16, literal(-2)))
        CFI (cfiCond225) DPH0 load(1, XDATA, add(CFA_XSP16, literal(-1)))
        CFI (cfiCond225) CFA_SP SP+0
        CFI (cfiCond225) CFA_XSP16 add(XSP16, 33)
        CFI Block cfiPicker226 Using cfiCommon1
        CFI (cfiPicker226) NoFunction
        CFI (cfiPicker226) Picker
        MOV     R1,#0x0
        LCALL   ??HalUARTWrite?relay
        ; Setup parameters for call to function HalUARTWrite
        ; Setup parameters for call to function HalUARTWrite
        MOV     R4,#0xe
        MOV     R5,#0x0
        MOV     R2,#`?<Constant "peer_degree = ">` & 0xff
        MOV     R3,#(`?<Constant "peer_degree = ">` >> 8) & 0xff
        MOV     R1,#0x0
        LCALL   ??HalUARTWrite?relay
        ; Setup parameters for call to function Show_Num
        ; Setup parameters for call to function Show_Num
        MOV     ?V0 + 0,?V0 + 4
        MOV     R2,?V0 + 0
        MOV     R3,#0x0
        LCALL   ??Show_Num?relay
        ; Setup parameters for call to function HalUARTWrite
        ; Setup parameters for call to function HalUARTWrite
        MOV     R4,#0x2
        MOV     R5,#0x0
        MOV     R2,#`?<Constant "\\n\\n">` & 0xff
        MOV     R3,#(`?<Constant "\\n\\n">` >> 8) & 0xff
        MOV     R1,#0x0
        LCALL   ??HalUARTWrite?relay
        LCALL   ?Subroutine51 & 0xFFFF
??CrossCallReturnLabel_77:
        RET
        CFI EndBlock cfiCond224
        CFI EndBlock cfiCond225
        CFI EndBlock cfiPicker226

        RSEG BANKED_CODE:CODE:NOROOT(0)
?Subroutine51:
        CFI Block cfiCond227 Using cfiCommon0
        CFI NoFunction
        CFI Conditional ??CrossCallReturnLabel_77, ??CrossCallReturnLabel_27
        CFI R6 load(1, XDATA, add(CFA_XSP16, literal(-20)))
        CFI VB load(1, XDATA, add(CFA_XSP16, literal(-19)))
        CFI V0 load(1, XDATA, add(CFA_XSP16, literal(-18)))
        CFI V1 load(1, XDATA, add(CFA_XSP16, literal(-17)))
        CFI V2 load(1, XDATA, add(CFA_XSP16, literal(-16)))
        CFI V3 load(1, XDATA, add(CFA_XSP16, literal(-15)))
        CFI V4 load(1, XDATA, add(CFA_XSP16, literal(-14)))
        CFI V5 load(1, XDATA, add(CFA_XSP16, literal(-13)))
        CFI V6 load(1, XDATA, add(CFA_XSP16, literal(-12)))
        CFI V7 load(1, XDATA, add(CFA_XSP16, literal(-11)))
        CFI V8 load(1, XDATA, add(CFA_XSP16, literal(-10)))
        CFI V9 load(1, XDATA, add(CFA_XSP16, literal(-9)))
        CFI V10 load(1, XDATA, add(CFA_XSP16, literal(-8)))
        CFI V11 load(1, XDATA, add(CFA_XSP16, literal(-7)))
        CFI R7 load(1, XDATA, add(CFA_XSP16, literal(-6)))
        CFI ?RET_LOW load(1, XDATA, add(CFA_XSP16, literal(-5)))
        CFI ?RET_HIGH load(1, XDATA, add(CFA_XSP16, literal(-4)))
        CFI ?BRET_EXT load(1, XDATA, add(CFA_XSP16, literal(-3)))
        CFI DPL0 load(1, XDATA, add(CFA_XSP16, literal(-2)))
        CFI DPH0 load(1, XDATA, add(CFA_XSP16, literal(-1)))
        CFI CFA_SP SP+0
        CFI CFA_XSP16 add(XSP16, 33)
        CFI Block cfiCond228 Using cfiCommon0
        CFI (cfiCond228) NoFunction
        CFI (cfiCond228) Conditional ??CrossCallReturnLabel_77, ??CrossCallReturnLabel_28
        CFI (cfiCond228) R6 load(1, XDATA, add(CFA_XSP16, literal(-20)))
        CFI (cfiCond228) VB load(1, XDATA, add(CFA_XSP16, literal(-19)))
        CFI (cfiCond228) V0 load(1, XDATA, add(CFA_XSP16, literal(-18)))
        CFI (cfiCond228) V1 load(1, XDATA, add(CFA_XSP16, literal(-17)))
        CFI (cfiCond228) V2 load(1, XDATA, add(CFA_XSP16, literal(-16)))
        CFI (cfiCond228) V3 load(1, XDATA, add(CFA_XSP16, literal(-15)))
        CFI (cfiCond228) V4 load(1, XDATA, add(CFA_XSP16, literal(-14)))
        CFI (cfiCond228) V5 load(1, XDATA, add(CFA_XSP16, literal(-13)))
        CFI (cfiCond228) V6 load(1, XDATA, add(CFA_XSP16, literal(-12)))
        CFI (cfiCond228) V7 load(1, XDATA, add(CFA_XSP16, literal(-11)))
        CFI (cfiCond228) V8 load(1, XDATA, add(CFA_XSP16, literal(-10)))
        CFI (cfiCond228) V9 load(1, XDATA, add(CFA_XSP16, literal(-9)))
        CFI (cfiCond228) V10 load(1, XDATA, add(CFA_XSP16, literal(-8)))
        CFI (cfiCond228) V11 load(1, XDATA, add(CFA_XSP16, literal(-7)))
        CFI (cfiCond228) R7 load(1, XDATA, add(CFA_XSP16, literal(-6)))
        CFI (cfiCond228) ?RET_LOW load(1, XDATA, add(CFA_XSP16, literal(-5)))
        CFI (cfiCond228) ?RET_HIGH load(1, XDATA, add(CFA_XSP16, literal(-4)))
        CFI (cfiCond228) ?BRET_EXT load(1, XDATA, add(CFA_XSP16, literal(-3)))
        CFI (cfiCond228) DPL0 load(1, XDATA, add(CFA_XSP16, literal(-2)))
        CFI (cfiCond228) DPH0 load(1, XDATA, add(CFA_XSP16, literal(-1)))
        CFI (cfiCond228) CFA_SP SP+0
        CFI (cfiCond228) CFA_XSP16 add(XSP16, 33)
        CFI Block cfiCond229 Using cfiCommon0
        CFI (cfiCond229) NoFunction
        CFI (cfiCond229) Conditional ??CrossCallReturnLabel_76
        CFI (cfiCond229) R6 load(1, XDATA, add(CFA_XSP16, literal(-12)))
        CFI (cfiCond229) VB load(1, XDATA, add(CFA_XSP16, literal(-11)))
        CFI (cfiCond229) V0 load(1, XDATA, add(CFA_XSP16, literal(-10)))
        CFI (cfiCond229) V1 load(1, XDATA, add(CFA_XSP16, literal(-9)))
        CFI (cfiCond229) V2 load(1, XDATA, add(CFA_XSP16, literal(-8)))
        CFI (cfiCond229) V3 load(1, XDATA, add(CFA_XSP16, literal(-7)))
        CFI (cfiCond229) R7 load(1, XDATA, add(CFA_XSP16, literal(-6)))
        CFI (cfiCond229) ?RET_LOW load(1, XDATA, add(CFA_XSP16, literal(-5)))
        CFI (cfiCond229) ?RET_HIGH load(1, XDATA, add(CFA_XSP16, literal(-4)))
        CFI (cfiCond229) ?BRET_EXT load(1, XDATA, add(CFA_XSP16, literal(-3)))
        CFI (cfiCond229) DPL0 load(1, XDATA, add(CFA_XSP16, literal(-2)))
        CFI (cfiCond229) DPH0 load(1, XDATA, add(CFA_XSP16, literal(-1)))
        CFI (cfiCond229) CFA_SP SP+0
        CFI (cfiCond229) CFA_XSP16 add(XSP16, 17)
        CFI Block cfiPicker230 Using cfiCommon1
        CFI (cfiPicker230) NoFunction
        CFI (cfiPicker230) Picker
        MOV     DPTR,#Exchange_index
        MOVX    A,@DPTR
        MOV     ?V0 + 0,A
        MOV     ?V0 + 1,#0x0
        MOV     A,#0x2
        MOV     R0,#?V0 + 0
        RET
        CFI EndBlock cfiCond227
        CFI EndBlock cfiCond228
        CFI EndBlock cfiCond229
        CFI EndBlock cfiPicker230

        RSEG BANKED_CODE:CODE:NOROOT(0)
?Subroutine13:
        CFI Block cfiCond231 Using cfiCommon0
        CFI NoFunction
        CFI Conditional ??CrossCallReturnLabel_25
        CFI R6 load(1, XDATA, add(CFA_XSP16, literal(-20)))
        CFI VB load(1, XDATA, add(CFA_XSP16, literal(-19)))
        CFI V0 load(1, XDATA, add(CFA_XSP16, literal(-18)))
        CFI V1 load(1, XDATA, add(CFA_XSP16, literal(-17)))
        CFI V2 load(1, XDATA, add(CFA_XSP16, literal(-16)))
        CFI V3 load(1, XDATA, add(CFA_XSP16, literal(-15)))
        CFI V4 load(1, XDATA, add(CFA_XSP16, literal(-14)))
        CFI V5 load(1, XDATA, add(CFA_XSP16, literal(-13)))
        CFI V6 load(1, XDATA, add(CFA_XSP16, literal(-12)))
        CFI V7 load(1, XDATA, add(CFA_XSP16, literal(-11)))
        CFI V8 load(1, XDATA, add(CFA_XSP16, literal(-10)))
        CFI V9 load(1, XDATA, add(CFA_XSP16, literal(-9)))
        CFI V10 load(1, XDATA, add(CFA_XSP16, literal(-8)))
        CFI V11 load(1, XDATA, add(CFA_XSP16, literal(-7)))
        CFI R7 load(1, XDATA, add(CFA_XSP16, literal(-6)))
        CFI ?RET_LOW load(1, XDATA, add(CFA_XSP16, literal(-5)))
        CFI ?RET_HIGH load(1, XDATA, add(CFA_XSP16, literal(-4)))
        CFI ?BRET_EXT load(1, XDATA, add(CFA_XSP16, literal(-3)))
        CFI DPL0 load(1, XDATA, add(CFA_XSP16, literal(-2)))
        CFI DPH0 load(1, XDATA, add(CFA_XSP16, literal(-1)))
        CFI CFA_SP SP+0
        CFI CFA_XSP16 add(XSP16, 33)
        CFI Block cfiCond232 Using cfiCommon0
        CFI (cfiCond232) NoFunction
        CFI (cfiCond232) Conditional ??CrossCallReturnLabel_26
        CFI (cfiCond232) R6 load(1, XDATA, add(CFA_XSP16, literal(-20)))
        CFI (cfiCond232) VB load(1, XDATA, add(CFA_XSP16, literal(-19)))
        CFI (cfiCond232) V0 load(1, XDATA, add(CFA_XSP16, literal(-18)))
        CFI (cfiCond232) V1 load(1, XDATA, add(CFA_XSP16, literal(-17)))
        CFI (cfiCond232) V2 load(1, XDATA, add(CFA_XSP16, literal(-16)))
        CFI (cfiCond232) V3 load(1, XDATA, add(CFA_XSP16, literal(-15)))
        CFI (cfiCond232) V4 load(1, XDATA, add(CFA_XSP16, literal(-14)))
        CFI (cfiCond232) V5 load(1, XDATA, add(CFA_XSP16, literal(-13)))
        CFI (cfiCond232) V6 load(1, XDATA, add(CFA_XSP16, literal(-12)))
        CFI (cfiCond232) V7 load(1, XDATA, add(CFA_XSP16, literal(-11)))
        CFI (cfiCond232) V8 load(1, XDATA, add(CFA_XSP16, literal(-10)))
        CFI (cfiCond232) V9 load(1, XDATA, add(CFA_XSP16, literal(-9)))
        CFI (cfiCond232) V10 load(1, XDATA, add(CFA_XSP16, literal(-8)))
        CFI (cfiCond232) V11 load(1, XDATA, add(CFA_XSP16, literal(-7)))
        CFI (cfiCond232) R7 load(1, XDATA, add(CFA_XSP16, literal(-6)))
        CFI (cfiCond232) ?RET_LOW load(1, XDATA, add(CFA_XSP16, literal(-5)))
        CFI (cfiCond232) ?RET_HIGH load(1, XDATA, add(CFA_XSP16, literal(-4)))
        CFI (cfiCond232) ?BRET_EXT load(1, XDATA, add(CFA_XSP16, literal(-3)))
        CFI (cfiCond232) DPL0 load(1, XDATA, add(CFA_XSP16, literal(-2)))
        CFI (cfiCond232) DPH0 load(1, XDATA, add(CFA_XSP16, literal(-1)))
        CFI (cfiCond232) CFA_SP SP+0
        CFI (cfiCond232) CFA_XSP16 add(XSP16, 33)
        CFI Block cfiPicker233 Using cfiCommon1
        CFI (cfiPicker233) NoFunction
        CFI (cfiPicker233) Picker
        MOV     R4,#0xe
        MOV     R5,#0x0
        MOV     R2,#`?<Constant "encoding...\\n^^">` & 0xff
        MOV     R3,#(`?<Constant "encoding...\\n^^">` >> 8) & 0xff
        MOV     R1,#0x0
        LCALL   ??HalUARTWrite?relay
        MOV     ?V0 + 0,#`?<Constant "\\n||">` & 0xff
        MOV     ?V0 + 1,#(`?<Constant "\\n||">` >> 8) & 0xff
        ; Setup parameters for call to function HalUARTWrite
        ; Setup parameters for call to function HalUARTWrite
        LCALL   ?Subroutine44 & 0xFFFF
??CrossCallReturnLabel_152:
        MOV     A,R6
        MOV     R2,A
        MOV     A,R7
        MOV     R3,A
        LCALL   ??Show_Bit?relay
        MOV     ?V0 + 2,#`?<Constant " ">` & 0xff
        MOV     ?V0 + 3,#(`?<Constant " ">` >> 8) & 0xff
        ; Setup parameters for call to function HalUARTWrite
        ; Setup parameters for call to function HalUARTWrite
        LCALL   ?Subroutine42 & 0xFFFF
??CrossCallReturnLabel_70:
        ; Setup parameters for call to function HalUARTWrite
        ; Setup parameters for call to function HalUARTWrite
        LCALL   ?Subroutine44 & 0xFFFF
??CrossCallReturnLabel_153:
        MOV     R2,?V0 + 6
        MOV     R3,?V0 + 7
        LCALL   ?Subroutine61 & 0xFFFF
??CrossCallReturnLabel_129:
        MOV     R2,?V0 + 2
        MOV     R3,?V0 + 3
        MOV     R1,#0x0
        LCALL   ??HalUARTWrite?relay
        ; Setup parameters for call to function Show_Num
        ; Setup parameters for call to function Show_Num
        MOV     R2,?V0 + 6
        MOV     R3,?V0 + 7
        LCALL   ??Show_Num?relay
        ; Setup parameters for call to function HalUARTWrite
        ; Setup parameters for call to function HalUARTWrite
        MOV     R4,#0x3
        MOV     R5,#0x0
        MOV     R2,#`?<Constant "\\n->">` & 0xff
        MOV     R3,#(`?<Constant "\\n->">` >> 8) & 0xff
        MOV     R1,#0x0
        LCALL   ??HalUARTWrite?relay
        MOV     A,?V0 + 6
        ORL     A,R6
        MOV     R6,A
        MOV     A,?V0 + 7
        ORL     A,R7
        MOV     R7,A
        ; Setup parameters for call to function Show_Bit
        ; Setup parameters for call to function Show_Bit
        MOV     R1,#0x8
        MOV     A,R6
        MOV     R2,A
        MOV     A,R7
        MOV     R3,A
        LCALL   ??Show_Bit?relay
        ; Setup parameters for call to function HalUARTWrite
        ; Setup parameters for call to function HalUARTWrite
        LCALL   ?Subroutine42 & 0xFFFF
??CrossCallReturnLabel_71:
        ; Setup parameters for call to function HalUARTWrite
        ; Setup parameters for call to function HalUARTWrite
        MOV     R4,#0x1
        MOV     R5,#0x0
        MOV     R2,#`?<Constant "\\n">` & 0xff
        MOV     R3,#(`?<Constant "\\n">` >> 8) & 0xff
        RET
        CFI EndBlock cfiCond231
        CFI EndBlock cfiCond232
        CFI EndBlock cfiPicker233

        RSEG BANKED_CODE:CODE:NOROOT(0)
?Subroutine42:
        CFI Block cfiCond234 Using cfiCommon0
        CFI NoFunction
        CFI Conditional ??CrossCallReturnLabel_70, ??CrossCallReturnLabel_25
        CFI R6 load(1, XDATA, add(CFA_XSP16, literal(-20)))
        CFI VB load(1, XDATA, add(CFA_XSP16, literal(-19)))
        CFI V0 load(1, XDATA, add(CFA_XSP16, literal(-18)))
        CFI V1 load(1, XDATA, add(CFA_XSP16, literal(-17)))
        CFI V2 load(1, XDATA, add(CFA_XSP16, literal(-16)))
        CFI V3 load(1, XDATA, add(CFA_XSP16, literal(-15)))
        CFI V4 load(1, XDATA, add(CFA_XSP16, literal(-14)))
        CFI V5 load(1, XDATA, add(CFA_XSP16, literal(-13)))
        CFI V6 load(1, XDATA, add(CFA_XSP16, literal(-12)))
        CFI V7 load(1, XDATA, add(CFA_XSP16, literal(-11)))
        CFI V8 load(1, XDATA, add(CFA_XSP16, literal(-10)))
        CFI V9 load(1, XDATA, add(CFA_XSP16, literal(-9)))
        CFI V10 load(1, XDATA, add(CFA_XSP16, literal(-8)))
        CFI V11 load(1, XDATA, add(CFA_XSP16, literal(-7)))
        CFI R7 load(1, XDATA, add(CFA_XSP16, literal(-6)))
        CFI ?RET_LOW load(1, XDATA, add(CFA_XSP16, literal(-5)))
        CFI ?RET_HIGH load(1, XDATA, add(CFA_XSP16, literal(-4)))
        CFI ?BRET_EXT load(1, XDATA, add(CFA_XSP16, literal(-3)))
        CFI DPL0 load(1, XDATA, add(CFA_XSP16, literal(-2)))
        CFI DPH0 load(1, XDATA, add(CFA_XSP16, literal(-1)))
        CFI CFA_SP SP+0
        CFI CFA_XSP16 add(XSP16, 33)
        CFI Block cfiCond235 Using cfiCommon0
        CFI (cfiCond235) NoFunction
        CFI (cfiCond235) Conditional ??CrossCallReturnLabel_70, ??CrossCallReturnLabel_26
        CFI (cfiCond235) R6 load(1, XDATA, add(CFA_XSP16, literal(-20)))
        CFI (cfiCond235) VB load(1, XDATA, add(CFA_XSP16, literal(-19)))
        CFI (cfiCond235) V0 load(1, XDATA, add(CFA_XSP16, literal(-18)))
        CFI (cfiCond235) V1 load(1, XDATA, add(CFA_XSP16, literal(-17)))
        CFI (cfiCond235) V2 load(1, XDATA, add(CFA_XSP16, literal(-16)))
        CFI (cfiCond235) V3 load(1, XDATA, add(CFA_XSP16, literal(-15)))
        CFI (cfiCond235) V4 load(1, XDATA, add(CFA_XSP16, literal(-14)))
        CFI (cfiCond235) V5 load(1, XDATA, add(CFA_XSP16, literal(-13)))
        CFI (cfiCond235) V6 load(1, XDATA, add(CFA_XSP16, literal(-12)))
        CFI (cfiCond235) V7 load(1, XDATA, add(CFA_XSP16, literal(-11)))
        CFI (cfiCond235) V8 load(1, XDATA, add(CFA_XSP16, literal(-10)))
        CFI (cfiCond235) V9 load(1, XDATA, add(CFA_XSP16, literal(-9)))
        CFI (cfiCond235) V10 load(1, XDATA, add(CFA_XSP16, literal(-8)))
        CFI (cfiCond235) V11 load(1, XDATA, add(CFA_XSP16, literal(-7)))
        CFI (cfiCond235) R7 load(1, XDATA, add(CFA_XSP16, literal(-6)))
        CFI (cfiCond235) ?RET_LOW load(1, XDATA, add(CFA_XSP16, literal(-5)))
        CFI (cfiCond235) ?RET_HIGH load(1, XDATA, add(CFA_XSP16, literal(-4)))
        CFI (cfiCond235) ?BRET_EXT load(1, XDATA, add(CFA_XSP16, literal(-3)))
        CFI (cfiCond235) DPL0 load(1, XDATA, add(CFA_XSP16, literal(-2)))
        CFI (cfiCond235) DPH0 load(1, XDATA, add(CFA_XSP16, literal(-1)))
        CFI (cfiCond235) CFA_SP SP+0
        CFI (cfiCond235) CFA_XSP16 add(XSP16, 33)
        CFI Block cfiCond236 Using cfiCommon0
        CFI (cfiCond236) NoFunction
        CFI (cfiCond236) Conditional ??CrossCallReturnLabel_71, ??CrossCallReturnLabel_25
        CFI (cfiCond236) R6 load(1, XDATA, add(CFA_XSP16, literal(-20)))
        CFI (cfiCond236) VB load(1, XDATA, add(CFA_XSP16, literal(-19)))
        CFI (cfiCond236) V0 load(1, XDATA, add(CFA_XSP16, literal(-18)))
        CFI (cfiCond236) V1 load(1, XDATA, add(CFA_XSP16, literal(-17)))
        CFI (cfiCond236) V2 load(1, XDATA, add(CFA_XSP16, literal(-16)))
        CFI (cfiCond236) V3 load(1, XDATA, add(CFA_XSP16, literal(-15)))
        CFI (cfiCond236) V4 load(1, XDATA, add(CFA_XSP16, literal(-14)))
        CFI (cfiCond236) V5 load(1, XDATA, add(CFA_XSP16, literal(-13)))
        CFI (cfiCond236) V6 load(1, XDATA, add(CFA_XSP16, literal(-12)))
        CFI (cfiCond236) V7 load(1, XDATA, add(CFA_XSP16, literal(-11)))
        CFI (cfiCond236) V8 load(1, XDATA, add(CFA_XSP16, literal(-10)))
        CFI (cfiCond236) V9 load(1, XDATA, add(CFA_XSP16, literal(-9)))
        CFI (cfiCond236) V10 load(1, XDATA, add(CFA_XSP16, literal(-8)))
        CFI (cfiCond236) V11 load(1, XDATA, add(CFA_XSP16, literal(-7)))
        CFI (cfiCond236) R7 load(1, XDATA, add(CFA_XSP16, literal(-6)))
        CFI (cfiCond236) ?RET_LOW load(1, XDATA, add(CFA_XSP16, literal(-5)))
        CFI (cfiCond236) ?RET_HIGH load(1, XDATA, add(CFA_XSP16, literal(-4)))
        CFI (cfiCond236) ?BRET_EXT load(1, XDATA, add(CFA_XSP16, literal(-3)))
        CFI (cfiCond236) DPL0 load(1, XDATA, add(CFA_XSP16, literal(-2)))
        CFI (cfiCond236) DPH0 load(1, XDATA, add(CFA_XSP16, literal(-1)))
        CFI (cfiCond236) CFA_SP SP+0
        CFI (cfiCond236) CFA_XSP16 add(XSP16, 33)
        CFI Block cfiCond237 Using cfiCommon0
        CFI (cfiCond237) NoFunction
        CFI (cfiCond237) Conditional ??CrossCallReturnLabel_71, ??CrossCallReturnLabel_26
        CFI (cfiCond237) R6 load(1, XDATA, add(CFA_XSP16, literal(-20)))
        CFI (cfiCond237) VB load(1, XDATA, add(CFA_XSP16, literal(-19)))
        CFI (cfiCond237) V0 load(1, XDATA, add(CFA_XSP16, literal(-18)))
        CFI (cfiCond237) V1 load(1, XDATA, add(CFA_XSP16, literal(-17)))
        CFI (cfiCond237) V2 load(1, XDATA, add(CFA_XSP16, literal(-16)))
        CFI (cfiCond237) V3 load(1, XDATA, add(CFA_XSP16, literal(-15)))
        CFI (cfiCond237) V4 load(1, XDATA, add(CFA_XSP16, literal(-14)))
        CFI (cfiCond237) V5 load(1, XDATA, add(CFA_XSP16, literal(-13)))
        CFI (cfiCond237) V6 load(1, XDATA, add(CFA_XSP16, literal(-12)))
        CFI (cfiCond237) V7 load(1, XDATA, add(CFA_XSP16, literal(-11)))
        CFI (cfiCond237) V8 load(1, XDATA, add(CFA_XSP16, literal(-10)))
        CFI (cfiCond237) V9 load(1, XDATA, add(CFA_XSP16, literal(-9)))
        CFI (cfiCond237) V10 load(1, XDATA, add(CFA_XSP16, literal(-8)))
        CFI (cfiCond237) V11 load(1, XDATA, add(CFA_XSP16, literal(-7)))
        CFI (cfiCond237) R7 load(1, XDATA, add(CFA_XSP16, literal(-6)))
        CFI (cfiCond237) ?RET_LOW load(1, XDATA, add(CFA_XSP16, literal(-5)))
        CFI (cfiCond237) ?RET_HIGH load(1, XDATA, add(CFA_XSP16, literal(-4)))
        CFI (cfiCond237) ?BRET_EXT load(1, XDATA, add(CFA_XSP16, literal(-3)))
        CFI (cfiCond237) DPL0 load(1, XDATA, add(CFA_XSP16, literal(-2)))
        CFI (cfiCond237) DPH0 load(1, XDATA, add(CFA_XSP16, literal(-1)))
        CFI (cfiCond237) CFA_SP SP+0
        CFI (cfiCond237) CFA_XSP16 add(XSP16, 33)
        CFI Block cfiPicker238 Using cfiCommon1
        CFI (cfiPicker238) NoFunction
        CFI (cfiPicker238) Picker
        MOV     R4,#0x1
        MOV     R5,#0x0
        MOV     R2,?V0 + 2
        MOV     R3,?V0 + 3
        MOV     R1,#0x0
        LCALL   ??HalUARTWrite?relay
        ; Setup parameters for call to function Show_Num
        ; Setup parameters for call to function Show_Num
        ; Setup parameters for call to function Show_Num
        ; Setup parameters for call to function Show_Num
        MOV     A,R6
        MOV     R2,A
        MOV     A,R7
        MOV     R3,A
        LCALL   ??Show_Num?relay
        RET
        CFI EndBlock cfiCond234
        CFI EndBlock cfiCond235
        CFI EndBlock cfiCond236
        CFI EndBlock cfiCond237
        CFI EndBlock cfiPicker238

        RSEG BANKED_CODE:CODE:NOROOT(0)
?Subroutine12:
        CFI Block cfiCond239 Using cfiCommon0
        CFI NoFunction
        CFI Conditional ??CrossCallReturnLabel_23
        CFI R6 load(1, XDATA, add(CFA_XSP16, literal(-11)))
        CFI VB load(1, XDATA, add(CFA_XSP16, literal(-10)))
        CFI V0 load(1, XDATA, add(CFA_XSP16, literal(-9)))
        CFI V1 load(1, XDATA, add(CFA_XSP16, literal(-8)))
        CFI V2 load(1, XDATA, add(CFA_XSP16, literal(-7)))
        CFI R7 load(1, XDATA, add(CFA_XSP16, literal(-6)))
        CFI ?RET_LOW load(1, XDATA, add(CFA_XSP16, literal(-5)))
        CFI ?RET_HIGH load(1, XDATA, add(CFA_XSP16, literal(-4)))
        CFI ?BRET_EXT load(1, XDATA, add(CFA_XSP16, literal(-3)))
        CFI DPL0 load(1, XDATA, add(CFA_XSP16, literal(-2)))
        CFI DPH0 load(1, XDATA, add(CFA_XSP16, literal(-1)))
        CFI CFA_SP SP+0
        CFI CFA_XSP16 add(XSP16, 11)
        CFI Block cfiCond240 Using cfiCommon0
        CFI (cfiCond240) NoFunction
        CFI (cfiCond240) Conditional ??CrossCallReturnLabel_24
        CFI (cfiCond240) R6 load(1, XDATA, add(CFA_XSP16, literal(-20)))
        CFI (cfiCond240) VB load(1, XDATA, add(CFA_XSP16, literal(-19)))
        CFI (cfiCond240) V0 load(1, XDATA, add(CFA_XSP16, literal(-18)))
        CFI (cfiCond240) V1 load(1, XDATA, add(CFA_XSP16, literal(-17)))
        CFI (cfiCond240) V2 load(1, XDATA, add(CFA_XSP16, literal(-16)))
        CFI (cfiCond240) V3 load(1, XDATA, add(CFA_XSP16, literal(-15)))
        CFI (cfiCond240) V4 load(1, XDATA, add(CFA_XSP16, literal(-14)))
        CFI (cfiCond240) V5 load(1, XDATA, add(CFA_XSP16, literal(-13)))
        CFI (cfiCond240) V6 load(1, XDATA, add(CFA_XSP16, literal(-12)))
        CFI (cfiCond240) V7 load(1, XDATA, add(CFA_XSP16, literal(-11)))
        CFI (cfiCond240) V8 load(1, XDATA, add(CFA_XSP16, literal(-10)))
        CFI (cfiCond240) V9 load(1, XDATA, add(CFA_XSP16, literal(-9)))
        CFI (cfiCond240) V10 load(1, XDATA, add(CFA_XSP16, literal(-8)))
        CFI (cfiCond240) V11 load(1, XDATA, add(CFA_XSP16, literal(-7)))
        CFI (cfiCond240) R7 load(1, XDATA, add(CFA_XSP16, literal(-6)))
        CFI (cfiCond240) ?RET_LOW load(1, XDATA, add(CFA_XSP16, literal(-5)))
        CFI (cfiCond240) ?RET_HIGH load(1, XDATA, add(CFA_XSP16, literal(-4)))
        CFI (cfiCond240) ?BRET_EXT load(1, XDATA, add(CFA_XSP16, literal(-3)))
        CFI (cfiCond240) DPL0 load(1, XDATA, add(CFA_XSP16, literal(-2)))
        CFI (cfiCond240) DPH0 load(1, XDATA, add(CFA_XSP16, literal(-1)))
        CFI (cfiCond240) CFA_SP SP+0
        CFI (cfiCond240) CFA_XSP16 add(XSP16, 33)
        CFI Block cfiPicker241 Using cfiCommon1
        CFI (cfiPicker241) NoFunction
        CFI (cfiPicker241) Picker
        LCALL   ?Subroutine46 & 0xFFFF
??CrossCallReturnLabel_73:
        RET
        CFI EndBlock cfiCond239
        CFI EndBlock cfiCond240
        CFI EndBlock cfiPicker241

        RSEG BANKED_CODE:CODE:NOROOT(0)
?Subroutine46:
        CFI Block cfiCond242 Using cfiCommon0
        CFI NoFunction
        CFI Conditional ??CrossCallReturnLabel_73, ??CrossCallReturnLabel_23
        CFI R6 load(1, XDATA, add(CFA_XSP16, literal(-11)))
        CFI VB load(1, XDATA, add(CFA_XSP16, literal(-10)))
        CFI V0 load(1, XDATA, add(CFA_XSP16, literal(-9)))
        CFI V1 load(1, XDATA, add(CFA_XSP16, literal(-8)))
        CFI V2 load(1, XDATA, add(CFA_XSP16, literal(-7)))
        CFI R7 load(1, XDATA, add(CFA_XSP16, literal(-6)))
        CFI ?RET_LOW load(1, XDATA, add(CFA_XSP16, literal(-5)))
        CFI ?RET_HIGH load(1, XDATA, add(CFA_XSP16, literal(-4)))
        CFI ?BRET_EXT load(1, XDATA, add(CFA_XSP16, literal(-3)))
        CFI DPL0 load(1, XDATA, add(CFA_XSP16, literal(-2)))
        CFI DPH0 load(1, XDATA, add(CFA_XSP16, literal(-1)))
        CFI CFA_SP SP+0
        CFI CFA_XSP16 add(XSP16, 11)
        CFI Block cfiCond243 Using cfiCommon0
        CFI (cfiCond243) NoFunction
        CFI (cfiCond243) Conditional ??CrossCallReturnLabel_73, ??CrossCallReturnLabel_24
        CFI (cfiCond243) R6 load(1, XDATA, add(CFA_XSP16, literal(-20)))
        CFI (cfiCond243) VB load(1, XDATA, add(CFA_XSP16, literal(-19)))
        CFI (cfiCond243) V0 load(1, XDATA, add(CFA_XSP16, literal(-18)))
        CFI (cfiCond243) V1 load(1, XDATA, add(CFA_XSP16, literal(-17)))
        CFI (cfiCond243) V2 load(1, XDATA, add(CFA_XSP16, literal(-16)))
        CFI (cfiCond243) V3 load(1, XDATA, add(CFA_XSP16, literal(-15)))
        CFI (cfiCond243) V4 load(1, XDATA, add(CFA_XSP16, literal(-14)))
        CFI (cfiCond243) V5 load(1, XDATA, add(CFA_XSP16, literal(-13)))
        CFI (cfiCond243) V6 load(1, XDATA, add(CFA_XSP16, literal(-12)))
        CFI (cfiCond243) V7 load(1, XDATA, add(CFA_XSP16, literal(-11)))
        CFI (cfiCond243) V8 load(1, XDATA, add(CFA_XSP16, literal(-10)))
        CFI (cfiCond243) V9 load(1, XDATA, add(CFA_XSP16, literal(-9)))
        CFI (cfiCond243) V10 load(1, XDATA, add(CFA_XSP16, literal(-8)))
        CFI (cfiCond243) V11 load(1, XDATA, add(CFA_XSP16, literal(-7)))
        CFI (cfiCond243) R7 load(1, XDATA, add(CFA_XSP16, literal(-6)))
        CFI (cfiCond243) ?RET_LOW load(1, XDATA, add(CFA_XSP16, literal(-5)))
        CFI (cfiCond243) ?RET_HIGH load(1, XDATA, add(CFA_XSP16, literal(-4)))
        CFI (cfiCond243) ?BRET_EXT load(1, XDATA, add(CFA_XSP16, literal(-3)))
        CFI (cfiCond243) DPL0 load(1, XDATA, add(CFA_XSP16, literal(-2)))
        CFI (cfiCond243) DPH0 load(1, XDATA, add(CFA_XSP16, literal(-1)))
        CFI (cfiCond243) CFA_SP SP+0
        CFI (cfiCond243) CFA_XSP16 add(XSP16, 33)
        CFI Block cfiCond244 Using cfiCommon0
        CFI (cfiCond244) NoFunction
        CFI (cfiCond244) Conditional ??CrossCallReturnLabel_72, ??CrossCallReturnLabel_0
        CFI (cfiCond244) R6 load(1, XDATA, add(CFA_XSP16, literal(-20)))
        CFI (cfiCond244) VB load(1, XDATA, add(CFA_XSP16, literal(-19)))
        CFI (cfiCond244) V0 load(1, XDATA, add(CFA_XSP16, literal(-18)))
        CFI (cfiCond244) V1 load(1, XDATA, add(CFA_XSP16, literal(-17)))
        CFI (cfiCond244) V2 load(1, XDATA, add(CFA_XSP16, literal(-16)))
        CFI (cfiCond244) V3 load(1, XDATA, add(CFA_XSP16, literal(-15)))
        CFI (cfiCond244) V4 load(1, XDATA, add(CFA_XSP16, literal(-14)))
        CFI (cfiCond244) V5 load(1, XDATA, add(CFA_XSP16, literal(-13)))
        CFI (cfiCond244) V6 load(1, XDATA, add(CFA_XSP16, literal(-12)))
        CFI (cfiCond244) V7 load(1, XDATA, add(CFA_XSP16, literal(-11)))
        CFI (cfiCond244) V8 load(1, XDATA, add(CFA_XSP16, literal(-10)))
        CFI (cfiCond244) V9 load(1, XDATA, add(CFA_XSP16, literal(-9)))
        CFI (cfiCond244) V10 load(1, XDATA, add(CFA_XSP16, literal(-8)))
        CFI (cfiCond244) V11 load(1, XDATA, add(CFA_XSP16, literal(-7)))
        CFI (cfiCond244) R7 load(1, XDATA, add(CFA_XSP16, literal(-6)))
        CFI (cfiCond244) ?RET_LOW load(1, XDATA, add(CFA_XSP16, literal(-5)))
        CFI (cfiCond244) ?RET_HIGH load(1, XDATA, add(CFA_XSP16, literal(-4)))
        CFI (cfiCond244) ?BRET_EXT load(1, XDATA, add(CFA_XSP16, literal(-3)))
        CFI (cfiCond244) DPL0 load(1, XDATA, add(CFA_XSP16, literal(-2)))
        CFI (cfiCond244) DPH0 load(1, XDATA, add(CFA_XSP16, literal(-1)))
        CFI (cfiCond244) CFA_SP SP+0
        CFI (cfiCond244) CFA_XSP16 add(XSP16, 33)
        CFI Block cfiCond245 Using cfiCommon0
        CFI (cfiCond245) NoFunction
        CFI (cfiCond245) Conditional ??CrossCallReturnLabel_72, ??CrossCallReturnLabel_1
        CFI (cfiCond245) R6 load(1, XDATA, add(CFA_XSP16, literal(-20)))
        CFI (cfiCond245) VB load(1, XDATA, add(CFA_XSP16, literal(-19)))
        CFI (cfiCond245) V0 load(1, XDATA, add(CFA_XSP16, literal(-18)))
        CFI (cfiCond245) V1 load(1, XDATA, add(CFA_XSP16, literal(-17)))
        CFI (cfiCond245) V2 load(1, XDATA, add(CFA_XSP16, literal(-16)))
        CFI (cfiCond245) V3 load(1, XDATA, add(CFA_XSP16, literal(-15)))
        CFI (cfiCond245) V4 load(1, XDATA, add(CFA_XSP16, literal(-14)))
        CFI (cfiCond245) V5 load(1, XDATA, add(CFA_XSP16, literal(-13)))
        CFI (cfiCond245) V6 load(1, XDATA, add(CFA_XSP16, literal(-12)))
        CFI (cfiCond245) V7 load(1, XDATA, add(CFA_XSP16, literal(-11)))
        CFI (cfiCond245) V8 load(1, XDATA, add(CFA_XSP16, literal(-10)))
        CFI (cfiCond245) V9 load(1, XDATA, add(CFA_XSP16, literal(-9)))
        CFI (cfiCond245) V10 load(1, XDATA, add(CFA_XSP16, literal(-8)))
        CFI (cfiCond245) V11 load(1, XDATA, add(CFA_XSP16, literal(-7)))
        CFI (cfiCond245) R7 load(1, XDATA, add(CFA_XSP16, literal(-6)))
        CFI (cfiCond245) ?RET_LOW load(1, XDATA, add(CFA_XSP16, literal(-5)))
        CFI (cfiCond245) ?RET_HIGH load(1, XDATA, add(CFA_XSP16, literal(-4)))
        CFI (cfiCond245) ?BRET_EXT load(1, XDATA, add(CFA_XSP16, literal(-3)))
        CFI (cfiCond245) DPL0 load(1, XDATA, add(CFA_XSP16, literal(-2)))
        CFI (cfiCond245) DPH0 load(1, XDATA, add(CFA_XSP16, literal(-1)))
        CFI (cfiCond245) CFA_SP SP+0
        CFI (cfiCond245) CFA_XSP16 add(XSP16, 33)
        CFI Block cfiPicker246 Using cfiCommon1
        CFI (cfiPicker246) NoFunction
        CFI (cfiPicker246) Picker
        MOV     A,#ACTIVE & 0xff
        ADD     A,R0
        MOV     DPL,A
        MOV     A,#(ACTIVE >> 8) & 0xff
        ADDC    A,R1
        MOV     DPH,A
        RET
        CFI EndBlock cfiCond242
        CFI EndBlock cfiCond243
        CFI EndBlock cfiCond244
        CFI EndBlock cfiCond245
        CFI EndBlock cfiPicker246

        RSEG BANKED_CODE:CODE:NOROOT(0)
?Subroutine10:
        CFI Block cfiCond247 Using cfiCommon0
        CFI NoFunction
        CFI Conditional ??CrossCallReturnLabel_19
        CFI R6 load(1, XDATA, add(CFA_XSP16, literal(-20)))
        CFI VB load(1, XDATA, add(CFA_XSP16, literal(-19)))
        CFI V0 load(1, XDATA, add(CFA_XSP16, literal(-18)))
        CFI V1 load(1, XDATA, add(CFA_XSP16, literal(-17)))
        CFI V2 load(1, XDATA, add(CFA_XSP16, literal(-16)))
        CFI V3 load(1, XDATA, add(CFA_XSP16, literal(-15)))
        CFI V4 load(1, XDATA, add(CFA_XSP16, literal(-14)))
        CFI V5 load(1, XDATA, add(CFA_XSP16, literal(-13)))
        CFI V6 load(1, XDATA, add(CFA_XSP16, literal(-12)))
        CFI V7 load(1, XDATA, add(CFA_XSP16, literal(-11)))
        CFI V8 load(1, XDATA, add(CFA_XSP16, literal(-10)))
        CFI V9 load(1, XDATA, add(CFA_XSP16, literal(-9)))
        CFI V10 load(1, XDATA, add(CFA_XSP16, literal(-8)))
        CFI V11 load(1, XDATA, add(CFA_XSP16, literal(-7)))
        CFI R7 load(1, XDATA, add(CFA_XSP16, literal(-6)))
        CFI ?RET_LOW load(1, XDATA, add(CFA_XSP16, literal(-5)))
        CFI ?RET_HIGH load(1, XDATA, add(CFA_XSP16, literal(-4)))
        CFI ?BRET_EXT load(1, XDATA, add(CFA_XSP16, literal(-3)))
        CFI DPL0 load(1, XDATA, add(CFA_XSP16, literal(-2)))
        CFI DPH0 load(1, XDATA, add(CFA_XSP16, literal(-1)))
        CFI CFA_SP SP+0
        CFI CFA_XSP16 add(XSP16, 33)
        CFI Block cfiCond248 Using cfiCommon0
        CFI (cfiCond248) NoFunction
        CFI (cfiCond248) Conditional ??CrossCallReturnLabel_20
        CFI (cfiCond248) R6 load(1, XDATA, add(CFA_XSP16, literal(-20)))
        CFI (cfiCond248) VB load(1, XDATA, add(CFA_XSP16, literal(-19)))
        CFI (cfiCond248) V0 load(1, XDATA, add(CFA_XSP16, literal(-18)))
        CFI (cfiCond248) V1 load(1, XDATA, add(CFA_XSP16, literal(-17)))
        CFI (cfiCond248) V2 load(1, XDATA, add(CFA_XSP16, literal(-16)))
        CFI (cfiCond248) V3 load(1, XDATA, add(CFA_XSP16, literal(-15)))
        CFI (cfiCond248) V4 load(1, XDATA, add(CFA_XSP16, literal(-14)))
        CFI (cfiCond248) V5 load(1, XDATA, add(CFA_XSP16, literal(-13)))
        CFI (cfiCond248) V6 load(1, XDATA, add(CFA_XSP16, literal(-12)))
        CFI (cfiCond248) V7 load(1, XDATA, add(CFA_XSP16, literal(-11)))
        CFI (cfiCond248) V8 load(1, XDATA, add(CFA_XSP16, literal(-10)))
        CFI (cfiCond248) V9 load(1, XDATA, add(CFA_XSP16, literal(-9)))
        CFI (cfiCond248) V10 load(1, XDATA, add(CFA_XSP16, literal(-8)))
        CFI (cfiCond248) V11 load(1, XDATA, add(CFA_XSP16, literal(-7)))
        CFI (cfiCond248) R7 load(1, XDATA, add(CFA_XSP16, literal(-6)))
        CFI (cfiCond248) ?RET_LOW load(1, XDATA, add(CFA_XSP16, literal(-5)))
        CFI (cfiCond248) ?RET_HIGH load(1, XDATA, add(CFA_XSP16, literal(-4)))
        CFI (cfiCond248) ?BRET_EXT load(1, XDATA, add(CFA_XSP16, literal(-3)))
        CFI (cfiCond248) DPL0 load(1, XDATA, add(CFA_XSP16, literal(-2)))
        CFI (cfiCond248) DPH0 load(1, XDATA, add(CFA_XSP16, literal(-1)))
        CFI (cfiCond248) CFA_SP SP+0
        CFI (cfiCond248) CFA_XSP16 add(XSP16, 33)
        CFI Block cfiPicker249 Using cfiCommon1
        CFI (cfiPicker249) NoFunction
        CFI (cfiPicker249) Picker
        LCALL   ?Subroutine57 & 0xFFFF
??CrossCallReturnLabel_88:
        INC     DPTR
        MOVX    A,@DPTR
        MOV     DPH,A
        MOV     DPL,R0
        MOVX    A,@DPTR
        RET
        CFI EndBlock cfiCond247
        CFI EndBlock cfiCond248
        CFI EndBlock cfiPicker249

        RSEG BANKED_CODE:CODE:NOROOT(0)
?Subroutine57:
        CFI Block cfiCond250 Using cfiCommon0
        CFI NoFunction
        CFI Conditional ??CrossCallReturnLabel_87
        CFI R6 load(1, XDATA, add(CFA_XSP16, literal(-20)))
        CFI VB load(1, XDATA, add(CFA_XSP16, literal(-19)))
        CFI V0 load(1, XDATA, add(CFA_XSP16, literal(-18)))
        CFI V1 load(1, XDATA, add(CFA_XSP16, literal(-17)))
        CFI V2 load(1, XDATA, add(CFA_XSP16, literal(-16)))
        CFI V3 load(1, XDATA, add(CFA_XSP16, literal(-15)))
        CFI V4 load(1, XDATA, add(CFA_XSP16, literal(-14)))
        CFI V5 load(1, XDATA, add(CFA_XSP16, literal(-13)))
        CFI V6 load(1, XDATA, add(CFA_XSP16, literal(-12)))
        CFI V7 load(1, XDATA, add(CFA_XSP16, literal(-11)))
        CFI V8 load(1, XDATA, add(CFA_XSP16, literal(-10)))
        CFI V9 load(1, XDATA, add(CFA_XSP16, literal(-9)))
        CFI V10 load(1, XDATA, add(CFA_XSP16, literal(-8)))
        CFI V11 load(1, XDATA, add(CFA_XSP16, literal(-7)))
        CFI R7 load(1, XDATA, add(CFA_XSP16, literal(-6)))
        CFI ?RET_LOW load(1, XDATA, add(CFA_XSP16, literal(-5)))
        CFI ?RET_HIGH load(1, XDATA, add(CFA_XSP16, literal(-4)))
        CFI ?BRET_EXT load(1, XDATA, add(CFA_XSP16, literal(-3)))
        CFI DPL0 load(1, XDATA, add(CFA_XSP16, literal(-2)))
        CFI DPH0 load(1, XDATA, add(CFA_XSP16, literal(-1)))
        CFI CFA_SP SP+0
        CFI CFA_XSP16 add(XSP16, 33)
        CFI Block cfiCond251 Using cfiCommon0
        CFI (cfiCond251) NoFunction
        CFI (cfiCond251) Conditional ??CrossCallReturnLabel_88, ??CrossCallReturnLabel_19
        CFI (cfiCond251) R6 load(1, XDATA, add(CFA_XSP16, literal(-20)))
        CFI (cfiCond251) VB load(1, XDATA, add(CFA_XSP16, literal(-19)))
        CFI (cfiCond251) V0 load(1, XDATA, add(CFA_XSP16, literal(-18)))
        CFI (cfiCond251) V1 load(1, XDATA, add(CFA_XSP16, literal(-17)))
        CFI (cfiCond251) V2 load(1, XDATA, add(CFA_XSP16, literal(-16)))
        CFI (cfiCond251) V3 load(1, XDATA, add(CFA_XSP16, literal(-15)))
        CFI (cfiCond251) V4 load(1, XDATA, add(CFA_XSP16, literal(-14)))
        CFI (cfiCond251) V5 load(1, XDATA, add(CFA_XSP16, literal(-13)))
        CFI (cfiCond251) V6 load(1, XDATA, add(CFA_XSP16, literal(-12)))
        CFI (cfiCond251) V7 load(1, XDATA, add(CFA_XSP16, literal(-11)))
        CFI (cfiCond251) V8 load(1, XDATA, add(CFA_XSP16, literal(-10)))
        CFI (cfiCond251) V9 load(1, XDATA, add(CFA_XSP16, literal(-9)))
        CFI (cfiCond251) V10 load(1, XDATA, add(CFA_XSP16, literal(-8)))
        CFI (cfiCond251) V11 load(1, XDATA, add(CFA_XSP16, literal(-7)))
        CFI (cfiCond251) R7 load(1, XDATA, add(CFA_XSP16, literal(-6)))
        CFI (cfiCond251) ?RET_LOW load(1, XDATA, add(CFA_XSP16, literal(-5)))
        CFI (cfiCond251) ?RET_HIGH load(1, XDATA, add(CFA_XSP16, literal(-4)))
        CFI (cfiCond251) ?BRET_EXT load(1, XDATA, add(CFA_XSP16, literal(-3)))
        CFI (cfiCond251) DPL0 load(1, XDATA, add(CFA_XSP16, literal(-2)))
        CFI (cfiCond251) DPH0 load(1, XDATA, add(CFA_XSP16, literal(-1)))
        CFI (cfiCond251) CFA_SP SP+0
        CFI (cfiCond251) CFA_XSP16 add(XSP16, 33)
        CFI Block cfiCond252 Using cfiCommon0
        CFI (cfiCond252) NoFunction
        CFI (cfiCond252) Conditional ??CrossCallReturnLabel_88, ??CrossCallReturnLabel_20
        CFI (cfiCond252) R6 load(1, XDATA, add(CFA_XSP16, literal(-20)))
        CFI (cfiCond252) VB load(1, XDATA, add(CFA_XSP16, literal(-19)))
        CFI (cfiCond252) V0 load(1, XDATA, add(CFA_XSP16, literal(-18)))
        CFI (cfiCond252) V1 load(1, XDATA, add(CFA_XSP16, literal(-17)))
        CFI (cfiCond252) V2 load(1, XDATA, add(CFA_XSP16, literal(-16)))
        CFI (cfiCond252) V3 load(1, XDATA, add(CFA_XSP16, literal(-15)))
        CFI (cfiCond252) V4 load(1, XDATA, add(CFA_XSP16, literal(-14)))
        CFI (cfiCond252) V5 load(1, XDATA, add(CFA_XSP16, literal(-13)))
        CFI (cfiCond252) V6 load(1, XDATA, add(CFA_XSP16, literal(-12)))
        CFI (cfiCond252) V7 load(1, XDATA, add(CFA_XSP16, literal(-11)))
        CFI (cfiCond252) V8 load(1, XDATA, add(CFA_XSP16, literal(-10)))
        CFI (cfiCond252) V9 load(1, XDATA, add(CFA_XSP16, literal(-9)))
        CFI (cfiCond252) V10 load(1, XDATA, add(CFA_XSP16, literal(-8)))
        CFI (cfiCond252) V11 load(1, XDATA, add(CFA_XSP16, literal(-7)))
        CFI (cfiCond252) R7 load(1, XDATA, add(CFA_XSP16, literal(-6)))
        CFI (cfiCond252) ?RET_LOW load(1, XDATA, add(CFA_XSP16, literal(-5)))
        CFI (cfiCond252) ?RET_HIGH load(1, XDATA, add(CFA_XSP16, literal(-4)))
        CFI (cfiCond252) ?BRET_EXT load(1, XDATA, add(CFA_XSP16, literal(-3)))
        CFI (cfiCond252) DPL0 load(1, XDATA, add(CFA_XSP16, literal(-2)))
        CFI (cfiCond252) DPH0 load(1, XDATA, add(CFA_XSP16, literal(-1)))
        CFI (cfiCond252) CFA_SP SP+0
        CFI (cfiCond252) CFA_XSP16 add(XSP16, 33)
        CFI Block cfiPicker253 Using cfiCommon1
        CFI (cfiPicker253) NoFunction
        CFI (cfiPicker253) Picker
        LCALL   ?Subroutine60 & 0xFFFF
??CrossCallReturnLabel_95:
        RET
        CFI EndBlock cfiCond250
        CFI EndBlock cfiCond251
        CFI EndBlock cfiCond252
        CFI EndBlock cfiPicker253

        RSEG BANKED_CODE:CODE:NOROOT(0)
?Subroutine60:
        CFI Block cfiCond254 Using cfiCommon0
        CFI NoFunction
        CFI Conditional ??CrossCallReturnLabel_95, ??CrossCallReturnLabel_87
        CFI R6 load(1, XDATA, add(CFA_XSP16, literal(-20)))
        CFI VB load(1, XDATA, add(CFA_XSP16, literal(-19)))
        CFI V0 load(1, XDATA, add(CFA_XSP16, literal(-18)))
        CFI V1 load(1, XDATA, add(CFA_XSP16, literal(-17)))
        CFI V2 load(1, XDATA, add(CFA_XSP16, literal(-16)))
        CFI V3 load(1, XDATA, add(CFA_XSP16, literal(-15)))
        CFI V4 load(1, XDATA, add(CFA_XSP16, literal(-14)))
        CFI V5 load(1, XDATA, add(CFA_XSP16, literal(-13)))
        CFI V6 load(1, XDATA, add(CFA_XSP16, literal(-12)))
        CFI V7 load(1, XDATA, add(CFA_XSP16, literal(-11)))
        CFI V8 load(1, XDATA, add(CFA_XSP16, literal(-10)))
        CFI V9 load(1, XDATA, add(CFA_XSP16, literal(-9)))
        CFI V10 load(1, XDATA, add(CFA_XSP16, literal(-8)))
        CFI V11 load(1, XDATA, add(CFA_XSP16, literal(-7)))
        CFI R7 load(1, XDATA, add(CFA_XSP16, literal(-6)))
        CFI ?RET_LOW load(1, XDATA, add(CFA_XSP16, literal(-5)))
        CFI ?RET_HIGH load(1, XDATA, add(CFA_XSP16, literal(-4)))
        CFI ?BRET_EXT load(1, XDATA, add(CFA_XSP16, literal(-3)))
        CFI DPL0 load(1, XDATA, add(CFA_XSP16, literal(-2)))
        CFI DPH0 load(1, XDATA, add(CFA_XSP16, literal(-1)))
        CFI CFA_SP SP+0
        CFI CFA_XSP16 add(XSP16, 33)
        CFI Block cfiCond255 Using cfiCommon0
        CFI (cfiCond255) NoFunction
        CFI (cfiCond255) Conditional ??CrossCallReturnLabel_95, ??CrossCallReturnLabel_88, ??CrossCallReturnLabel_19
        CFI (cfiCond255) R6 load(1, XDATA, add(CFA_XSP16, literal(-20)))
        CFI (cfiCond255) VB load(1, XDATA, add(CFA_XSP16, literal(-19)))
        CFI (cfiCond255) V0 load(1, XDATA, add(CFA_XSP16, literal(-18)))
        CFI (cfiCond255) V1 load(1, XDATA, add(CFA_XSP16, literal(-17)))
        CFI (cfiCond255) V2 load(1, XDATA, add(CFA_XSP16, literal(-16)))
        CFI (cfiCond255) V3 load(1, XDATA, add(CFA_XSP16, literal(-15)))
        CFI (cfiCond255) V4 load(1, XDATA, add(CFA_XSP16, literal(-14)))
        CFI (cfiCond255) V5 load(1, XDATA, add(CFA_XSP16, literal(-13)))
        CFI (cfiCond255) V6 load(1, XDATA, add(CFA_XSP16, literal(-12)))
        CFI (cfiCond255) V7 load(1, XDATA, add(CFA_XSP16, literal(-11)))
        CFI (cfiCond255) V8 load(1, XDATA, add(CFA_XSP16, literal(-10)))
        CFI (cfiCond255) V9 load(1, XDATA, add(CFA_XSP16, literal(-9)))
        CFI (cfiCond255) V10 load(1, XDATA, add(CFA_XSP16, literal(-8)))
        CFI (cfiCond255) V11 load(1, XDATA, add(CFA_XSP16, literal(-7)))
        CFI (cfiCond255) R7 load(1, XDATA, add(CFA_XSP16, literal(-6)))
        CFI (cfiCond255) ?RET_LOW load(1, XDATA, add(CFA_XSP16, literal(-5)))
        CFI (cfiCond255) ?RET_HIGH load(1, XDATA, add(CFA_XSP16, literal(-4)))
        CFI (cfiCond255) ?BRET_EXT load(1, XDATA, add(CFA_XSP16, literal(-3)))
        CFI (cfiCond255) DPL0 load(1, XDATA, add(CFA_XSP16, literal(-2)))
        CFI (cfiCond255) DPH0 load(1, XDATA, add(CFA_XSP16, literal(-1)))
        CFI (cfiCond255) CFA_SP SP+0
        CFI (cfiCond255) CFA_XSP16 add(XSP16, 33)
        CFI Block cfiCond256 Using cfiCommon0
        CFI (cfiCond256) NoFunction
        CFI (cfiCond256) Conditional ??CrossCallReturnLabel_95, ??CrossCallReturnLabel_88, ??CrossCallReturnLabel_20
        CFI (cfiCond256) R6 load(1, XDATA, add(CFA_XSP16, literal(-20)))
        CFI (cfiCond256) VB load(1, XDATA, add(CFA_XSP16, literal(-19)))
        CFI (cfiCond256) V0 load(1, XDATA, add(CFA_XSP16, literal(-18)))
        CFI (cfiCond256) V1 load(1, XDATA, add(CFA_XSP16, literal(-17)))
        CFI (cfiCond256) V2 load(1, XDATA, add(CFA_XSP16, literal(-16)))
        CFI (cfiCond256) V3 load(1, XDATA, add(CFA_XSP16, literal(-15)))
        CFI (cfiCond256) V4 load(1, XDATA, add(CFA_XSP16, literal(-14)))
        CFI (cfiCond256) V5 load(1, XDATA, add(CFA_XSP16, literal(-13)))
        CFI (cfiCond256) V6 load(1, XDATA, add(CFA_XSP16, literal(-12)))
        CFI (cfiCond256) V7 load(1, XDATA, add(CFA_XSP16, literal(-11)))
        CFI (cfiCond256) V8 load(1, XDATA, add(CFA_XSP16, literal(-10)))
        CFI (cfiCond256) V9 load(1, XDATA, add(CFA_XSP16, literal(-9)))
        CFI (cfiCond256) V10 load(1, XDATA, add(CFA_XSP16, literal(-8)))
        CFI (cfiCond256) V11 load(1, XDATA, add(CFA_XSP16, literal(-7)))
        CFI (cfiCond256) R7 load(1, XDATA, add(CFA_XSP16, literal(-6)))
        CFI (cfiCond256) ?RET_LOW load(1, XDATA, add(CFA_XSP16, literal(-5)))
        CFI (cfiCond256) ?RET_HIGH load(1, XDATA, add(CFA_XSP16, literal(-4)))
        CFI (cfiCond256) ?BRET_EXT load(1, XDATA, add(CFA_XSP16, literal(-3)))
        CFI (cfiCond256) DPL0 load(1, XDATA, add(CFA_XSP16, literal(-2)))
        CFI (cfiCond256) DPH0 load(1, XDATA, add(CFA_XSP16, literal(-1)))
        CFI (cfiCond256) CFA_SP SP+0
        CFI (cfiCond256) CFA_XSP16 add(XSP16, 33)
        CFI Block cfiCond257 Using cfiCommon0
        CFI (cfiCond257) NoFunction
        CFI (cfiCond257) Conditional ??CrossCallReturnLabel_94, ??CrossCallReturnLabel_82, ??CrossCallReturnLabel_15
        CFI (cfiCond257) R6 load(1, XDATA, add(CFA_XSP16, literal(-20)))
        CFI (cfiCond257) VB load(1, XDATA, add(CFA_XSP16, literal(-19)))
        CFI (cfiCond257) V0 load(1, XDATA, add(CFA_XSP16, literal(-18)))
        CFI (cfiCond257) V1 load(1, XDATA, add(CFA_XSP16, literal(-17)))
        CFI (cfiCond257) V2 load(1, XDATA, add(CFA_XSP16, literal(-16)))
        CFI (cfiCond257) V3 load(1, XDATA, add(CFA_XSP16, literal(-15)))
        CFI (cfiCond257) V4 load(1, XDATA, add(CFA_XSP16, literal(-14)))
        CFI (cfiCond257) V5 load(1, XDATA, add(CFA_XSP16, literal(-13)))
        CFI (cfiCond257) V6 load(1, XDATA, add(CFA_XSP16, literal(-12)))
        CFI (cfiCond257) V7 load(1, XDATA, add(CFA_XSP16, literal(-11)))
        CFI (cfiCond257) V8 load(1, XDATA, add(CFA_XSP16, literal(-10)))
        CFI (cfiCond257) V9 load(1, XDATA, add(CFA_XSP16, literal(-9)))
        CFI (cfiCond257) V10 load(1, XDATA, add(CFA_XSP16, literal(-8)))
        CFI (cfiCond257) V11 load(1, XDATA, add(CFA_XSP16, literal(-7)))
        CFI (cfiCond257) R7 load(1, XDATA, add(CFA_XSP16, literal(-6)))
        CFI (cfiCond257) ?RET_LOW load(1, XDATA, add(CFA_XSP16, literal(-5)))
        CFI (cfiCond257) ?RET_HIGH load(1, XDATA, add(CFA_XSP16, literal(-4)))
        CFI (cfiCond257) ?BRET_EXT load(1, XDATA, add(CFA_XSP16, literal(-3)))
        CFI (cfiCond257) DPL0 load(1, XDATA, add(CFA_XSP16, literal(-2)))
        CFI (cfiCond257) DPH0 load(1, XDATA, add(CFA_XSP16, literal(-1)))
        CFI (cfiCond257) CFA_SP SP+0
        CFI (cfiCond257) CFA_XSP16 add(XSP16, 33)
        CFI Block cfiCond258 Using cfiCommon0
        CFI (cfiCond258) NoFunction
        CFI (cfiCond258) Conditional ??CrossCallReturnLabel_94, ??CrossCallReturnLabel_82, ??CrossCallReturnLabel_16
        CFI (cfiCond258) R6 load(1, XDATA, add(CFA_XSP16, literal(-20)))
        CFI (cfiCond258) VB load(1, XDATA, add(CFA_XSP16, literal(-19)))
        CFI (cfiCond258) V0 load(1, XDATA, add(CFA_XSP16, literal(-18)))
        CFI (cfiCond258) V1 load(1, XDATA, add(CFA_XSP16, literal(-17)))
        CFI (cfiCond258) V2 load(1, XDATA, add(CFA_XSP16, literal(-16)))
        CFI (cfiCond258) V3 load(1, XDATA, add(CFA_XSP16, literal(-15)))
        CFI (cfiCond258) V4 load(1, XDATA, add(CFA_XSP16, literal(-14)))
        CFI (cfiCond258) V5 load(1, XDATA, add(CFA_XSP16, literal(-13)))
        CFI (cfiCond258) V6 load(1, XDATA, add(CFA_XSP16, literal(-12)))
        CFI (cfiCond258) V7 load(1, XDATA, add(CFA_XSP16, literal(-11)))
        CFI (cfiCond258) V8 load(1, XDATA, add(CFA_XSP16, literal(-10)))
        CFI (cfiCond258) V9 load(1, XDATA, add(CFA_XSP16, literal(-9)))
        CFI (cfiCond258) V10 load(1, XDATA, add(CFA_XSP16, literal(-8)))
        CFI (cfiCond258) V11 load(1, XDATA, add(CFA_XSP16, literal(-7)))
        CFI (cfiCond258) R7 load(1, XDATA, add(CFA_XSP16, literal(-6)))
        CFI (cfiCond258) ?RET_LOW load(1, XDATA, add(CFA_XSP16, literal(-5)))
        CFI (cfiCond258) ?RET_HIGH load(1, XDATA, add(CFA_XSP16, literal(-4)))
        CFI (cfiCond258) ?BRET_EXT load(1, XDATA, add(CFA_XSP16, literal(-3)))
        CFI (cfiCond258) DPL0 load(1, XDATA, add(CFA_XSP16, literal(-2)))
        CFI (cfiCond258) DPH0 load(1, XDATA, add(CFA_XSP16, literal(-1)))
        CFI (cfiCond258) CFA_SP SP+0
        CFI (cfiCond258) CFA_XSP16 add(XSP16, 33)
        CFI Block cfiCond259 Using cfiCommon0
        CFI (cfiCond259) NoFunction
        CFI (cfiCond259) Conditional ??CrossCallReturnLabel_94, ??CrossCallReturnLabel_82, ??CrossCallReturnLabel_17
        CFI (cfiCond259) R6 load(1, XDATA, add(CFA_XSP16, literal(-20)))
        CFI (cfiCond259) VB load(1, XDATA, add(CFA_XSP16, literal(-19)))
        CFI (cfiCond259) V0 load(1, XDATA, add(CFA_XSP16, literal(-18)))
        CFI (cfiCond259) V1 load(1, XDATA, add(CFA_XSP16, literal(-17)))
        CFI (cfiCond259) V2 load(1, XDATA, add(CFA_XSP16, literal(-16)))
        CFI (cfiCond259) V3 load(1, XDATA, add(CFA_XSP16, literal(-15)))
        CFI (cfiCond259) V4 load(1, XDATA, add(CFA_XSP16, literal(-14)))
        CFI (cfiCond259) V5 load(1, XDATA, add(CFA_XSP16, literal(-13)))
        CFI (cfiCond259) V6 load(1, XDATA, add(CFA_XSP16, literal(-12)))
        CFI (cfiCond259) V7 load(1, XDATA, add(CFA_XSP16, literal(-11)))
        CFI (cfiCond259) V8 load(1, XDATA, add(CFA_XSP16, literal(-10)))
        CFI (cfiCond259) V9 load(1, XDATA, add(CFA_XSP16, literal(-9)))
        CFI (cfiCond259) V10 load(1, XDATA, add(CFA_XSP16, literal(-8)))
        CFI (cfiCond259) V11 load(1, XDATA, add(CFA_XSP16, literal(-7)))
        CFI (cfiCond259) R7 load(1, XDATA, add(CFA_XSP16, literal(-6)))
        CFI (cfiCond259) ?RET_LOW load(1, XDATA, add(CFA_XSP16, literal(-5)))
        CFI (cfiCond259) ?RET_HIGH load(1, XDATA, add(CFA_XSP16, literal(-4)))
        CFI (cfiCond259) ?BRET_EXT load(1, XDATA, add(CFA_XSP16, literal(-3)))
        CFI (cfiCond259) DPL0 load(1, XDATA, add(CFA_XSP16, literal(-2)))
        CFI (cfiCond259) DPH0 load(1, XDATA, add(CFA_XSP16, literal(-1)))
        CFI (cfiCond259) CFA_SP SP+0
        CFI (cfiCond259) CFA_XSP16 add(XSP16, 33)
        CFI Block cfiCond260 Using cfiCommon0
        CFI (cfiCond260) NoFunction
        CFI (cfiCond260) Conditional ??CrossCallReturnLabel_94, ??CrossCallReturnLabel_82, ??CrossCallReturnLabel_18
        CFI (cfiCond260) R6 load(1, XDATA, add(CFA_XSP16, literal(-20)))
        CFI (cfiCond260) VB load(1, XDATA, add(CFA_XSP16, literal(-19)))
        CFI (cfiCond260) V0 load(1, XDATA, add(CFA_XSP16, literal(-18)))
        CFI (cfiCond260) V1 load(1, XDATA, add(CFA_XSP16, literal(-17)))
        CFI (cfiCond260) V2 load(1, XDATA, add(CFA_XSP16, literal(-16)))
        CFI (cfiCond260) V3 load(1, XDATA, add(CFA_XSP16, literal(-15)))
        CFI (cfiCond260) V4 load(1, XDATA, add(CFA_XSP16, literal(-14)))
        CFI (cfiCond260) V5 load(1, XDATA, add(CFA_XSP16, literal(-13)))
        CFI (cfiCond260) V6 load(1, XDATA, add(CFA_XSP16, literal(-12)))
        CFI (cfiCond260) V7 load(1, XDATA, add(CFA_XSP16, literal(-11)))
        CFI (cfiCond260) V8 load(1, XDATA, add(CFA_XSP16, literal(-10)))
        CFI (cfiCond260) V9 load(1, XDATA, add(CFA_XSP16, literal(-9)))
        CFI (cfiCond260) V10 load(1, XDATA, add(CFA_XSP16, literal(-8)))
        CFI (cfiCond260) V11 load(1, XDATA, add(CFA_XSP16, literal(-7)))
        CFI (cfiCond260) R7 load(1, XDATA, add(CFA_XSP16, literal(-6)))
        CFI (cfiCond260) ?RET_LOW load(1, XDATA, add(CFA_XSP16, literal(-5)))
        CFI (cfiCond260) ?RET_HIGH load(1, XDATA, add(CFA_XSP16, literal(-4)))
        CFI (cfiCond260) ?BRET_EXT load(1, XDATA, add(CFA_XSP16, literal(-3)))
        CFI (cfiCond260) DPL0 load(1, XDATA, add(CFA_XSP16, literal(-2)))
        CFI (cfiCond260) DPH0 load(1, XDATA, add(CFA_XSP16, literal(-1)))
        CFI (cfiCond260) CFA_SP SP+0
        CFI (cfiCond260) CFA_XSP16 add(XSP16, 33)
        CFI Block cfiCond261 Using cfiCommon0
        CFI (cfiCond261) NoFunction
        CFI (cfiCond261) Conditional ??CrossCallReturnLabel_94, ??CrossCallReturnLabel_81, ??CrossCallReturnLabel_13
        CFI (cfiCond261) R6 load(1, XDATA, add(CFA_XSP16, literal(-20)))
        CFI (cfiCond261) VB load(1, XDATA, add(CFA_XSP16, literal(-19)))
        CFI (cfiCond261) V0 load(1, XDATA, add(CFA_XSP16, literal(-18)))
        CFI (cfiCond261) V1 load(1, XDATA, add(CFA_XSP16, literal(-17)))
        CFI (cfiCond261) V2 load(1, XDATA, add(CFA_XSP16, literal(-16)))
        CFI (cfiCond261) V3 load(1, XDATA, add(CFA_XSP16, literal(-15)))
        CFI (cfiCond261) V4 load(1, XDATA, add(CFA_XSP16, literal(-14)))
        CFI (cfiCond261) V5 load(1, XDATA, add(CFA_XSP16, literal(-13)))
        CFI (cfiCond261) V6 load(1, XDATA, add(CFA_XSP16, literal(-12)))
        CFI (cfiCond261) V7 load(1, XDATA, add(CFA_XSP16, literal(-11)))
        CFI (cfiCond261) V8 load(1, XDATA, add(CFA_XSP16, literal(-10)))
        CFI (cfiCond261) V9 load(1, XDATA, add(CFA_XSP16, literal(-9)))
        CFI (cfiCond261) V10 load(1, XDATA, add(CFA_XSP16, literal(-8)))
        CFI (cfiCond261) V11 load(1, XDATA, add(CFA_XSP16, literal(-7)))
        CFI (cfiCond261) R7 load(1, XDATA, add(CFA_XSP16, literal(-6)))
        CFI (cfiCond261) ?RET_LOW load(1, XDATA, add(CFA_XSP16, literal(-5)))
        CFI (cfiCond261) ?RET_HIGH load(1, XDATA, add(CFA_XSP16, literal(-4)))
        CFI (cfiCond261) ?BRET_EXT load(1, XDATA, add(CFA_XSP16, literal(-3)))
        CFI (cfiCond261) DPL0 load(1, XDATA, add(CFA_XSP16, literal(-2)))
        CFI (cfiCond261) DPH0 load(1, XDATA, add(CFA_XSP16, literal(-1)))
        CFI (cfiCond261) CFA_SP SP+0
        CFI (cfiCond261) CFA_XSP16 add(XSP16, 33)
        CFI Block cfiCond262 Using cfiCommon0
        CFI (cfiCond262) NoFunction
        CFI (cfiCond262) Conditional ??CrossCallReturnLabel_94, ??CrossCallReturnLabel_81, ??CrossCallReturnLabel_14
        CFI (cfiCond262) R6 load(1, XDATA, add(CFA_XSP16, literal(-20)))
        CFI (cfiCond262) VB load(1, XDATA, add(CFA_XSP16, literal(-19)))
        CFI (cfiCond262) V0 load(1, XDATA, add(CFA_XSP16, literal(-18)))
        CFI (cfiCond262) V1 load(1, XDATA, add(CFA_XSP16, literal(-17)))
        CFI (cfiCond262) V2 load(1, XDATA, add(CFA_XSP16, literal(-16)))
        CFI (cfiCond262) V3 load(1, XDATA, add(CFA_XSP16, literal(-15)))
        CFI (cfiCond262) V4 load(1, XDATA, add(CFA_XSP16, literal(-14)))
        CFI (cfiCond262) V5 load(1, XDATA, add(CFA_XSP16, literal(-13)))
        CFI (cfiCond262) V6 load(1, XDATA, add(CFA_XSP16, literal(-12)))
        CFI (cfiCond262) V7 load(1, XDATA, add(CFA_XSP16, literal(-11)))
        CFI (cfiCond262) V8 load(1, XDATA, add(CFA_XSP16, literal(-10)))
        CFI (cfiCond262) V9 load(1, XDATA, add(CFA_XSP16, literal(-9)))
        CFI (cfiCond262) V10 load(1, XDATA, add(CFA_XSP16, literal(-8)))
        CFI (cfiCond262) V11 load(1, XDATA, add(CFA_XSP16, literal(-7)))
        CFI (cfiCond262) R7 load(1, XDATA, add(CFA_XSP16, literal(-6)))
        CFI (cfiCond262) ?RET_LOW load(1, XDATA, add(CFA_XSP16, literal(-5)))
        CFI (cfiCond262) ?RET_HIGH load(1, XDATA, add(CFA_XSP16, literal(-4)))
        CFI (cfiCond262) ?BRET_EXT load(1, XDATA, add(CFA_XSP16, literal(-3)))
        CFI (cfiCond262) DPL0 load(1, XDATA, add(CFA_XSP16, literal(-2)))
        CFI (cfiCond262) DPH0 load(1, XDATA, add(CFA_XSP16, literal(-1)))
        CFI (cfiCond262) CFA_SP SP+0
        CFI (cfiCond262) CFA_XSP16 add(XSP16, 33)
        CFI Block cfiCond263 Using cfiCommon0
        CFI (cfiCond263) NoFunction
        CFI (cfiCond263) Conditional ??CrossCallReturnLabel_93, ??CrossCallReturnLabel_159, ??CrossCallReturnLabel_8
        CFI (cfiCond263) R6 load(1, XDATA, add(CFA_XSP16, literal(-20)))
        CFI (cfiCond263) VB load(1, XDATA, add(CFA_XSP16, literal(-19)))
        CFI (cfiCond263) V0 load(1, XDATA, add(CFA_XSP16, literal(-18)))
        CFI (cfiCond263) V1 load(1, XDATA, add(CFA_XSP16, literal(-17)))
        CFI (cfiCond263) V2 load(1, XDATA, add(CFA_XSP16, literal(-16)))
        CFI (cfiCond263) V3 load(1, XDATA, add(CFA_XSP16, literal(-15)))
        CFI (cfiCond263) V4 load(1, XDATA, add(CFA_XSP16, literal(-14)))
        CFI (cfiCond263) V5 load(1, XDATA, add(CFA_XSP16, literal(-13)))
        CFI (cfiCond263) V6 load(1, XDATA, add(CFA_XSP16, literal(-12)))
        CFI (cfiCond263) V7 load(1, XDATA, add(CFA_XSP16, literal(-11)))
        CFI (cfiCond263) V8 load(1, XDATA, add(CFA_XSP16, literal(-10)))
        CFI (cfiCond263) V9 load(1, XDATA, add(CFA_XSP16, literal(-9)))
        CFI (cfiCond263) V10 load(1, XDATA, add(CFA_XSP16, literal(-8)))
        CFI (cfiCond263) V11 load(1, XDATA, add(CFA_XSP16, literal(-7)))
        CFI (cfiCond263) R7 load(1, XDATA, add(CFA_XSP16, literal(-6)))
        CFI (cfiCond263) ?RET_LOW load(1, XDATA, add(CFA_XSP16, literal(-5)))
        CFI (cfiCond263) ?RET_HIGH load(1, XDATA, add(CFA_XSP16, literal(-4)))
        CFI (cfiCond263) ?BRET_EXT load(1, XDATA, add(CFA_XSP16, literal(-3)))
        CFI (cfiCond263) DPL0 load(1, XDATA, add(CFA_XSP16, literal(-2)))
        CFI (cfiCond263) DPH0 load(1, XDATA, add(CFA_XSP16, literal(-1)))
        CFI (cfiCond263) CFA_SP SP+0
        CFI (cfiCond263) CFA_XSP16 add(XSP16, 33)
        CFI Block cfiCond264 Using cfiCommon0
        CFI (cfiCond264) NoFunction
        CFI (cfiCond264) Conditional ??CrossCallReturnLabel_93, ??CrossCallReturnLabel_159, ??CrossCallReturnLabel_9
        CFI (cfiCond264) R6 load(1, XDATA, add(CFA_XSP16, literal(-20)))
        CFI (cfiCond264) VB load(1, XDATA, add(CFA_XSP16, literal(-19)))
        CFI (cfiCond264) V0 load(1, XDATA, add(CFA_XSP16, literal(-18)))
        CFI (cfiCond264) V1 load(1, XDATA, add(CFA_XSP16, literal(-17)))
        CFI (cfiCond264) V2 load(1, XDATA, add(CFA_XSP16, literal(-16)))
        CFI (cfiCond264) V3 load(1, XDATA, add(CFA_XSP16, literal(-15)))
        CFI (cfiCond264) V4 load(1, XDATA, add(CFA_XSP16, literal(-14)))
        CFI (cfiCond264) V5 load(1, XDATA, add(CFA_XSP16, literal(-13)))
        CFI (cfiCond264) V6 load(1, XDATA, add(CFA_XSP16, literal(-12)))
        CFI (cfiCond264) V7 load(1, XDATA, add(CFA_XSP16, literal(-11)))
        CFI (cfiCond264) V8 load(1, XDATA, add(CFA_XSP16, literal(-10)))
        CFI (cfiCond264) V9 load(1, XDATA, add(CFA_XSP16, literal(-9)))
        CFI (cfiCond264) V10 load(1, XDATA, add(CFA_XSP16, literal(-8)))
        CFI (cfiCond264) V11 load(1, XDATA, add(CFA_XSP16, literal(-7)))
        CFI (cfiCond264) R7 load(1, XDATA, add(CFA_XSP16, literal(-6)))
        CFI (cfiCond264) ?RET_LOW load(1, XDATA, add(CFA_XSP16, literal(-5)))
        CFI (cfiCond264) ?RET_HIGH load(1, XDATA, add(CFA_XSP16, literal(-4)))
        CFI (cfiCond264) ?BRET_EXT load(1, XDATA, add(CFA_XSP16, literal(-3)))
        CFI (cfiCond264) DPL0 load(1, XDATA, add(CFA_XSP16, literal(-2)))
        CFI (cfiCond264) DPH0 load(1, XDATA, add(CFA_XSP16, literal(-1)))
        CFI (cfiCond264) CFA_SP SP+0
        CFI (cfiCond264) CFA_XSP16 add(XSP16, 33)
        CFI Block cfiCond265 Using cfiCommon0
        CFI (cfiCond265) NoFunction
        CFI (cfiCond265) Conditional ??CrossCallReturnLabel_93, ??CrossCallReturnLabel_159, ??CrossCallReturnLabel_10
        CFI (cfiCond265) R6 load(1, XDATA, add(CFA_XSP16, literal(-20)))
        CFI (cfiCond265) VB load(1, XDATA, add(CFA_XSP16, literal(-19)))
        CFI (cfiCond265) V0 load(1, XDATA, add(CFA_XSP16, literal(-18)))
        CFI (cfiCond265) V1 load(1, XDATA, add(CFA_XSP16, literal(-17)))
        CFI (cfiCond265) V2 load(1, XDATA, add(CFA_XSP16, literal(-16)))
        CFI (cfiCond265) V3 load(1, XDATA, add(CFA_XSP16, literal(-15)))
        CFI (cfiCond265) V4 load(1, XDATA, add(CFA_XSP16, literal(-14)))
        CFI (cfiCond265) V5 load(1, XDATA, add(CFA_XSP16, literal(-13)))
        CFI (cfiCond265) V6 load(1, XDATA, add(CFA_XSP16, literal(-12)))
        CFI (cfiCond265) V7 load(1, XDATA, add(CFA_XSP16, literal(-11)))
        CFI (cfiCond265) V8 load(1, XDATA, add(CFA_XSP16, literal(-10)))
        CFI (cfiCond265) V9 load(1, XDATA, add(CFA_XSP16, literal(-9)))
        CFI (cfiCond265) V10 load(1, XDATA, add(CFA_XSP16, literal(-8)))
        CFI (cfiCond265) V11 load(1, XDATA, add(CFA_XSP16, literal(-7)))
        CFI (cfiCond265) R7 load(1, XDATA, add(CFA_XSP16, literal(-6)))
        CFI (cfiCond265) ?RET_LOW load(1, XDATA, add(CFA_XSP16, literal(-5)))
        CFI (cfiCond265) ?RET_HIGH load(1, XDATA, add(CFA_XSP16, literal(-4)))
        CFI (cfiCond265) ?BRET_EXT load(1, XDATA, add(CFA_XSP16, literal(-3)))
        CFI (cfiCond265) DPL0 load(1, XDATA, add(CFA_XSP16, literal(-2)))
        CFI (cfiCond265) DPH0 load(1, XDATA, add(CFA_XSP16, literal(-1)))
        CFI (cfiCond265) CFA_SP SP+0
        CFI (cfiCond265) CFA_XSP16 add(XSP16, 33)
        CFI Block cfiCond266 Using cfiCommon0
        CFI (cfiCond266) NoFunction
        CFI (cfiCond266) Conditional ??CrossCallReturnLabel_93, ??CrossCallReturnLabel_158, ??CrossCallReturnLabel_5
        CFI (cfiCond266) R6 load(1, XDATA, add(CFA_XSP16, literal(-20)))
        CFI (cfiCond266) VB load(1, XDATA, add(CFA_XSP16, literal(-19)))
        CFI (cfiCond266) V0 load(1, XDATA, add(CFA_XSP16, literal(-18)))
        CFI (cfiCond266) V1 load(1, XDATA, add(CFA_XSP16, literal(-17)))
        CFI (cfiCond266) V2 load(1, XDATA, add(CFA_XSP16, literal(-16)))
        CFI (cfiCond266) V3 load(1, XDATA, add(CFA_XSP16, literal(-15)))
        CFI (cfiCond266) V4 load(1, XDATA, add(CFA_XSP16, literal(-14)))
        CFI (cfiCond266) V5 load(1, XDATA, add(CFA_XSP16, literal(-13)))
        CFI (cfiCond266) V6 load(1, XDATA, add(CFA_XSP16, literal(-12)))
        CFI (cfiCond266) V7 load(1, XDATA, add(CFA_XSP16, literal(-11)))
        CFI (cfiCond266) V8 load(1, XDATA, add(CFA_XSP16, literal(-10)))
        CFI (cfiCond266) V9 load(1, XDATA, add(CFA_XSP16, literal(-9)))
        CFI (cfiCond266) V10 load(1, XDATA, add(CFA_XSP16, literal(-8)))
        CFI (cfiCond266) V11 load(1, XDATA, add(CFA_XSP16, literal(-7)))
        CFI (cfiCond266) R7 load(1, XDATA, add(CFA_XSP16, literal(-6)))
        CFI (cfiCond266) ?RET_LOW load(1, XDATA, add(CFA_XSP16, literal(-5)))
        CFI (cfiCond266) ?RET_HIGH load(1, XDATA, add(CFA_XSP16, literal(-4)))
        CFI (cfiCond266) ?BRET_EXT load(1, XDATA, add(CFA_XSP16, literal(-3)))
        CFI (cfiCond266) DPL0 load(1, XDATA, add(CFA_XSP16, literal(-2)))
        CFI (cfiCond266) DPH0 load(1, XDATA, add(CFA_XSP16, literal(-1)))
        CFI (cfiCond266) CFA_SP SP+0
        CFI (cfiCond266) CFA_XSP16 add(XSP16, 33)
        CFI Block cfiCond267 Using cfiCommon0
        CFI (cfiCond267) NoFunction
        CFI (cfiCond267) Conditional ??CrossCallReturnLabel_93, ??CrossCallReturnLabel_158, ??CrossCallReturnLabel_6
        CFI (cfiCond267) R6 load(1, XDATA, add(CFA_XSP16, literal(-20)))
        CFI (cfiCond267) VB load(1, XDATA, add(CFA_XSP16, literal(-19)))
        CFI (cfiCond267) V0 load(1, XDATA, add(CFA_XSP16, literal(-18)))
        CFI (cfiCond267) V1 load(1, XDATA, add(CFA_XSP16, literal(-17)))
        CFI (cfiCond267) V2 load(1, XDATA, add(CFA_XSP16, literal(-16)))
        CFI (cfiCond267) V3 load(1, XDATA, add(CFA_XSP16, literal(-15)))
        CFI (cfiCond267) V4 load(1, XDATA, add(CFA_XSP16, literal(-14)))
        CFI (cfiCond267) V5 load(1, XDATA, add(CFA_XSP16, literal(-13)))
        CFI (cfiCond267) V6 load(1, XDATA, add(CFA_XSP16, literal(-12)))
        CFI (cfiCond267) V7 load(1, XDATA, add(CFA_XSP16, literal(-11)))
        CFI (cfiCond267) V8 load(1, XDATA, add(CFA_XSP16, literal(-10)))
        CFI (cfiCond267) V9 load(1, XDATA, add(CFA_XSP16, literal(-9)))
        CFI (cfiCond267) V10 load(1, XDATA, add(CFA_XSP16, literal(-8)))
        CFI (cfiCond267) V11 load(1, XDATA, add(CFA_XSP16, literal(-7)))
        CFI (cfiCond267) R7 load(1, XDATA, add(CFA_XSP16, literal(-6)))
        CFI (cfiCond267) ?RET_LOW load(1, XDATA, add(CFA_XSP16, literal(-5)))
        CFI (cfiCond267) ?RET_HIGH load(1, XDATA, add(CFA_XSP16, literal(-4)))
        CFI (cfiCond267) ?BRET_EXT load(1, XDATA, add(CFA_XSP16, literal(-3)))
        CFI (cfiCond267) DPL0 load(1, XDATA, add(CFA_XSP16, literal(-2)))
        CFI (cfiCond267) DPH0 load(1, XDATA, add(CFA_XSP16, literal(-1)))
        CFI (cfiCond267) CFA_SP SP+0
        CFI (cfiCond267) CFA_XSP16 add(XSP16, 33)
        CFI Block cfiCond268 Using cfiCommon0
        CFI (cfiCond268) NoFunction
        CFI (cfiCond268) Conditional ??CrossCallReturnLabel_93, ??CrossCallReturnLabel_158, ??CrossCallReturnLabel_7
        CFI (cfiCond268) R6 load(1, XDATA, add(CFA_XSP16, literal(-20)))
        CFI (cfiCond268) VB load(1, XDATA, add(CFA_XSP16, literal(-19)))
        CFI (cfiCond268) V0 load(1, XDATA, add(CFA_XSP16, literal(-18)))
        CFI (cfiCond268) V1 load(1, XDATA, add(CFA_XSP16, literal(-17)))
        CFI (cfiCond268) V2 load(1, XDATA, add(CFA_XSP16, literal(-16)))
        CFI (cfiCond268) V3 load(1, XDATA, add(CFA_XSP16, literal(-15)))
        CFI (cfiCond268) V4 load(1, XDATA, add(CFA_XSP16, literal(-14)))
        CFI (cfiCond268) V5 load(1, XDATA, add(CFA_XSP16, literal(-13)))
        CFI (cfiCond268) V6 load(1, XDATA, add(CFA_XSP16, literal(-12)))
        CFI (cfiCond268) V7 load(1, XDATA, add(CFA_XSP16, literal(-11)))
        CFI (cfiCond268) V8 load(1, XDATA, add(CFA_XSP16, literal(-10)))
        CFI (cfiCond268) V9 load(1, XDATA, add(CFA_XSP16, literal(-9)))
        CFI (cfiCond268) V10 load(1, XDATA, add(CFA_XSP16, literal(-8)))
        CFI (cfiCond268) V11 load(1, XDATA, add(CFA_XSP16, literal(-7)))
        CFI (cfiCond268) R7 load(1, XDATA, add(CFA_XSP16, literal(-6)))
        CFI (cfiCond268) ?RET_LOW load(1, XDATA, add(CFA_XSP16, literal(-5)))
        CFI (cfiCond268) ?RET_HIGH load(1, XDATA, add(CFA_XSP16, literal(-4)))
        CFI (cfiCond268) ?BRET_EXT load(1, XDATA, add(CFA_XSP16, literal(-3)))
        CFI (cfiCond268) DPL0 load(1, XDATA, add(CFA_XSP16, literal(-2)))
        CFI (cfiCond268) DPH0 load(1, XDATA, add(CFA_XSP16, literal(-1)))
        CFI (cfiCond268) CFA_SP SP+0
        CFI (cfiCond268) CFA_XSP16 add(XSP16, 33)
        CFI Block cfiCond269 Using cfiCommon0
        CFI (cfiCond269) NoFunction
        CFI (cfiCond269) Conditional ??CrossCallReturnLabel_93, ??CrossCallReturnLabel_157, ??CrossCallReturnLabel_2
        CFI (cfiCond269) R6 load(1, XDATA, add(CFA_XSP16, literal(-20)))
        CFI (cfiCond269) VB load(1, XDATA, add(CFA_XSP16, literal(-19)))
        CFI (cfiCond269) V0 load(1, XDATA, add(CFA_XSP16, literal(-18)))
        CFI (cfiCond269) V1 load(1, XDATA, add(CFA_XSP16, literal(-17)))
        CFI (cfiCond269) V2 load(1, XDATA, add(CFA_XSP16, literal(-16)))
        CFI (cfiCond269) V3 load(1, XDATA, add(CFA_XSP16, literal(-15)))
        CFI (cfiCond269) V4 load(1, XDATA, add(CFA_XSP16, literal(-14)))
        CFI (cfiCond269) V5 load(1, XDATA, add(CFA_XSP16, literal(-13)))
        CFI (cfiCond269) V6 load(1, XDATA, add(CFA_XSP16, literal(-12)))
        CFI (cfiCond269) V7 load(1, XDATA, add(CFA_XSP16, literal(-11)))
        CFI (cfiCond269) V8 load(1, XDATA, add(CFA_XSP16, literal(-10)))
        CFI (cfiCond269) V9 load(1, XDATA, add(CFA_XSP16, literal(-9)))
        CFI (cfiCond269) V10 load(1, XDATA, add(CFA_XSP16, literal(-8)))
        CFI (cfiCond269) V11 load(1, XDATA, add(CFA_XSP16, literal(-7)))
        CFI (cfiCond269) R7 load(1, XDATA, add(CFA_XSP16, literal(-6)))
        CFI (cfiCond269) ?RET_LOW load(1, XDATA, add(CFA_XSP16, literal(-5)))
        CFI (cfiCond269) ?RET_HIGH load(1, XDATA, add(CFA_XSP16, literal(-4)))
        CFI (cfiCond269) ?BRET_EXT load(1, XDATA, add(CFA_XSP16, literal(-3)))
        CFI (cfiCond269) DPL0 load(1, XDATA, add(CFA_XSP16, literal(-2)))
        CFI (cfiCond269) DPH0 load(1, XDATA, add(CFA_XSP16, literal(-1)))
        CFI (cfiCond269) CFA_SP SP+0
        CFI (cfiCond269) CFA_XSP16 add(XSP16, 33)
        CFI Block cfiCond270 Using cfiCommon0
        CFI (cfiCond270) NoFunction
        CFI (cfiCond270) Conditional ??CrossCallReturnLabel_93, ??CrossCallReturnLabel_157, ??CrossCallReturnLabel_3
        CFI (cfiCond270) R6 load(1, XDATA, add(CFA_XSP16, literal(-20)))
        CFI (cfiCond270) VB load(1, XDATA, add(CFA_XSP16, literal(-19)))
        CFI (cfiCond270) V0 load(1, XDATA, add(CFA_XSP16, literal(-18)))
        CFI (cfiCond270) V1 load(1, XDATA, add(CFA_XSP16, literal(-17)))
        CFI (cfiCond270) V2 load(1, XDATA, add(CFA_XSP16, literal(-16)))
        CFI (cfiCond270) V3 load(1, XDATA, add(CFA_XSP16, literal(-15)))
        CFI (cfiCond270) V4 load(1, XDATA, add(CFA_XSP16, literal(-14)))
        CFI (cfiCond270) V5 load(1, XDATA, add(CFA_XSP16, literal(-13)))
        CFI (cfiCond270) V6 load(1, XDATA, add(CFA_XSP16, literal(-12)))
        CFI (cfiCond270) V7 load(1, XDATA, add(CFA_XSP16, literal(-11)))
        CFI (cfiCond270) V8 load(1, XDATA, add(CFA_XSP16, literal(-10)))
        CFI (cfiCond270) V9 load(1, XDATA, add(CFA_XSP16, literal(-9)))
        CFI (cfiCond270) V10 load(1, XDATA, add(CFA_XSP16, literal(-8)))
        CFI (cfiCond270) V11 load(1, XDATA, add(CFA_XSP16, literal(-7)))
        CFI (cfiCond270) R7 load(1, XDATA, add(CFA_XSP16, literal(-6)))
        CFI (cfiCond270) ?RET_LOW load(1, XDATA, add(CFA_XSP16, literal(-5)))
        CFI (cfiCond270) ?RET_HIGH load(1, XDATA, add(CFA_XSP16, literal(-4)))
        CFI (cfiCond270) ?BRET_EXT load(1, XDATA, add(CFA_XSP16, literal(-3)))
        CFI (cfiCond270) DPL0 load(1, XDATA, add(CFA_XSP16, literal(-2)))
        CFI (cfiCond270) DPH0 load(1, XDATA, add(CFA_XSP16, literal(-1)))
        CFI (cfiCond270) CFA_SP SP+0
        CFI (cfiCond270) CFA_XSP16 add(XSP16, 33)
        CFI Block cfiCond271 Using cfiCommon0
        CFI (cfiCond271) NoFunction
        CFI (cfiCond271) Conditional ??CrossCallReturnLabel_93, ??CrossCallReturnLabel_157, ??CrossCallReturnLabel_4
        CFI (cfiCond271) R6 load(1, XDATA, add(CFA_XSP16, literal(-20)))
        CFI (cfiCond271) VB load(1, XDATA, add(CFA_XSP16, literal(-19)))
        CFI (cfiCond271) V0 load(1, XDATA, add(CFA_XSP16, literal(-18)))
        CFI (cfiCond271) V1 load(1, XDATA, add(CFA_XSP16, literal(-17)))
        CFI (cfiCond271) V2 load(1, XDATA, add(CFA_XSP16, literal(-16)))
        CFI (cfiCond271) V3 load(1, XDATA, add(CFA_XSP16, literal(-15)))
        CFI (cfiCond271) V4 load(1, XDATA, add(CFA_XSP16, literal(-14)))
        CFI (cfiCond271) V5 load(1, XDATA, add(CFA_XSP16, literal(-13)))
        CFI (cfiCond271) V6 load(1, XDATA, add(CFA_XSP16, literal(-12)))
        CFI (cfiCond271) V7 load(1, XDATA, add(CFA_XSP16, literal(-11)))
        CFI (cfiCond271) V8 load(1, XDATA, add(CFA_XSP16, literal(-10)))
        CFI (cfiCond271) V9 load(1, XDATA, add(CFA_XSP16, literal(-9)))
        CFI (cfiCond271) V10 load(1, XDATA, add(CFA_XSP16, literal(-8)))
        CFI (cfiCond271) V11 load(1, XDATA, add(CFA_XSP16, literal(-7)))
        CFI (cfiCond271) R7 load(1, XDATA, add(CFA_XSP16, literal(-6)))
        CFI (cfiCond271) ?RET_LOW load(1, XDATA, add(CFA_XSP16, literal(-5)))
        CFI (cfiCond271) ?RET_HIGH load(1, XDATA, add(CFA_XSP16, literal(-4)))
        CFI (cfiCond271) ?BRET_EXT load(1, XDATA, add(CFA_XSP16, literal(-3)))
        CFI (cfiCond271) DPL0 load(1, XDATA, add(CFA_XSP16, literal(-2)))
        CFI (cfiCond271) DPH0 load(1, XDATA, add(CFA_XSP16, literal(-1)))
        CFI (cfiCond271) CFA_SP SP+0
        CFI (cfiCond271) CFA_XSP16 add(XSP16, 33)
        CFI Block cfiPicker272 Using cfiCommon1
        CFI (cfiPicker272) NoFunction
        CFI (cfiPicker272) Picker
        MOV     A,R6
        ADD     A,#0x22
        MOV     DPL,A
        MOV     A,R7
        ADDC    A,#0x0
        MOV     DPH,A
        RET
        CFI EndBlock cfiCond254
        CFI EndBlock cfiCond255
        CFI EndBlock cfiCond256
        CFI EndBlock cfiCond257
        CFI EndBlock cfiCond258
        CFI EndBlock cfiCond259
        CFI EndBlock cfiCond260
        CFI EndBlock cfiCond261
        CFI EndBlock cfiCond262
        CFI EndBlock cfiCond263
        CFI EndBlock cfiCond264
        CFI EndBlock cfiCond265
        CFI EndBlock cfiCond266
        CFI EndBlock cfiCond267
        CFI EndBlock cfiCond268
        CFI EndBlock cfiCond269
        CFI EndBlock cfiCond270
        CFI EndBlock cfiCond271
        CFI EndBlock cfiPicker272

        RSEG BANKED_CODE:CODE:NOROOT(0)
?Subroutine9:
        CFI Block cfiCond273 Using cfiCommon0
        CFI NoFunction
        CFI Conditional ??CrossCallReturnLabel_15
        CFI R6 load(1, XDATA, add(CFA_XSP16, literal(-20)))
        CFI VB load(1, XDATA, add(CFA_XSP16, literal(-19)))
        CFI V0 load(1, XDATA, add(CFA_XSP16, literal(-18)))
        CFI V1 load(1, XDATA, add(CFA_XSP16, literal(-17)))
        CFI V2 load(1, XDATA, add(CFA_XSP16, literal(-16)))
        CFI V3 load(1, XDATA, add(CFA_XSP16, literal(-15)))
        CFI V4 load(1, XDATA, add(CFA_XSP16, literal(-14)))
        CFI V5 load(1, XDATA, add(CFA_XSP16, literal(-13)))
        CFI V6 load(1, XDATA, add(CFA_XSP16, literal(-12)))
        CFI V7 load(1, XDATA, add(CFA_XSP16, literal(-11)))
        CFI V8 load(1, XDATA, add(CFA_XSP16, literal(-10)))
        CFI V9 load(1, XDATA, add(CFA_XSP16, literal(-9)))
        CFI V10 load(1, XDATA, add(CFA_XSP16, literal(-8)))
        CFI V11 load(1, XDATA, add(CFA_XSP16, literal(-7)))
        CFI R7 load(1, XDATA, add(CFA_XSP16, literal(-6)))
        CFI ?RET_LOW load(1, XDATA, add(CFA_XSP16, literal(-5)))
        CFI ?RET_HIGH load(1, XDATA, add(CFA_XSP16, literal(-4)))
        CFI ?BRET_EXT load(1, XDATA, add(CFA_XSP16, literal(-3)))
        CFI DPL0 load(1, XDATA, add(CFA_XSP16, literal(-2)))
        CFI DPH0 load(1, XDATA, add(CFA_XSP16, literal(-1)))
        CFI CFA_SP SP+0
        CFI CFA_XSP16 add(XSP16, 33)
        CFI Block cfiCond274 Using cfiCommon0
        CFI (cfiCond274) NoFunction
        CFI (cfiCond274) Conditional ??CrossCallReturnLabel_16
        CFI (cfiCond274) R6 load(1, XDATA, add(CFA_XSP16, literal(-20)))
        CFI (cfiCond274) VB load(1, XDATA, add(CFA_XSP16, literal(-19)))
        CFI (cfiCond274) V0 load(1, XDATA, add(CFA_XSP16, literal(-18)))
        CFI (cfiCond274) V1 load(1, XDATA, add(CFA_XSP16, literal(-17)))
        CFI (cfiCond274) V2 load(1, XDATA, add(CFA_XSP16, literal(-16)))
        CFI (cfiCond274) V3 load(1, XDATA, add(CFA_XSP16, literal(-15)))
        CFI (cfiCond274) V4 load(1, XDATA, add(CFA_XSP16, literal(-14)))
        CFI (cfiCond274) V5 load(1, XDATA, add(CFA_XSP16, literal(-13)))
        CFI (cfiCond274) V6 load(1, XDATA, add(CFA_XSP16, literal(-12)))
        CFI (cfiCond274) V7 load(1, XDATA, add(CFA_XSP16, literal(-11)))
        CFI (cfiCond274) V8 load(1, XDATA, add(CFA_XSP16, literal(-10)))
        CFI (cfiCond274) V9 load(1, XDATA, add(CFA_XSP16, literal(-9)))
        CFI (cfiCond274) V10 load(1, XDATA, add(CFA_XSP16, literal(-8)))
        CFI (cfiCond274) V11 load(1, XDATA, add(CFA_XSP16, literal(-7)))
        CFI (cfiCond274) R7 load(1, XDATA, add(CFA_XSP16, literal(-6)))
        CFI (cfiCond274) ?RET_LOW load(1, XDATA, add(CFA_XSP16, literal(-5)))
        CFI (cfiCond274) ?RET_HIGH load(1, XDATA, add(CFA_XSP16, literal(-4)))
        CFI (cfiCond274) ?BRET_EXT load(1, XDATA, add(CFA_XSP16, literal(-3)))
        CFI (cfiCond274) DPL0 load(1, XDATA, add(CFA_XSP16, literal(-2)))
        CFI (cfiCond274) DPH0 load(1, XDATA, add(CFA_XSP16, literal(-1)))
        CFI (cfiCond274) CFA_SP SP+0
        CFI (cfiCond274) CFA_XSP16 add(XSP16, 33)
        CFI Block cfiCond275 Using cfiCommon0
        CFI (cfiCond275) NoFunction
        CFI (cfiCond275) Conditional ??CrossCallReturnLabel_17
        CFI (cfiCond275) R6 load(1, XDATA, add(CFA_XSP16, literal(-20)))
        CFI (cfiCond275) VB load(1, XDATA, add(CFA_XSP16, literal(-19)))
        CFI (cfiCond275) V0 load(1, XDATA, add(CFA_XSP16, literal(-18)))
        CFI (cfiCond275) V1 load(1, XDATA, add(CFA_XSP16, literal(-17)))
        CFI (cfiCond275) V2 load(1, XDATA, add(CFA_XSP16, literal(-16)))
        CFI (cfiCond275) V3 load(1, XDATA, add(CFA_XSP16, literal(-15)))
        CFI (cfiCond275) V4 load(1, XDATA, add(CFA_XSP16, literal(-14)))
        CFI (cfiCond275) V5 load(1, XDATA, add(CFA_XSP16, literal(-13)))
        CFI (cfiCond275) V6 load(1, XDATA, add(CFA_XSP16, literal(-12)))
        CFI (cfiCond275) V7 load(1, XDATA, add(CFA_XSP16, literal(-11)))
        CFI (cfiCond275) V8 load(1, XDATA, add(CFA_XSP16, literal(-10)))
        CFI (cfiCond275) V9 load(1, XDATA, add(CFA_XSP16, literal(-9)))
        CFI (cfiCond275) V10 load(1, XDATA, add(CFA_XSP16, literal(-8)))
        CFI (cfiCond275) V11 load(1, XDATA, add(CFA_XSP16, literal(-7)))
        CFI (cfiCond275) R7 load(1, XDATA, add(CFA_XSP16, literal(-6)))
        CFI (cfiCond275) ?RET_LOW load(1, XDATA, add(CFA_XSP16, literal(-5)))
        CFI (cfiCond275) ?RET_HIGH load(1, XDATA, add(CFA_XSP16, literal(-4)))
        CFI (cfiCond275) ?BRET_EXT load(1, XDATA, add(CFA_XSP16, literal(-3)))
        CFI (cfiCond275) DPL0 load(1, XDATA, add(CFA_XSP16, literal(-2)))
        CFI (cfiCond275) DPH0 load(1, XDATA, add(CFA_XSP16, literal(-1)))
        CFI (cfiCond275) CFA_SP SP+0
        CFI (cfiCond275) CFA_XSP16 add(XSP16, 33)
        CFI Block cfiCond276 Using cfiCommon0
        CFI (cfiCond276) NoFunction
        CFI (cfiCond276) Conditional ??CrossCallReturnLabel_18
        CFI (cfiCond276) R6 load(1, XDATA, add(CFA_XSP16, literal(-20)))
        CFI (cfiCond276) VB load(1, XDATA, add(CFA_XSP16, literal(-19)))
        CFI (cfiCond276) V0 load(1, XDATA, add(CFA_XSP16, literal(-18)))
        CFI (cfiCond276) V1 load(1, XDATA, add(CFA_XSP16, literal(-17)))
        CFI (cfiCond276) V2 load(1, XDATA, add(CFA_XSP16, literal(-16)))
        CFI (cfiCond276) V3 load(1, XDATA, add(CFA_XSP16, literal(-15)))
        CFI (cfiCond276) V4 load(1, XDATA, add(CFA_XSP16, literal(-14)))
        CFI (cfiCond276) V5 load(1, XDATA, add(CFA_XSP16, literal(-13)))
        CFI (cfiCond276) V6 load(1, XDATA, add(CFA_XSP16, literal(-12)))
        CFI (cfiCond276) V7 load(1, XDATA, add(CFA_XSP16, literal(-11)))
        CFI (cfiCond276) V8 load(1, XDATA, add(CFA_XSP16, literal(-10)))
        CFI (cfiCond276) V9 load(1, XDATA, add(CFA_XSP16, literal(-9)))
        CFI (cfiCond276) V10 load(1, XDATA, add(CFA_XSP16, literal(-8)))
        CFI (cfiCond276) V11 load(1, XDATA, add(CFA_XSP16, literal(-7)))
        CFI (cfiCond276) R7 load(1, XDATA, add(CFA_XSP16, literal(-6)))
        CFI (cfiCond276) ?RET_LOW load(1, XDATA, add(CFA_XSP16, literal(-5)))
        CFI (cfiCond276) ?RET_HIGH load(1, XDATA, add(CFA_XSP16, literal(-4)))
        CFI (cfiCond276) ?BRET_EXT load(1, XDATA, add(CFA_XSP16, literal(-3)))
        CFI (cfiCond276) DPL0 load(1, XDATA, add(CFA_XSP16, literal(-2)))
        CFI (cfiCond276) DPH0 load(1, XDATA, add(CFA_XSP16, literal(-1)))
        CFI (cfiCond276) CFA_SP SP+0
        CFI (cfiCond276) CFA_XSP16 add(XSP16, 33)
        CFI Block cfiPicker277 Using cfiCommon1
        CFI (cfiPicker277) NoFunction
        CFI (cfiPicker277) Picker
        LCALL   ?Subroutine53 & 0xFFFF
??CrossCallReturnLabel_82:
        RET
        CFI EndBlock cfiCond273
        CFI EndBlock cfiCond274
        CFI EndBlock cfiCond275
        CFI EndBlock cfiCond276
        CFI EndBlock cfiPicker277

        RSEG BANKED_CODE:CODE:NOROOT(0)
?Subroutine53:
        CFI Block cfiCond278 Using cfiCommon0
        CFI NoFunction
        CFI Conditional ??CrossCallReturnLabel_82, ??CrossCallReturnLabel_15
        CFI R6 load(1, XDATA, add(CFA_XSP16, literal(-20)))
        CFI VB load(1, XDATA, add(CFA_XSP16, literal(-19)))
        CFI V0 load(1, XDATA, add(CFA_XSP16, literal(-18)))
        CFI V1 load(1, XDATA, add(CFA_XSP16, literal(-17)))
        CFI V2 load(1, XDATA, add(CFA_XSP16, literal(-16)))
        CFI V3 load(1, XDATA, add(CFA_XSP16, literal(-15)))
        CFI V4 load(1, XDATA, add(CFA_XSP16, literal(-14)))
        CFI V5 load(1, XDATA, add(CFA_XSP16, literal(-13)))
        CFI V6 load(1, XDATA, add(CFA_XSP16, literal(-12)))
        CFI V7 load(1, XDATA, add(CFA_XSP16, literal(-11)))
        CFI V8 load(1, XDATA, add(CFA_XSP16, literal(-10)))
        CFI V9 load(1, XDATA, add(CFA_XSP16, literal(-9)))
        CFI V10 load(1, XDATA, add(CFA_XSP16, literal(-8)))
        CFI V11 load(1, XDATA, add(CFA_XSP16, literal(-7)))
        CFI R7 load(1, XDATA, add(CFA_XSP16, literal(-6)))
        CFI ?RET_LOW load(1, XDATA, add(CFA_XSP16, literal(-5)))
        CFI ?RET_HIGH load(1, XDATA, add(CFA_XSP16, literal(-4)))
        CFI ?BRET_EXT load(1, XDATA, add(CFA_XSP16, literal(-3)))
        CFI DPL0 load(1, XDATA, add(CFA_XSP16, literal(-2)))
        CFI DPH0 load(1, XDATA, add(CFA_XSP16, literal(-1)))
        CFI CFA_SP SP+0
        CFI CFA_XSP16 add(XSP16, 33)
        CFI Block cfiCond279 Using cfiCommon0
        CFI (cfiCond279) NoFunction
        CFI (cfiCond279) Conditional ??CrossCallReturnLabel_82, ??CrossCallReturnLabel_16
        CFI (cfiCond279) R6 load(1, XDATA, add(CFA_XSP16, literal(-20)))
        CFI (cfiCond279) VB load(1, XDATA, add(CFA_XSP16, literal(-19)))
        CFI (cfiCond279) V0 load(1, XDATA, add(CFA_XSP16, literal(-18)))
        CFI (cfiCond279) V1 load(1, XDATA, add(CFA_XSP16, literal(-17)))
        CFI (cfiCond279) V2 load(1, XDATA, add(CFA_XSP16, literal(-16)))
        CFI (cfiCond279) V3 load(1, XDATA, add(CFA_XSP16, literal(-15)))
        CFI (cfiCond279) V4 load(1, XDATA, add(CFA_XSP16, literal(-14)))
        CFI (cfiCond279) V5 load(1, XDATA, add(CFA_XSP16, literal(-13)))
        CFI (cfiCond279) V6 load(1, XDATA, add(CFA_XSP16, literal(-12)))
        CFI (cfiCond279) V7 load(1, XDATA, add(CFA_XSP16, literal(-11)))
        CFI (cfiCond279) V8 load(1, XDATA, add(CFA_XSP16, literal(-10)))
        CFI (cfiCond279) V9 load(1, XDATA, add(CFA_XSP16, literal(-9)))
        CFI (cfiCond279) V10 load(1, XDATA, add(CFA_XSP16, literal(-8)))
        CFI (cfiCond279) V11 load(1, XDATA, add(CFA_XSP16, literal(-7)))
        CFI (cfiCond279) R7 load(1, XDATA, add(CFA_XSP16, literal(-6)))
        CFI (cfiCond279) ?RET_LOW load(1, XDATA, add(CFA_XSP16, literal(-5)))
        CFI (cfiCond279) ?RET_HIGH load(1, XDATA, add(CFA_XSP16, literal(-4)))
        CFI (cfiCond279) ?BRET_EXT load(1, XDATA, add(CFA_XSP16, literal(-3)))
        CFI (cfiCond279) DPL0 load(1, XDATA, add(CFA_XSP16, literal(-2)))
        CFI (cfiCond279) DPH0 load(1, XDATA, add(CFA_XSP16, literal(-1)))
        CFI (cfiCond279) CFA_SP SP+0
        CFI (cfiCond279) CFA_XSP16 add(XSP16, 33)
        CFI Block cfiCond280 Using cfiCommon0
        CFI (cfiCond280) NoFunction
        CFI (cfiCond280) Conditional ??CrossCallReturnLabel_82, ??CrossCallReturnLabel_17
        CFI (cfiCond280) R6 load(1, XDATA, add(CFA_XSP16, literal(-20)))
        CFI (cfiCond280) VB load(1, XDATA, add(CFA_XSP16, literal(-19)))
        CFI (cfiCond280) V0 load(1, XDATA, add(CFA_XSP16, literal(-18)))
        CFI (cfiCond280) V1 load(1, XDATA, add(CFA_XSP16, literal(-17)))
        CFI (cfiCond280) V2 load(1, XDATA, add(CFA_XSP16, literal(-16)))
        CFI (cfiCond280) V3 load(1, XDATA, add(CFA_XSP16, literal(-15)))
        CFI (cfiCond280) V4 load(1, XDATA, add(CFA_XSP16, literal(-14)))
        CFI (cfiCond280) V5 load(1, XDATA, add(CFA_XSP16, literal(-13)))
        CFI (cfiCond280) V6 load(1, XDATA, add(CFA_XSP16, literal(-12)))
        CFI (cfiCond280) V7 load(1, XDATA, add(CFA_XSP16, literal(-11)))
        CFI (cfiCond280) V8 load(1, XDATA, add(CFA_XSP16, literal(-10)))
        CFI (cfiCond280) V9 load(1, XDATA, add(CFA_XSP16, literal(-9)))
        CFI (cfiCond280) V10 load(1, XDATA, add(CFA_XSP16, literal(-8)))
        CFI (cfiCond280) V11 load(1, XDATA, add(CFA_XSP16, literal(-7)))
        CFI (cfiCond280) R7 load(1, XDATA, add(CFA_XSP16, literal(-6)))
        CFI (cfiCond280) ?RET_LOW load(1, XDATA, add(CFA_XSP16, literal(-5)))
        CFI (cfiCond280) ?RET_HIGH load(1, XDATA, add(CFA_XSP16, literal(-4)))
        CFI (cfiCond280) ?BRET_EXT load(1, XDATA, add(CFA_XSP16, literal(-3)))
        CFI (cfiCond280) DPL0 load(1, XDATA, add(CFA_XSP16, literal(-2)))
        CFI (cfiCond280) DPH0 load(1, XDATA, add(CFA_XSP16, literal(-1)))
        CFI (cfiCond280) CFA_SP SP+0
        CFI (cfiCond280) CFA_XSP16 add(XSP16, 33)
        CFI Block cfiCond281 Using cfiCommon0
        CFI (cfiCond281) NoFunction
        CFI (cfiCond281) Conditional ??CrossCallReturnLabel_82, ??CrossCallReturnLabel_18
        CFI (cfiCond281) R6 load(1, XDATA, add(CFA_XSP16, literal(-20)))
        CFI (cfiCond281) VB load(1, XDATA, add(CFA_XSP16, literal(-19)))
        CFI (cfiCond281) V0 load(1, XDATA, add(CFA_XSP16, literal(-18)))
        CFI (cfiCond281) V1 load(1, XDATA, add(CFA_XSP16, literal(-17)))
        CFI (cfiCond281) V2 load(1, XDATA, add(CFA_XSP16, literal(-16)))
        CFI (cfiCond281) V3 load(1, XDATA, add(CFA_XSP16, literal(-15)))
        CFI (cfiCond281) V4 load(1, XDATA, add(CFA_XSP16, literal(-14)))
        CFI (cfiCond281) V5 load(1, XDATA, add(CFA_XSP16, literal(-13)))
        CFI (cfiCond281) V6 load(1, XDATA, add(CFA_XSP16, literal(-12)))
        CFI (cfiCond281) V7 load(1, XDATA, add(CFA_XSP16, literal(-11)))
        CFI (cfiCond281) V8 load(1, XDATA, add(CFA_XSP16, literal(-10)))
        CFI (cfiCond281) V9 load(1, XDATA, add(CFA_XSP16, literal(-9)))
        CFI (cfiCond281) V10 load(1, XDATA, add(CFA_XSP16, literal(-8)))
        CFI (cfiCond281) V11 load(1, XDATA, add(CFA_XSP16, literal(-7)))
        CFI (cfiCond281) R7 load(1, XDATA, add(CFA_XSP16, literal(-6)))
        CFI (cfiCond281) ?RET_LOW load(1, XDATA, add(CFA_XSP16, literal(-5)))
        CFI (cfiCond281) ?RET_HIGH load(1, XDATA, add(CFA_XSP16, literal(-4)))
        CFI (cfiCond281) ?BRET_EXT load(1, XDATA, add(CFA_XSP16, literal(-3)))
        CFI (cfiCond281) DPL0 load(1, XDATA, add(CFA_XSP16, literal(-2)))
        CFI (cfiCond281) DPH0 load(1, XDATA, add(CFA_XSP16, literal(-1)))
        CFI (cfiCond281) CFA_SP SP+0
        CFI (cfiCond281) CFA_XSP16 add(XSP16, 33)
        CFI Block cfiCond282 Using cfiCommon0
        CFI (cfiCond282) NoFunction
        CFI (cfiCond282) Conditional ??CrossCallReturnLabel_81, ??CrossCallReturnLabel_13
        CFI (cfiCond282) R6 load(1, XDATA, add(CFA_XSP16, literal(-20)))
        CFI (cfiCond282) VB load(1, XDATA, add(CFA_XSP16, literal(-19)))
        CFI (cfiCond282) V0 load(1, XDATA, add(CFA_XSP16, literal(-18)))
        CFI (cfiCond282) V1 load(1, XDATA, add(CFA_XSP16, literal(-17)))
        CFI (cfiCond282) V2 load(1, XDATA, add(CFA_XSP16, literal(-16)))
        CFI (cfiCond282) V3 load(1, XDATA, add(CFA_XSP16, literal(-15)))
        CFI (cfiCond282) V4 load(1, XDATA, add(CFA_XSP16, literal(-14)))
        CFI (cfiCond282) V5 load(1, XDATA, add(CFA_XSP16, literal(-13)))
        CFI (cfiCond282) V6 load(1, XDATA, add(CFA_XSP16, literal(-12)))
        CFI (cfiCond282) V7 load(1, XDATA, add(CFA_XSP16, literal(-11)))
        CFI (cfiCond282) V8 load(1, XDATA, add(CFA_XSP16, literal(-10)))
        CFI (cfiCond282) V9 load(1, XDATA, add(CFA_XSP16, literal(-9)))
        CFI (cfiCond282) V10 load(1, XDATA, add(CFA_XSP16, literal(-8)))
        CFI (cfiCond282) V11 load(1, XDATA, add(CFA_XSP16, literal(-7)))
        CFI (cfiCond282) R7 load(1, XDATA, add(CFA_XSP16, literal(-6)))
        CFI (cfiCond282) ?RET_LOW load(1, XDATA, add(CFA_XSP16, literal(-5)))
        CFI (cfiCond282) ?RET_HIGH load(1, XDATA, add(CFA_XSP16, literal(-4)))
        CFI (cfiCond282) ?BRET_EXT load(1, XDATA, add(CFA_XSP16, literal(-3)))
        CFI (cfiCond282) DPL0 load(1, XDATA, add(CFA_XSP16, literal(-2)))
        CFI (cfiCond282) DPH0 load(1, XDATA, add(CFA_XSP16, literal(-1)))
        CFI (cfiCond282) CFA_SP SP+0
        CFI (cfiCond282) CFA_XSP16 add(XSP16, 33)
        CFI Block cfiCond283 Using cfiCommon0
        CFI (cfiCond283) NoFunction
        CFI (cfiCond283) Conditional ??CrossCallReturnLabel_81, ??CrossCallReturnLabel_14
        CFI (cfiCond283) R6 load(1, XDATA, add(CFA_XSP16, literal(-20)))
        CFI (cfiCond283) VB load(1, XDATA, add(CFA_XSP16, literal(-19)))
        CFI (cfiCond283) V0 load(1, XDATA, add(CFA_XSP16, literal(-18)))
        CFI (cfiCond283) V1 load(1, XDATA, add(CFA_XSP16, literal(-17)))
        CFI (cfiCond283) V2 load(1, XDATA, add(CFA_XSP16, literal(-16)))
        CFI (cfiCond283) V3 load(1, XDATA, add(CFA_XSP16, literal(-15)))
        CFI (cfiCond283) V4 load(1, XDATA, add(CFA_XSP16, literal(-14)))
        CFI (cfiCond283) V5 load(1, XDATA, add(CFA_XSP16, literal(-13)))
        CFI (cfiCond283) V6 load(1, XDATA, add(CFA_XSP16, literal(-12)))
        CFI (cfiCond283) V7 load(1, XDATA, add(CFA_XSP16, literal(-11)))
        CFI (cfiCond283) V8 load(1, XDATA, add(CFA_XSP16, literal(-10)))
        CFI (cfiCond283) V9 load(1, XDATA, add(CFA_XSP16, literal(-9)))
        CFI (cfiCond283) V10 load(1, XDATA, add(CFA_XSP16, literal(-8)))
        CFI (cfiCond283) V11 load(1, XDATA, add(CFA_XSP16, literal(-7)))
        CFI (cfiCond283) R7 load(1, XDATA, add(CFA_XSP16, literal(-6)))
        CFI (cfiCond283) ?RET_LOW load(1, XDATA, add(CFA_XSP16, literal(-5)))
        CFI (cfiCond283) ?RET_HIGH load(1, XDATA, add(CFA_XSP16, literal(-4)))
        CFI (cfiCond283) ?BRET_EXT load(1, XDATA, add(CFA_XSP16, literal(-3)))
        CFI (cfiCond283) DPL0 load(1, XDATA, add(CFA_XSP16, literal(-2)))
        CFI (cfiCond283) DPH0 load(1, XDATA, add(CFA_XSP16, literal(-1)))
        CFI (cfiCond283) CFA_SP SP+0
        CFI (cfiCond283) CFA_XSP16 add(XSP16, 33)
        CFI Block cfiPicker284 Using cfiCommon1
        CFI (cfiPicker284) NoFunction
        CFI (cfiPicker284) Picker
        LCALL   ?Subroutine60 & 0xFFFF
??CrossCallReturnLabel_94:
        MOVX    A,@DPTR
        MOV     R0,A
        INC     DPTR
        MOVX    A,@DPTR
        MOV     DPH,A
        MOV     DPL,R0
        MOVX    A,@DPTR
        RET
        CFI EndBlock cfiCond278
        CFI EndBlock cfiCond279
        CFI EndBlock cfiCond280
        CFI EndBlock cfiCond281
        CFI EndBlock cfiCond282
        CFI EndBlock cfiCond283
        CFI EndBlock cfiPicker284

        RSEG BANKED_CODE:CODE:NOROOT(0)
?Subroutine8:
        CFI Block cfiCond285 Using cfiCommon0
        CFI NoFunction
        CFI Conditional ??CrossCallReturnLabel_13
        CFI R6 load(1, XDATA, add(CFA_XSP16, literal(-20)))
        CFI VB load(1, XDATA, add(CFA_XSP16, literal(-19)))
        CFI V0 load(1, XDATA, add(CFA_XSP16, literal(-18)))
        CFI V1 load(1, XDATA, add(CFA_XSP16, literal(-17)))
        CFI V2 load(1, XDATA, add(CFA_XSP16, literal(-16)))
        CFI V3 load(1, XDATA, add(CFA_XSP16, literal(-15)))
        CFI V4 load(1, XDATA, add(CFA_XSP16, literal(-14)))
        CFI V5 load(1, XDATA, add(CFA_XSP16, literal(-13)))
        CFI V6 load(1, XDATA, add(CFA_XSP16, literal(-12)))
        CFI V7 load(1, XDATA, add(CFA_XSP16, literal(-11)))
        CFI V8 load(1, XDATA, add(CFA_XSP16, literal(-10)))
        CFI V9 load(1, XDATA, add(CFA_XSP16, literal(-9)))
        CFI V10 load(1, XDATA, add(CFA_XSP16, literal(-8)))
        CFI V11 load(1, XDATA, add(CFA_XSP16, literal(-7)))
        CFI R7 load(1, XDATA, add(CFA_XSP16, literal(-6)))
        CFI ?RET_LOW load(1, XDATA, add(CFA_XSP16, literal(-5)))
        CFI ?RET_HIGH load(1, XDATA, add(CFA_XSP16, literal(-4)))
        CFI ?BRET_EXT load(1, XDATA, add(CFA_XSP16, literal(-3)))
        CFI DPL0 load(1, XDATA, add(CFA_XSP16, literal(-2)))
        CFI DPH0 load(1, XDATA, add(CFA_XSP16, literal(-1)))
        CFI CFA_SP SP+0
        CFI CFA_XSP16 add(XSP16, 33)
        CFI Block cfiCond286 Using cfiCommon0
        CFI (cfiCond286) NoFunction
        CFI (cfiCond286) Conditional ??CrossCallReturnLabel_14
        CFI (cfiCond286) R6 load(1, XDATA, add(CFA_XSP16, literal(-20)))
        CFI (cfiCond286) VB load(1, XDATA, add(CFA_XSP16, literal(-19)))
        CFI (cfiCond286) V0 load(1, XDATA, add(CFA_XSP16, literal(-18)))
        CFI (cfiCond286) V1 load(1, XDATA, add(CFA_XSP16, literal(-17)))
        CFI (cfiCond286) V2 load(1, XDATA, add(CFA_XSP16, literal(-16)))
        CFI (cfiCond286) V3 load(1, XDATA, add(CFA_XSP16, literal(-15)))
        CFI (cfiCond286) V4 load(1, XDATA, add(CFA_XSP16, literal(-14)))
        CFI (cfiCond286) V5 load(1, XDATA, add(CFA_XSP16, literal(-13)))
        CFI (cfiCond286) V6 load(1, XDATA, add(CFA_XSP16, literal(-12)))
        CFI (cfiCond286) V7 load(1, XDATA, add(CFA_XSP16, literal(-11)))
        CFI (cfiCond286) V8 load(1, XDATA, add(CFA_XSP16, literal(-10)))
        CFI (cfiCond286) V9 load(1, XDATA, add(CFA_XSP16, literal(-9)))
        CFI (cfiCond286) V10 load(1, XDATA, add(CFA_XSP16, literal(-8)))
        CFI (cfiCond286) V11 load(1, XDATA, add(CFA_XSP16, literal(-7)))
        CFI (cfiCond286) R7 load(1, XDATA, add(CFA_XSP16, literal(-6)))
        CFI (cfiCond286) ?RET_LOW load(1, XDATA, add(CFA_XSP16, literal(-5)))
        CFI (cfiCond286) ?RET_HIGH load(1, XDATA, add(CFA_XSP16, literal(-4)))
        CFI (cfiCond286) ?BRET_EXT load(1, XDATA, add(CFA_XSP16, literal(-3)))
        CFI (cfiCond286) DPL0 load(1, XDATA, add(CFA_XSP16, literal(-2)))
        CFI (cfiCond286) DPH0 load(1, XDATA, add(CFA_XSP16, literal(-1)))
        CFI (cfiCond286) CFA_SP SP+0
        CFI (cfiCond286) CFA_XSP16 add(XSP16, 33)
        CFI Block cfiPicker287 Using cfiCommon1
        CFI (cfiPicker287) NoFunction
        CFI (cfiPicker287) Picker
        LCALL   ?Subroutine53 & 0xFFFF
??CrossCallReturnLabel_81:
        XRL     A,#0x2a
        RET
        CFI EndBlock cfiCond285
        CFI EndBlock cfiCond286
        CFI EndBlock cfiPicker287

        RSEG BANKED_CODE:CODE:NOROOT(0)
?Subroutine6:
        CFI Block cfiCond288 Using cfiCommon0
        CFI NoFunction
        CFI Conditional ??CrossCallReturnLabel_11
        CFI R6 load(1, XDATA, add(CFA_XSP16, literal(-20)))
        CFI VB load(1, XDATA, add(CFA_XSP16, literal(-19)))
        CFI V0 load(1, XDATA, add(CFA_XSP16, literal(-18)))
        CFI V1 load(1, XDATA, add(CFA_XSP16, literal(-17)))
        CFI V2 load(1, XDATA, add(CFA_XSP16, literal(-16)))
        CFI V3 load(1, XDATA, add(CFA_XSP16, literal(-15)))
        CFI V4 load(1, XDATA, add(CFA_XSP16, literal(-14)))
        CFI V5 load(1, XDATA, add(CFA_XSP16, literal(-13)))
        CFI V6 load(1, XDATA, add(CFA_XSP16, literal(-12)))
        CFI V7 load(1, XDATA, add(CFA_XSP16, literal(-11)))
        CFI V8 load(1, XDATA, add(CFA_XSP16, literal(-10)))
        CFI V9 load(1, XDATA, add(CFA_XSP16, literal(-9)))
        CFI V10 load(1, XDATA, add(CFA_XSP16, literal(-8)))
        CFI V11 load(1, XDATA, add(CFA_XSP16, literal(-7)))
        CFI R7 load(1, XDATA, add(CFA_XSP16, literal(-6)))
        CFI ?RET_LOW load(1, XDATA, add(CFA_XSP16, literal(-5)))
        CFI ?RET_HIGH load(1, XDATA, add(CFA_XSP16, literal(-4)))
        CFI ?BRET_EXT load(1, XDATA, add(CFA_XSP16, literal(-3)))
        CFI DPL0 load(1, XDATA, add(CFA_XSP16, literal(-2)))
        CFI DPH0 load(1, XDATA, add(CFA_XSP16, literal(-1)))
        CFI CFA_SP SP+0
        CFI CFA_XSP16 add(XSP16, 33)
        CFI Block cfiCond289 Using cfiCommon0
        CFI (cfiCond289) NoFunction
        CFI (cfiCond289) Conditional ??CrossCallReturnLabel_12
        CFI (cfiCond289) R6 load(1, XDATA, add(CFA_XSP16, literal(-20)))
        CFI (cfiCond289) VB load(1, XDATA, add(CFA_XSP16, literal(-19)))
        CFI (cfiCond289) V0 load(1, XDATA, add(CFA_XSP16, literal(-18)))
        CFI (cfiCond289) V1 load(1, XDATA, add(CFA_XSP16, literal(-17)))
        CFI (cfiCond289) V2 load(1, XDATA, add(CFA_XSP16, literal(-16)))
        CFI (cfiCond289) V3 load(1, XDATA, add(CFA_XSP16, literal(-15)))
        CFI (cfiCond289) V4 load(1, XDATA, add(CFA_XSP16, literal(-14)))
        CFI (cfiCond289) V5 load(1, XDATA, add(CFA_XSP16, literal(-13)))
        CFI (cfiCond289) V6 load(1, XDATA, add(CFA_XSP16, literal(-12)))
        CFI (cfiCond289) V7 load(1, XDATA, add(CFA_XSP16, literal(-11)))
        CFI (cfiCond289) V8 load(1, XDATA, add(CFA_XSP16, literal(-10)))
        CFI (cfiCond289) V9 load(1, XDATA, add(CFA_XSP16, literal(-9)))
        CFI (cfiCond289) V10 load(1, XDATA, add(CFA_XSP16, literal(-8)))
        CFI (cfiCond289) V11 load(1, XDATA, add(CFA_XSP16, literal(-7)))
        CFI (cfiCond289) R7 load(1, XDATA, add(CFA_XSP16, literal(-6)))
        CFI (cfiCond289) ?RET_LOW load(1, XDATA, add(CFA_XSP16, literal(-5)))
        CFI (cfiCond289) ?RET_HIGH load(1, XDATA, add(CFA_XSP16, literal(-4)))
        CFI (cfiCond289) ?BRET_EXT load(1, XDATA, add(CFA_XSP16, literal(-3)))
        CFI (cfiCond289) DPL0 load(1, XDATA, add(CFA_XSP16, literal(-2)))
        CFI (cfiCond289) DPH0 load(1, XDATA, add(CFA_XSP16, literal(-1)))
        CFI (cfiCond289) CFA_SP SP+0
        CFI (cfiCond289) CFA_XSP16 add(XSP16, 33)
        CFI Block cfiPicker290 Using cfiCommon1
        CFI (cfiPicker290) NoFunction
        CFI (cfiPicker290) Picker
        MOV     A,?V0 + 0
        ADD     A,#0x1
        MOV     ?V0 + 0,A
        MOV     A,?V0 + 1
        ADDC    A,#0x0
        MOV     ?V0 + 1,A
        CLR     C
        MOV     A,?V0 + 0
        SUBB    A,#0x10
        MOV     A,?V0 + 1
        SUBB    A,#0x0
        MOV     C,0xD0 /* PSW */.2
        XRL     A,PSW
        RLC     A
        RET
        CFI EndBlock cfiCond288
        CFI EndBlock cfiCond289
        CFI EndBlock cfiPicker290

        RSEG BANKED_CODE:CODE:NOROOT(0)
?Subroutine5:
        CFI Block cfiCond291 Using cfiCommon0
        CFI NoFunction
        CFI Conditional ??CrossCallReturnLabel_8
        CFI R6 load(1, XDATA, add(CFA_XSP16, literal(-20)))
        CFI VB load(1, XDATA, add(CFA_XSP16, literal(-19)))
        CFI V0 load(1, XDATA, add(CFA_XSP16, literal(-18)))
        CFI V1 load(1, XDATA, add(CFA_XSP16, literal(-17)))
        CFI V2 load(1, XDATA, add(CFA_XSP16, literal(-16)))
        CFI V3 load(1, XDATA, add(CFA_XSP16, literal(-15)))
        CFI V4 load(1, XDATA, add(CFA_XSP16, literal(-14)))
        CFI V5 load(1, XDATA, add(CFA_XSP16, literal(-13)))
        CFI V6 load(1, XDATA, add(CFA_XSP16, literal(-12)))
        CFI V7 load(1, XDATA, add(CFA_XSP16, literal(-11)))
        CFI V8 load(1, XDATA, add(CFA_XSP16, literal(-10)))
        CFI V9 load(1, XDATA, add(CFA_XSP16, literal(-9)))
        CFI V10 load(1, XDATA, add(CFA_XSP16, literal(-8)))
        CFI V11 load(1, XDATA, add(CFA_XSP16, literal(-7)))
        CFI R7 load(1, XDATA, add(CFA_XSP16, literal(-6)))
        CFI ?RET_LOW load(1, XDATA, add(CFA_XSP16, literal(-5)))
        CFI ?RET_HIGH load(1, XDATA, add(CFA_XSP16, literal(-4)))
        CFI ?BRET_EXT load(1, XDATA, add(CFA_XSP16, literal(-3)))
        CFI DPL0 load(1, XDATA, add(CFA_XSP16, literal(-2)))
        CFI DPH0 load(1, XDATA, add(CFA_XSP16, literal(-1)))
        CFI CFA_SP SP+0
        CFI CFA_XSP16 add(XSP16, 33)
        CFI Block cfiCond292 Using cfiCommon0
        CFI (cfiCond292) NoFunction
        CFI (cfiCond292) Conditional ??CrossCallReturnLabel_9
        CFI (cfiCond292) R6 load(1, XDATA, add(CFA_XSP16, literal(-20)))
        CFI (cfiCond292) VB load(1, XDATA, add(CFA_XSP16, literal(-19)))
        CFI (cfiCond292) V0 load(1, XDATA, add(CFA_XSP16, literal(-18)))
        CFI (cfiCond292) V1 load(1, XDATA, add(CFA_XSP16, literal(-17)))
        CFI (cfiCond292) V2 load(1, XDATA, add(CFA_XSP16, literal(-16)))
        CFI (cfiCond292) V3 load(1, XDATA, add(CFA_XSP16, literal(-15)))
        CFI (cfiCond292) V4 load(1, XDATA, add(CFA_XSP16, literal(-14)))
        CFI (cfiCond292) V5 load(1, XDATA, add(CFA_XSP16, literal(-13)))
        CFI (cfiCond292) V6 load(1, XDATA, add(CFA_XSP16, literal(-12)))
        CFI (cfiCond292) V7 load(1, XDATA, add(CFA_XSP16, literal(-11)))
        CFI (cfiCond292) V8 load(1, XDATA, add(CFA_XSP16, literal(-10)))
        CFI (cfiCond292) V9 load(1, XDATA, add(CFA_XSP16, literal(-9)))
        CFI (cfiCond292) V10 load(1, XDATA, add(CFA_XSP16, literal(-8)))
        CFI (cfiCond292) V11 load(1, XDATA, add(CFA_XSP16, literal(-7)))
        CFI (cfiCond292) R7 load(1, XDATA, add(CFA_XSP16, literal(-6)))
        CFI (cfiCond292) ?RET_LOW load(1, XDATA, add(CFA_XSP16, literal(-5)))
        CFI (cfiCond292) ?RET_HIGH load(1, XDATA, add(CFA_XSP16, literal(-4)))
        CFI (cfiCond292) ?BRET_EXT load(1, XDATA, add(CFA_XSP16, literal(-3)))
        CFI (cfiCond292) DPL0 load(1, XDATA, add(CFA_XSP16, literal(-2)))
        CFI (cfiCond292) DPH0 load(1, XDATA, add(CFA_XSP16, literal(-1)))
        CFI (cfiCond292) CFA_SP SP+0
        CFI (cfiCond292) CFA_XSP16 add(XSP16, 33)
        CFI Block cfiCond293 Using cfiCommon0
        CFI (cfiCond293) NoFunction
        CFI (cfiCond293) Conditional ??CrossCallReturnLabel_10
        CFI (cfiCond293) R6 load(1, XDATA, add(CFA_XSP16, literal(-20)))
        CFI (cfiCond293) VB load(1, XDATA, add(CFA_XSP16, literal(-19)))
        CFI (cfiCond293) V0 load(1, XDATA, add(CFA_XSP16, literal(-18)))
        CFI (cfiCond293) V1 load(1, XDATA, add(CFA_XSP16, literal(-17)))
        CFI (cfiCond293) V2 load(1, XDATA, add(CFA_XSP16, literal(-16)))
        CFI (cfiCond293) V3 load(1, XDATA, add(CFA_XSP16, literal(-15)))
        CFI (cfiCond293) V4 load(1, XDATA, add(CFA_XSP16, literal(-14)))
        CFI (cfiCond293) V5 load(1, XDATA, add(CFA_XSP16, literal(-13)))
        CFI (cfiCond293) V6 load(1, XDATA, add(CFA_XSP16, literal(-12)))
        CFI (cfiCond293) V7 load(1, XDATA, add(CFA_XSP16, literal(-11)))
        CFI (cfiCond293) V8 load(1, XDATA, add(CFA_XSP16, literal(-10)))
        CFI (cfiCond293) V9 load(1, XDATA, add(CFA_XSP16, literal(-9)))
        CFI (cfiCond293) V10 load(1, XDATA, add(CFA_XSP16, literal(-8)))
        CFI (cfiCond293) V11 load(1, XDATA, add(CFA_XSP16, literal(-7)))
        CFI (cfiCond293) R7 load(1, XDATA, add(CFA_XSP16, literal(-6)))
        CFI (cfiCond293) ?RET_LOW load(1, XDATA, add(CFA_XSP16, literal(-5)))
        CFI (cfiCond293) ?RET_HIGH load(1, XDATA, add(CFA_XSP16, literal(-4)))
        CFI (cfiCond293) ?BRET_EXT load(1, XDATA, add(CFA_XSP16, literal(-3)))
        CFI (cfiCond293) DPL0 load(1, XDATA, add(CFA_XSP16, literal(-2)))
        CFI (cfiCond293) DPH0 load(1, XDATA, add(CFA_XSP16, literal(-1)))
        CFI (cfiCond293) CFA_SP SP+0
        CFI (cfiCond293) CFA_XSP16 add(XSP16, 33)
        CFI Block cfiPicker294 Using cfiCommon1
        CFI (cfiPicker294) NoFunction
        CFI (cfiPicker294) Picker
        LCALL   ?Subroutine49 & 0xFFFF
??CrossCallReturnLabel_159:
        MOVX    A,@DPTR
        RET
        CFI EndBlock cfiCond291
        CFI EndBlock cfiCond292
        CFI EndBlock cfiCond293
        CFI EndBlock cfiPicker294

        RSEG BANKED_CODE:CODE:NOROOT(0)
?Subroutine4:
        CFI Block cfiCond295 Using cfiCommon0
        CFI NoFunction
        CFI Conditional ??CrossCallReturnLabel_5
        CFI R6 load(1, XDATA, add(CFA_XSP16, literal(-20)))
        CFI VB load(1, XDATA, add(CFA_XSP16, literal(-19)))
        CFI V0 load(1, XDATA, add(CFA_XSP16, literal(-18)))
        CFI V1 load(1, XDATA, add(CFA_XSP16, literal(-17)))
        CFI V2 load(1, XDATA, add(CFA_XSP16, literal(-16)))
        CFI V3 load(1, XDATA, add(CFA_XSP16, literal(-15)))
        CFI V4 load(1, XDATA, add(CFA_XSP16, literal(-14)))
        CFI V5 load(1, XDATA, add(CFA_XSP16, literal(-13)))
        CFI V6 load(1, XDATA, add(CFA_XSP16, literal(-12)))
        CFI V7 load(1, XDATA, add(CFA_XSP16, literal(-11)))
        CFI V8 load(1, XDATA, add(CFA_XSP16, literal(-10)))
        CFI V9 load(1, XDATA, add(CFA_XSP16, literal(-9)))
        CFI V10 load(1, XDATA, add(CFA_XSP16, literal(-8)))
        CFI V11 load(1, XDATA, add(CFA_XSP16, literal(-7)))
        CFI R7 load(1, XDATA, add(CFA_XSP16, literal(-6)))
        CFI ?RET_LOW load(1, XDATA, add(CFA_XSP16, literal(-5)))
        CFI ?RET_HIGH load(1, XDATA, add(CFA_XSP16, literal(-4)))
        CFI ?BRET_EXT load(1, XDATA, add(CFA_XSP16, literal(-3)))
        CFI DPL0 load(1, XDATA, add(CFA_XSP16, literal(-2)))
        CFI DPH0 load(1, XDATA, add(CFA_XSP16, literal(-1)))
        CFI CFA_SP SP+0
        CFI CFA_XSP16 add(XSP16, 33)
        CFI Block cfiCond296 Using cfiCommon0
        CFI (cfiCond296) NoFunction
        CFI (cfiCond296) Conditional ??CrossCallReturnLabel_6
        CFI (cfiCond296) R6 load(1, XDATA, add(CFA_XSP16, literal(-20)))
        CFI (cfiCond296) VB load(1, XDATA, add(CFA_XSP16, literal(-19)))
        CFI (cfiCond296) V0 load(1, XDATA, add(CFA_XSP16, literal(-18)))
        CFI (cfiCond296) V1 load(1, XDATA, add(CFA_XSP16, literal(-17)))
        CFI (cfiCond296) V2 load(1, XDATA, add(CFA_XSP16, literal(-16)))
        CFI (cfiCond296) V3 load(1, XDATA, add(CFA_XSP16, literal(-15)))
        CFI (cfiCond296) V4 load(1, XDATA, add(CFA_XSP16, literal(-14)))
        CFI (cfiCond296) V5 load(1, XDATA, add(CFA_XSP16, literal(-13)))
        CFI (cfiCond296) V6 load(1, XDATA, add(CFA_XSP16, literal(-12)))
        CFI (cfiCond296) V7 load(1, XDATA, add(CFA_XSP16, literal(-11)))
        CFI (cfiCond296) V8 load(1, XDATA, add(CFA_XSP16, literal(-10)))
        CFI (cfiCond296) V9 load(1, XDATA, add(CFA_XSP16, literal(-9)))
        CFI (cfiCond296) V10 load(1, XDATA, add(CFA_XSP16, literal(-8)))
        CFI (cfiCond296) V11 load(1, XDATA, add(CFA_XSP16, literal(-7)))
        CFI (cfiCond296) R7 load(1, XDATA, add(CFA_XSP16, literal(-6)))
        CFI (cfiCond296) ?RET_LOW load(1, XDATA, add(CFA_XSP16, literal(-5)))
        CFI (cfiCond296) ?RET_HIGH load(1, XDATA, add(CFA_XSP16, literal(-4)))
        CFI (cfiCond296) ?BRET_EXT load(1, XDATA, add(CFA_XSP16, literal(-3)))
        CFI (cfiCond296) DPL0 load(1, XDATA, add(CFA_XSP16, literal(-2)))
        CFI (cfiCond296) DPH0 load(1, XDATA, add(CFA_XSP16, literal(-1)))
        CFI (cfiCond296) CFA_SP SP+0
        CFI (cfiCond296) CFA_XSP16 add(XSP16, 33)
        CFI Block cfiCond297 Using cfiCommon0
        CFI (cfiCond297) NoFunction
        CFI (cfiCond297) Conditional ??CrossCallReturnLabel_7
        CFI (cfiCond297) R6 load(1, XDATA, add(CFA_XSP16, literal(-20)))
        CFI (cfiCond297) VB load(1, XDATA, add(CFA_XSP16, literal(-19)))
        CFI (cfiCond297) V0 load(1, XDATA, add(CFA_XSP16, literal(-18)))
        CFI (cfiCond297) V1 load(1, XDATA, add(CFA_XSP16, literal(-17)))
        CFI (cfiCond297) V2 load(1, XDATA, add(CFA_XSP16, literal(-16)))
        CFI (cfiCond297) V3 load(1, XDATA, add(CFA_XSP16, literal(-15)))
        CFI (cfiCond297) V4 load(1, XDATA, add(CFA_XSP16, literal(-14)))
        CFI (cfiCond297) V5 load(1, XDATA, add(CFA_XSP16, literal(-13)))
        CFI (cfiCond297) V6 load(1, XDATA, add(CFA_XSP16, literal(-12)))
        CFI (cfiCond297) V7 load(1, XDATA, add(CFA_XSP16, literal(-11)))
        CFI (cfiCond297) V8 load(1, XDATA, add(CFA_XSP16, literal(-10)))
        CFI (cfiCond297) V9 load(1, XDATA, add(CFA_XSP16, literal(-9)))
        CFI (cfiCond297) V10 load(1, XDATA, add(CFA_XSP16, literal(-8)))
        CFI (cfiCond297) V11 load(1, XDATA, add(CFA_XSP16, literal(-7)))
        CFI (cfiCond297) R7 load(1, XDATA, add(CFA_XSP16, literal(-6)))
        CFI (cfiCond297) ?RET_LOW load(1, XDATA, add(CFA_XSP16, literal(-5)))
        CFI (cfiCond297) ?RET_HIGH load(1, XDATA, add(CFA_XSP16, literal(-4)))
        CFI (cfiCond297) ?BRET_EXT load(1, XDATA, add(CFA_XSP16, literal(-3)))
        CFI (cfiCond297) DPL0 load(1, XDATA, add(CFA_XSP16, literal(-2)))
        CFI (cfiCond297) DPH0 load(1, XDATA, add(CFA_XSP16, literal(-1)))
        CFI (cfiCond297) CFA_SP SP+0
        CFI (cfiCond297) CFA_XSP16 add(XSP16, 33)
        CFI Block cfiPicker298 Using cfiCommon1
        CFI (cfiPicker298) NoFunction
        CFI (cfiPicker298) Picker
        LCALL   ?Subroutine49 & 0xFFFF
??CrossCallReturnLabel_158:
        INC     DPTR
        MOVX    A,@DPTR
        RET
        CFI EndBlock cfiCond295
        CFI EndBlock cfiCond296
        CFI EndBlock cfiCond297
        CFI EndBlock cfiPicker298

        RSEG BANKED_CODE:CODE:NOROOT(0)
?Subroutine49:
        CFI Block cfiCond299 Using cfiCommon0
        CFI NoFunction
        CFI Conditional ??CrossCallReturnLabel_159, ??CrossCallReturnLabel_8
        CFI R6 load(1, XDATA, add(CFA_XSP16, literal(-20)))
        CFI VB load(1, XDATA, add(CFA_XSP16, literal(-19)))
        CFI V0 load(1, XDATA, add(CFA_XSP16, literal(-18)))
        CFI V1 load(1, XDATA, add(CFA_XSP16, literal(-17)))
        CFI V2 load(1, XDATA, add(CFA_XSP16, literal(-16)))
        CFI V3 load(1, XDATA, add(CFA_XSP16, literal(-15)))
        CFI V4 load(1, XDATA, add(CFA_XSP16, literal(-14)))
        CFI V5 load(1, XDATA, add(CFA_XSP16, literal(-13)))
        CFI V6 load(1, XDATA, add(CFA_XSP16, literal(-12)))
        CFI V7 load(1, XDATA, add(CFA_XSP16, literal(-11)))
        CFI V8 load(1, XDATA, add(CFA_XSP16, literal(-10)))
        CFI V9 load(1, XDATA, add(CFA_XSP16, literal(-9)))
        CFI V10 load(1, XDATA, add(CFA_XSP16, literal(-8)))
        CFI V11 load(1, XDATA, add(CFA_XSP16, literal(-7)))
        CFI R7 load(1, XDATA, add(CFA_XSP16, literal(-6)))
        CFI ?RET_LOW load(1, XDATA, add(CFA_XSP16, literal(-5)))
        CFI ?RET_HIGH load(1, XDATA, add(CFA_XSP16, literal(-4)))
        CFI ?BRET_EXT load(1, XDATA, add(CFA_XSP16, literal(-3)))
        CFI DPL0 load(1, XDATA, add(CFA_XSP16, literal(-2)))
        CFI DPH0 load(1, XDATA, add(CFA_XSP16, literal(-1)))
        CFI CFA_SP SP+0
        CFI CFA_XSP16 add(XSP16, 33)
        CFI Block cfiCond300 Using cfiCommon0
        CFI (cfiCond300) NoFunction
        CFI (cfiCond300) Conditional ??CrossCallReturnLabel_159, ??CrossCallReturnLabel_9
        CFI (cfiCond300) R6 load(1, XDATA, add(CFA_XSP16, literal(-20)))
        CFI (cfiCond300) VB load(1, XDATA, add(CFA_XSP16, literal(-19)))
        CFI (cfiCond300) V0 load(1, XDATA, add(CFA_XSP16, literal(-18)))
        CFI (cfiCond300) V1 load(1, XDATA, add(CFA_XSP16, literal(-17)))
        CFI (cfiCond300) V2 load(1, XDATA, add(CFA_XSP16, literal(-16)))
        CFI (cfiCond300) V3 load(1, XDATA, add(CFA_XSP16, literal(-15)))
        CFI (cfiCond300) V4 load(1, XDATA, add(CFA_XSP16, literal(-14)))
        CFI (cfiCond300) V5 load(1, XDATA, add(CFA_XSP16, literal(-13)))
        CFI (cfiCond300) V6 load(1, XDATA, add(CFA_XSP16, literal(-12)))
        CFI (cfiCond300) V7 load(1, XDATA, add(CFA_XSP16, literal(-11)))
        CFI (cfiCond300) V8 load(1, XDATA, add(CFA_XSP16, literal(-10)))
        CFI (cfiCond300) V9 load(1, XDATA, add(CFA_XSP16, literal(-9)))
        CFI (cfiCond300) V10 load(1, XDATA, add(CFA_XSP16, literal(-8)))
        CFI (cfiCond300) V11 load(1, XDATA, add(CFA_XSP16, literal(-7)))
        CFI (cfiCond300) R7 load(1, XDATA, add(CFA_XSP16, literal(-6)))
        CFI (cfiCond300) ?RET_LOW load(1, XDATA, add(CFA_XSP16, literal(-5)))
        CFI (cfiCond300) ?RET_HIGH load(1, XDATA, add(CFA_XSP16, literal(-4)))
        CFI (cfiCond300) ?BRET_EXT load(1, XDATA, add(CFA_XSP16, literal(-3)))
        CFI (cfiCond300) DPL0 load(1, XDATA, add(CFA_XSP16, literal(-2)))
        CFI (cfiCond300) DPH0 load(1, XDATA, add(CFA_XSP16, literal(-1)))
        CFI (cfiCond300) CFA_SP SP+0
        CFI (cfiCond300) CFA_XSP16 add(XSP16, 33)
        CFI Block cfiCond301 Using cfiCommon0
        CFI (cfiCond301) NoFunction
        CFI (cfiCond301) Conditional ??CrossCallReturnLabel_159, ??CrossCallReturnLabel_10
        CFI (cfiCond301) R6 load(1, XDATA, add(CFA_XSP16, literal(-20)))
        CFI (cfiCond301) VB load(1, XDATA, add(CFA_XSP16, literal(-19)))
        CFI (cfiCond301) V0 load(1, XDATA, add(CFA_XSP16, literal(-18)))
        CFI (cfiCond301) V1 load(1, XDATA, add(CFA_XSP16, literal(-17)))
        CFI (cfiCond301) V2 load(1, XDATA, add(CFA_XSP16, literal(-16)))
        CFI (cfiCond301) V3 load(1, XDATA, add(CFA_XSP16, literal(-15)))
        CFI (cfiCond301) V4 load(1, XDATA, add(CFA_XSP16, literal(-14)))
        CFI (cfiCond301) V5 load(1, XDATA, add(CFA_XSP16, literal(-13)))
        CFI (cfiCond301) V6 load(1, XDATA, add(CFA_XSP16, literal(-12)))
        CFI (cfiCond301) V7 load(1, XDATA, add(CFA_XSP16, literal(-11)))
        CFI (cfiCond301) V8 load(1, XDATA, add(CFA_XSP16, literal(-10)))
        CFI (cfiCond301) V9 load(1, XDATA, add(CFA_XSP16, literal(-9)))
        CFI (cfiCond301) V10 load(1, XDATA, add(CFA_XSP16, literal(-8)))
        CFI (cfiCond301) V11 load(1, XDATA, add(CFA_XSP16, literal(-7)))
        CFI (cfiCond301) R7 load(1, XDATA, add(CFA_XSP16, literal(-6)))
        CFI (cfiCond301) ?RET_LOW load(1, XDATA, add(CFA_XSP16, literal(-5)))
        CFI (cfiCond301) ?RET_HIGH load(1, XDATA, add(CFA_XSP16, literal(-4)))
        CFI (cfiCond301) ?BRET_EXT load(1, XDATA, add(CFA_XSP16, literal(-3)))
        CFI (cfiCond301) DPL0 load(1, XDATA, add(CFA_XSP16, literal(-2)))
        CFI (cfiCond301) DPH0 load(1, XDATA, add(CFA_XSP16, literal(-1)))
        CFI (cfiCond301) CFA_SP SP+0
        CFI (cfiCond301) CFA_XSP16 add(XSP16, 33)
        CFI Block cfiCond302 Using cfiCommon0
        CFI (cfiCond302) NoFunction
        CFI (cfiCond302) Conditional ??CrossCallReturnLabel_158, ??CrossCallReturnLabel_5
        CFI (cfiCond302) R6 load(1, XDATA, add(CFA_XSP16, literal(-20)))
        CFI (cfiCond302) VB load(1, XDATA, add(CFA_XSP16, literal(-19)))
        CFI (cfiCond302) V0 load(1, XDATA, add(CFA_XSP16, literal(-18)))
        CFI (cfiCond302) V1 load(1, XDATA, add(CFA_XSP16, literal(-17)))
        CFI (cfiCond302) V2 load(1, XDATA, add(CFA_XSP16, literal(-16)))
        CFI (cfiCond302) V3 load(1, XDATA, add(CFA_XSP16, literal(-15)))
        CFI (cfiCond302) V4 load(1, XDATA, add(CFA_XSP16, literal(-14)))
        CFI (cfiCond302) V5 load(1, XDATA, add(CFA_XSP16, literal(-13)))
        CFI (cfiCond302) V6 load(1, XDATA, add(CFA_XSP16, literal(-12)))
        CFI (cfiCond302) V7 load(1, XDATA, add(CFA_XSP16, literal(-11)))
        CFI (cfiCond302) V8 load(1, XDATA, add(CFA_XSP16, literal(-10)))
        CFI (cfiCond302) V9 load(1, XDATA, add(CFA_XSP16, literal(-9)))
        CFI (cfiCond302) V10 load(1, XDATA, add(CFA_XSP16, literal(-8)))
        CFI (cfiCond302) V11 load(1, XDATA, add(CFA_XSP16, literal(-7)))
        CFI (cfiCond302) R7 load(1, XDATA, add(CFA_XSP16, literal(-6)))
        CFI (cfiCond302) ?RET_LOW load(1, XDATA, add(CFA_XSP16, literal(-5)))
        CFI (cfiCond302) ?RET_HIGH load(1, XDATA, add(CFA_XSP16, literal(-4)))
        CFI (cfiCond302) ?BRET_EXT load(1, XDATA, add(CFA_XSP16, literal(-3)))
        CFI (cfiCond302) DPL0 load(1, XDATA, add(CFA_XSP16, literal(-2)))
        CFI (cfiCond302) DPH0 load(1, XDATA, add(CFA_XSP16, literal(-1)))
        CFI (cfiCond302) CFA_SP SP+0
        CFI (cfiCond302) CFA_XSP16 add(XSP16, 33)
        CFI Block cfiCond303 Using cfiCommon0
        CFI (cfiCond303) NoFunction
        CFI (cfiCond303) Conditional ??CrossCallReturnLabel_158, ??CrossCallReturnLabel_6
        CFI (cfiCond303) R6 load(1, XDATA, add(CFA_XSP16, literal(-20)))
        CFI (cfiCond303) VB load(1, XDATA, add(CFA_XSP16, literal(-19)))
        CFI (cfiCond303) V0 load(1, XDATA, add(CFA_XSP16, literal(-18)))
        CFI (cfiCond303) V1 load(1, XDATA, add(CFA_XSP16, literal(-17)))
        CFI (cfiCond303) V2 load(1, XDATA, add(CFA_XSP16, literal(-16)))
        CFI (cfiCond303) V3 load(1, XDATA, add(CFA_XSP16, literal(-15)))
        CFI (cfiCond303) V4 load(1, XDATA, add(CFA_XSP16, literal(-14)))
        CFI (cfiCond303) V5 load(1, XDATA, add(CFA_XSP16, literal(-13)))
        CFI (cfiCond303) V6 load(1, XDATA, add(CFA_XSP16, literal(-12)))
        CFI (cfiCond303) V7 load(1, XDATA, add(CFA_XSP16, literal(-11)))
        CFI (cfiCond303) V8 load(1, XDATA, add(CFA_XSP16, literal(-10)))
        CFI (cfiCond303) V9 load(1, XDATA, add(CFA_XSP16, literal(-9)))
        CFI (cfiCond303) V10 load(1, XDATA, add(CFA_XSP16, literal(-8)))
        CFI (cfiCond303) V11 load(1, XDATA, add(CFA_XSP16, literal(-7)))
        CFI (cfiCond303) R7 load(1, XDATA, add(CFA_XSP16, literal(-6)))
        CFI (cfiCond303) ?RET_LOW load(1, XDATA, add(CFA_XSP16, literal(-5)))
        CFI (cfiCond303) ?RET_HIGH load(1, XDATA, add(CFA_XSP16, literal(-4)))
        CFI (cfiCond303) ?BRET_EXT load(1, XDATA, add(CFA_XSP16, literal(-3)))
        CFI (cfiCond303) DPL0 load(1, XDATA, add(CFA_XSP16, literal(-2)))
        CFI (cfiCond303) DPH0 load(1, XDATA, add(CFA_XSP16, literal(-1)))
        CFI (cfiCond303) CFA_SP SP+0
        CFI (cfiCond303) CFA_XSP16 add(XSP16, 33)
        CFI Block cfiCond304 Using cfiCommon0
        CFI (cfiCond304) NoFunction
        CFI (cfiCond304) Conditional ??CrossCallReturnLabel_158, ??CrossCallReturnLabel_7
        CFI (cfiCond304) R6 load(1, XDATA, add(CFA_XSP16, literal(-20)))
        CFI (cfiCond304) VB load(1, XDATA, add(CFA_XSP16, literal(-19)))
        CFI (cfiCond304) V0 load(1, XDATA, add(CFA_XSP16, literal(-18)))
        CFI (cfiCond304) V1 load(1, XDATA, add(CFA_XSP16, literal(-17)))
        CFI (cfiCond304) V2 load(1, XDATA, add(CFA_XSP16, literal(-16)))
        CFI (cfiCond304) V3 load(1, XDATA, add(CFA_XSP16, literal(-15)))
        CFI (cfiCond304) V4 load(1, XDATA, add(CFA_XSP16, literal(-14)))
        CFI (cfiCond304) V5 load(1, XDATA, add(CFA_XSP16, literal(-13)))
        CFI (cfiCond304) V6 load(1, XDATA, add(CFA_XSP16, literal(-12)))
        CFI (cfiCond304) V7 load(1, XDATA, add(CFA_XSP16, literal(-11)))
        CFI (cfiCond304) V8 load(1, XDATA, add(CFA_XSP16, literal(-10)))
        CFI (cfiCond304) V9 load(1, XDATA, add(CFA_XSP16, literal(-9)))
        CFI (cfiCond304) V10 load(1, XDATA, add(CFA_XSP16, literal(-8)))
        CFI (cfiCond304) V11 load(1, XDATA, add(CFA_XSP16, literal(-7)))
        CFI (cfiCond304) R7 load(1, XDATA, add(CFA_XSP16, literal(-6)))
        CFI (cfiCond304) ?RET_LOW load(1, XDATA, add(CFA_XSP16, literal(-5)))
        CFI (cfiCond304) ?RET_HIGH load(1, XDATA, add(CFA_XSP16, literal(-4)))
        CFI (cfiCond304) ?BRET_EXT load(1, XDATA, add(CFA_XSP16, literal(-3)))
        CFI (cfiCond304) DPL0 load(1, XDATA, add(CFA_XSP16, literal(-2)))
        CFI (cfiCond304) DPH0 load(1, XDATA, add(CFA_XSP16, literal(-1)))
        CFI (cfiCond304) CFA_SP SP+0
        CFI (cfiCond304) CFA_XSP16 add(XSP16, 33)
        CFI Block cfiCond305 Using cfiCommon0
        CFI (cfiCond305) NoFunction
        CFI (cfiCond305) Conditional ??CrossCallReturnLabel_157, ??CrossCallReturnLabel_2
        CFI (cfiCond305) R6 load(1, XDATA, add(CFA_XSP16, literal(-20)))
        CFI (cfiCond305) VB load(1, XDATA, add(CFA_XSP16, literal(-19)))
        CFI (cfiCond305) V0 load(1, XDATA, add(CFA_XSP16, literal(-18)))
        CFI (cfiCond305) V1 load(1, XDATA, add(CFA_XSP16, literal(-17)))
        CFI (cfiCond305) V2 load(1, XDATA, add(CFA_XSP16, literal(-16)))
        CFI (cfiCond305) V3 load(1, XDATA, add(CFA_XSP16, literal(-15)))
        CFI (cfiCond305) V4 load(1, XDATA, add(CFA_XSP16, literal(-14)))
        CFI (cfiCond305) V5 load(1, XDATA, add(CFA_XSP16, literal(-13)))
        CFI (cfiCond305) V6 load(1, XDATA, add(CFA_XSP16, literal(-12)))
        CFI (cfiCond305) V7 load(1, XDATA, add(CFA_XSP16, literal(-11)))
        CFI (cfiCond305) V8 load(1, XDATA, add(CFA_XSP16, literal(-10)))
        CFI (cfiCond305) V9 load(1, XDATA, add(CFA_XSP16, literal(-9)))
        CFI (cfiCond305) V10 load(1, XDATA, add(CFA_XSP16, literal(-8)))
        CFI (cfiCond305) V11 load(1, XDATA, add(CFA_XSP16, literal(-7)))
        CFI (cfiCond305) R7 load(1, XDATA, add(CFA_XSP16, literal(-6)))
        CFI (cfiCond305) ?RET_LOW load(1, XDATA, add(CFA_XSP16, literal(-5)))
        CFI (cfiCond305) ?RET_HIGH load(1, XDATA, add(CFA_XSP16, literal(-4)))
        CFI (cfiCond305) ?BRET_EXT load(1, XDATA, add(CFA_XSP16, literal(-3)))
        CFI (cfiCond305) DPL0 load(1, XDATA, add(CFA_XSP16, literal(-2)))
        CFI (cfiCond305) DPH0 load(1, XDATA, add(CFA_XSP16, literal(-1)))
        CFI (cfiCond305) CFA_SP SP+0
        CFI (cfiCond305) CFA_XSP16 add(XSP16, 33)
        CFI Block cfiCond306 Using cfiCommon0
        CFI (cfiCond306) NoFunction
        CFI (cfiCond306) Conditional ??CrossCallReturnLabel_157, ??CrossCallReturnLabel_3
        CFI (cfiCond306) R6 load(1, XDATA, add(CFA_XSP16, literal(-20)))
        CFI (cfiCond306) VB load(1, XDATA, add(CFA_XSP16, literal(-19)))
        CFI (cfiCond306) V0 load(1, XDATA, add(CFA_XSP16, literal(-18)))
        CFI (cfiCond306) V1 load(1, XDATA, add(CFA_XSP16, literal(-17)))
        CFI (cfiCond306) V2 load(1, XDATA, add(CFA_XSP16, literal(-16)))
        CFI (cfiCond306) V3 load(1, XDATA, add(CFA_XSP16, literal(-15)))
        CFI (cfiCond306) V4 load(1, XDATA, add(CFA_XSP16, literal(-14)))
        CFI (cfiCond306) V5 load(1, XDATA, add(CFA_XSP16, literal(-13)))
        CFI (cfiCond306) V6 load(1, XDATA, add(CFA_XSP16, literal(-12)))
        CFI (cfiCond306) V7 load(1, XDATA, add(CFA_XSP16, literal(-11)))
        CFI (cfiCond306) V8 load(1, XDATA, add(CFA_XSP16, literal(-10)))
        CFI (cfiCond306) V9 load(1, XDATA, add(CFA_XSP16, literal(-9)))
        CFI (cfiCond306) V10 load(1, XDATA, add(CFA_XSP16, literal(-8)))
        CFI (cfiCond306) V11 load(1, XDATA, add(CFA_XSP16, literal(-7)))
        CFI (cfiCond306) R7 load(1, XDATA, add(CFA_XSP16, literal(-6)))
        CFI (cfiCond306) ?RET_LOW load(1, XDATA, add(CFA_XSP16, literal(-5)))
        CFI (cfiCond306) ?RET_HIGH load(1, XDATA, add(CFA_XSP16, literal(-4)))
        CFI (cfiCond306) ?BRET_EXT load(1, XDATA, add(CFA_XSP16, literal(-3)))
        CFI (cfiCond306) DPL0 load(1, XDATA, add(CFA_XSP16, literal(-2)))
        CFI (cfiCond306) DPH0 load(1, XDATA, add(CFA_XSP16, literal(-1)))
        CFI (cfiCond306) CFA_SP SP+0
        CFI (cfiCond306) CFA_XSP16 add(XSP16, 33)
        CFI Block cfiCond307 Using cfiCommon0
        CFI (cfiCond307) NoFunction
        CFI (cfiCond307) Conditional ??CrossCallReturnLabel_157, ??CrossCallReturnLabel_4
        CFI (cfiCond307) R6 load(1, XDATA, add(CFA_XSP16, literal(-20)))
        CFI (cfiCond307) VB load(1, XDATA, add(CFA_XSP16, literal(-19)))
        CFI (cfiCond307) V0 load(1, XDATA, add(CFA_XSP16, literal(-18)))
        CFI (cfiCond307) V1 load(1, XDATA, add(CFA_XSP16, literal(-17)))
        CFI (cfiCond307) V2 load(1, XDATA, add(CFA_XSP16, literal(-16)))
        CFI (cfiCond307) V3 load(1, XDATA, add(CFA_XSP16, literal(-15)))
        CFI (cfiCond307) V4 load(1, XDATA, add(CFA_XSP16, literal(-14)))
        CFI (cfiCond307) V5 load(1, XDATA, add(CFA_XSP16, literal(-13)))
        CFI (cfiCond307) V6 load(1, XDATA, add(CFA_XSP16, literal(-12)))
        CFI (cfiCond307) V7 load(1, XDATA, add(CFA_XSP16, literal(-11)))
        CFI (cfiCond307) V8 load(1, XDATA, add(CFA_XSP16, literal(-10)))
        CFI (cfiCond307) V9 load(1, XDATA, add(CFA_XSP16, literal(-9)))
        CFI (cfiCond307) V10 load(1, XDATA, add(CFA_XSP16, literal(-8)))
        CFI (cfiCond307) V11 load(1, XDATA, add(CFA_XSP16, literal(-7)))
        CFI (cfiCond307) R7 load(1, XDATA, add(CFA_XSP16, literal(-6)))
        CFI (cfiCond307) ?RET_LOW load(1, XDATA, add(CFA_XSP16, literal(-5)))
        CFI (cfiCond307) ?RET_HIGH load(1, XDATA, add(CFA_XSP16, literal(-4)))
        CFI (cfiCond307) ?BRET_EXT load(1, XDATA, add(CFA_XSP16, literal(-3)))
        CFI (cfiCond307) DPL0 load(1, XDATA, add(CFA_XSP16, literal(-2)))
        CFI (cfiCond307) DPH0 load(1, XDATA, add(CFA_XSP16, literal(-1)))
        CFI (cfiCond307) CFA_SP SP+0
        CFI (cfiCond307) CFA_XSP16 add(XSP16, 33)
        CFI Block cfiPicker308 Using cfiCommon1
        CFI (cfiPicker308) NoFunction
        CFI (cfiPicker308) Picker
        LCALL   ?Subroutine60 & 0xFFFF
        CFI EndBlock cfiCond299
        CFI EndBlock cfiCond300
        CFI EndBlock cfiCond301
        CFI EndBlock cfiCond302
        CFI EndBlock cfiCond303
        CFI EndBlock cfiCond304
        CFI EndBlock cfiCond305
        CFI EndBlock cfiCond306
        CFI EndBlock cfiCond307
        CFI EndBlock cfiPicker308
??CrossCallReturnLabel_93:
        REQUIRE ??Subroutine74_0
        ; // Fall through to label ??Subroutine74_0

        RSEG BANKED_CODE:CODE:NOROOT(0)
??Subroutine74_0:
        CFI Block cfiCond309 Using cfiCommon0
        CFI NoFunction
        CFI Conditional ??CrossCallReturnLabel_156, ??CrossCallReturnLabel_31
        CFI R6 load(1, XDATA, add(CFA_XSP16, literal(-20)))
        CFI VB load(1, XDATA, add(CFA_XSP16, literal(-19)))
        CFI V0 load(1, XDATA, add(CFA_XSP16, literal(-18)))
        CFI V1 load(1, XDATA, add(CFA_XSP16, literal(-17)))
        CFI V2 load(1, XDATA, add(CFA_XSP16, literal(-16)))
        CFI V3 load(1, XDATA, add(CFA_XSP16, literal(-15)))
        CFI V4 load(1, XDATA, add(CFA_XSP16, literal(-14)))
        CFI V5 load(1, XDATA, add(CFA_XSP16, literal(-13)))
        CFI V6 load(1, XDATA, add(CFA_XSP16, literal(-12)))
        CFI V7 load(1, XDATA, add(CFA_XSP16, literal(-11)))
        CFI V8 load(1, XDATA, add(CFA_XSP16, literal(-10)))
        CFI V9 load(1, XDATA, add(CFA_XSP16, literal(-9)))
        CFI V10 load(1, XDATA, add(CFA_XSP16, literal(-8)))
        CFI V11 load(1, XDATA, add(CFA_XSP16, literal(-7)))
        CFI R7 load(1, XDATA, add(CFA_XSP16, literal(-6)))
        CFI ?RET_LOW load(1, XDATA, add(CFA_XSP16, literal(-5)))
        CFI ?RET_HIGH load(1, XDATA, add(CFA_XSP16, literal(-4)))
        CFI ?BRET_EXT load(1, XDATA, add(CFA_XSP16, literal(-3)))
        CFI DPL0 load(1, XDATA, add(CFA_XSP16, literal(-2)))
        CFI DPH0 load(1, XDATA, add(CFA_XSP16, literal(-1)))
        CFI CFA_SP SP+0
        CFI CFA_XSP16 add(XSP16, 33)
        CFI Block cfiCond310 Using cfiCommon0
        CFI (cfiCond310) NoFunction
        CFI (cfiCond310) Conditional ??CrossCallReturnLabel_156, ??CrossCallReturnLabel_32
        CFI (cfiCond310) R6 load(1, XDATA, add(CFA_XSP16, literal(-20)))
        CFI (cfiCond310) VB load(1, XDATA, add(CFA_XSP16, literal(-19)))
        CFI (cfiCond310) V0 load(1, XDATA, add(CFA_XSP16, literal(-18)))
        CFI (cfiCond310) V1 load(1, XDATA, add(CFA_XSP16, literal(-17)))
        CFI (cfiCond310) V2 load(1, XDATA, add(CFA_XSP16, literal(-16)))
        CFI (cfiCond310) V3 load(1, XDATA, add(CFA_XSP16, literal(-15)))
        CFI (cfiCond310) V4 load(1, XDATA, add(CFA_XSP16, literal(-14)))
        CFI (cfiCond310) V5 load(1, XDATA, add(CFA_XSP16, literal(-13)))
        CFI (cfiCond310) V6 load(1, XDATA, add(CFA_XSP16, literal(-12)))
        CFI (cfiCond310) V7 load(1, XDATA, add(CFA_XSP16, literal(-11)))
        CFI (cfiCond310) V8 load(1, XDATA, add(CFA_XSP16, literal(-10)))
        CFI (cfiCond310) V9 load(1, XDATA, add(CFA_XSP16, literal(-9)))
        CFI (cfiCond310) V10 load(1, XDATA, add(CFA_XSP16, literal(-8)))
        CFI (cfiCond310) V11 load(1, XDATA, add(CFA_XSP16, literal(-7)))
        CFI (cfiCond310) R7 load(1, XDATA, add(CFA_XSP16, literal(-6)))
        CFI (cfiCond310) ?RET_LOW load(1, XDATA, add(CFA_XSP16, literal(-5)))
        CFI (cfiCond310) ?RET_HIGH load(1, XDATA, add(CFA_XSP16, literal(-4)))
        CFI (cfiCond310) ?BRET_EXT load(1, XDATA, add(CFA_XSP16, literal(-3)))
        CFI (cfiCond310) DPL0 load(1, XDATA, add(CFA_XSP16, literal(-2)))
        CFI (cfiCond310) DPH0 load(1, XDATA, add(CFA_XSP16, literal(-1)))
        CFI (cfiCond310) CFA_SP SP+0
        CFI (cfiCond310) CFA_XSP16 add(XSP16, 33)
        CFI Block cfiCond311 Using cfiCommon0
        CFI (cfiCond311) NoFunction
        CFI (cfiCond311) Conditional ??CrossCallReturnLabel_159, ??CrossCallReturnLabel_8
        CFI (cfiCond311) R6 load(1, XDATA, add(CFA_XSP16, literal(-20)))
        CFI (cfiCond311) VB load(1, XDATA, add(CFA_XSP16, literal(-19)))
        CFI (cfiCond311) V0 load(1, XDATA, add(CFA_XSP16, literal(-18)))
        CFI (cfiCond311) V1 load(1, XDATA, add(CFA_XSP16, literal(-17)))
        CFI (cfiCond311) V2 load(1, XDATA, add(CFA_XSP16, literal(-16)))
        CFI (cfiCond311) V3 load(1, XDATA, add(CFA_XSP16, literal(-15)))
        CFI (cfiCond311) V4 load(1, XDATA, add(CFA_XSP16, literal(-14)))
        CFI (cfiCond311) V5 load(1, XDATA, add(CFA_XSP16, literal(-13)))
        CFI (cfiCond311) V6 load(1, XDATA, add(CFA_XSP16, literal(-12)))
        CFI (cfiCond311) V7 load(1, XDATA, add(CFA_XSP16, literal(-11)))
        CFI (cfiCond311) V8 load(1, XDATA, add(CFA_XSP16, literal(-10)))
        CFI (cfiCond311) V9 load(1, XDATA, add(CFA_XSP16, literal(-9)))
        CFI (cfiCond311) V10 load(1, XDATA, add(CFA_XSP16, literal(-8)))
        CFI (cfiCond311) V11 load(1, XDATA, add(CFA_XSP16, literal(-7)))
        CFI (cfiCond311) R7 load(1, XDATA, add(CFA_XSP16, literal(-6)))
        CFI (cfiCond311) ?RET_LOW load(1, XDATA, add(CFA_XSP16, literal(-5)))
        CFI (cfiCond311) ?RET_HIGH load(1, XDATA, add(CFA_XSP16, literal(-4)))
        CFI (cfiCond311) ?BRET_EXT load(1, XDATA, add(CFA_XSP16, literal(-3)))
        CFI (cfiCond311) DPL0 load(1, XDATA, add(CFA_XSP16, literal(-2)))
        CFI (cfiCond311) DPH0 load(1, XDATA, add(CFA_XSP16, literal(-1)))
        CFI (cfiCond311) CFA_SP SP+0
        CFI (cfiCond311) CFA_XSP16 add(XSP16, 33)
        CFI Block cfiCond312 Using cfiCommon0
        CFI (cfiCond312) NoFunction
        CFI (cfiCond312) Conditional ??CrossCallReturnLabel_159, ??CrossCallReturnLabel_9
        CFI (cfiCond312) R6 load(1, XDATA, add(CFA_XSP16, literal(-20)))
        CFI (cfiCond312) VB load(1, XDATA, add(CFA_XSP16, literal(-19)))
        CFI (cfiCond312) V0 load(1, XDATA, add(CFA_XSP16, literal(-18)))
        CFI (cfiCond312) V1 load(1, XDATA, add(CFA_XSP16, literal(-17)))
        CFI (cfiCond312) V2 load(1, XDATA, add(CFA_XSP16, literal(-16)))
        CFI (cfiCond312) V3 load(1, XDATA, add(CFA_XSP16, literal(-15)))
        CFI (cfiCond312) V4 load(1, XDATA, add(CFA_XSP16, literal(-14)))
        CFI (cfiCond312) V5 load(1, XDATA, add(CFA_XSP16, literal(-13)))
        CFI (cfiCond312) V6 load(1, XDATA, add(CFA_XSP16, literal(-12)))
        CFI (cfiCond312) V7 load(1, XDATA, add(CFA_XSP16, literal(-11)))
        CFI (cfiCond312) V8 load(1, XDATA, add(CFA_XSP16, literal(-10)))
        CFI (cfiCond312) V9 load(1, XDATA, add(CFA_XSP16, literal(-9)))
        CFI (cfiCond312) V10 load(1, XDATA, add(CFA_XSP16, literal(-8)))
        CFI (cfiCond312) V11 load(1, XDATA, add(CFA_XSP16, literal(-7)))
        CFI (cfiCond312) R7 load(1, XDATA, add(CFA_XSP16, literal(-6)))
        CFI (cfiCond312) ?RET_LOW load(1, XDATA, add(CFA_XSP16, literal(-5)))
        CFI (cfiCond312) ?RET_HIGH load(1, XDATA, add(CFA_XSP16, literal(-4)))
        CFI (cfiCond312) ?BRET_EXT load(1, XDATA, add(CFA_XSP16, literal(-3)))
        CFI (cfiCond312) DPL0 load(1, XDATA, add(CFA_XSP16, literal(-2)))
        CFI (cfiCond312) DPH0 load(1, XDATA, add(CFA_XSP16, literal(-1)))
        CFI (cfiCond312) CFA_SP SP+0
        CFI (cfiCond312) CFA_XSP16 add(XSP16, 33)
        CFI Block cfiCond313 Using cfiCommon0
        CFI (cfiCond313) NoFunction
        CFI (cfiCond313) Conditional ??CrossCallReturnLabel_159, ??CrossCallReturnLabel_10
        CFI (cfiCond313) R6 load(1, XDATA, add(CFA_XSP16, literal(-20)))
        CFI (cfiCond313) VB load(1, XDATA, add(CFA_XSP16, literal(-19)))
        CFI (cfiCond313) V0 load(1, XDATA, add(CFA_XSP16, literal(-18)))
        CFI (cfiCond313) V1 load(1, XDATA, add(CFA_XSP16, literal(-17)))
        CFI (cfiCond313) V2 load(1, XDATA, add(CFA_XSP16, literal(-16)))
        CFI (cfiCond313) V3 load(1, XDATA, add(CFA_XSP16, literal(-15)))
        CFI (cfiCond313) V4 load(1, XDATA, add(CFA_XSP16, literal(-14)))
        CFI (cfiCond313) V5 load(1, XDATA, add(CFA_XSP16, literal(-13)))
        CFI (cfiCond313) V6 load(1, XDATA, add(CFA_XSP16, literal(-12)))
        CFI (cfiCond313) V7 load(1, XDATA, add(CFA_XSP16, literal(-11)))
        CFI (cfiCond313) V8 load(1, XDATA, add(CFA_XSP16, literal(-10)))
        CFI (cfiCond313) V9 load(1, XDATA, add(CFA_XSP16, literal(-9)))
        CFI (cfiCond313) V10 load(1, XDATA, add(CFA_XSP16, literal(-8)))
        CFI (cfiCond313) V11 load(1, XDATA, add(CFA_XSP16, literal(-7)))
        CFI (cfiCond313) R7 load(1, XDATA, add(CFA_XSP16, literal(-6)))
        CFI (cfiCond313) ?RET_LOW load(1, XDATA, add(CFA_XSP16, literal(-5)))
        CFI (cfiCond313) ?RET_HIGH load(1, XDATA, add(CFA_XSP16, literal(-4)))
        CFI (cfiCond313) ?BRET_EXT load(1, XDATA, add(CFA_XSP16, literal(-3)))
        CFI (cfiCond313) DPL0 load(1, XDATA, add(CFA_XSP16, literal(-2)))
        CFI (cfiCond313) DPH0 load(1, XDATA, add(CFA_XSP16, literal(-1)))
        CFI (cfiCond313) CFA_SP SP+0
        CFI (cfiCond313) CFA_XSP16 add(XSP16, 33)
        CFI Block cfiCond314 Using cfiCommon0
        CFI (cfiCond314) NoFunction
        CFI (cfiCond314) Conditional ??CrossCallReturnLabel_158, ??CrossCallReturnLabel_5
        CFI (cfiCond314) R6 load(1, XDATA, add(CFA_XSP16, literal(-20)))
        CFI (cfiCond314) VB load(1, XDATA, add(CFA_XSP16, literal(-19)))
        CFI (cfiCond314) V0 load(1, XDATA, add(CFA_XSP16, literal(-18)))
        CFI (cfiCond314) V1 load(1, XDATA, add(CFA_XSP16, literal(-17)))
        CFI (cfiCond314) V2 load(1, XDATA, add(CFA_XSP16, literal(-16)))
        CFI (cfiCond314) V3 load(1, XDATA, add(CFA_XSP16, literal(-15)))
        CFI (cfiCond314) V4 load(1, XDATA, add(CFA_XSP16, literal(-14)))
        CFI (cfiCond314) V5 load(1, XDATA, add(CFA_XSP16, literal(-13)))
        CFI (cfiCond314) V6 load(1, XDATA, add(CFA_XSP16, literal(-12)))
        CFI (cfiCond314) V7 load(1, XDATA, add(CFA_XSP16, literal(-11)))
        CFI (cfiCond314) V8 load(1, XDATA, add(CFA_XSP16, literal(-10)))
        CFI (cfiCond314) V9 load(1, XDATA, add(CFA_XSP16, literal(-9)))
        CFI (cfiCond314) V10 load(1, XDATA, add(CFA_XSP16, literal(-8)))
        CFI (cfiCond314) V11 load(1, XDATA, add(CFA_XSP16, literal(-7)))
        CFI (cfiCond314) R7 load(1, XDATA, add(CFA_XSP16, literal(-6)))
        CFI (cfiCond314) ?RET_LOW load(1, XDATA, add(CFA_XSP16, literal(-5)))
        CFI (cfiCond314) ?RET_HIGH load(1, XDATA, add(CFA_XSP16, literal(-4)))
        CFI (cfiCond314) ?BRET_EXT load(1, XDATA, add(CFA_XSP16, literal(-3)))
        CFI (cfiCond314) DPL0 load(1, XDATA, add(CFA_XSP16, literal(-2)))
        CFI (cfiCond314) DPH0 load(1, XDATA, add(CFA_XSP16, literal(-1)))
        CFI (cfiCond314) CFA_SP SP+0
        CFI (cfiCond314) CFA_XSP16 add(XSP16, 33)
        CFI Block cfiCond315 Using cfiCommon0
        CFI (cfiCond315) NoFunction
        CFI (cfiCond315) Conditional ??CrossCallReturnLabel_158, ??CrossCallReturnLabel_6
        CFI (cfiCond315) R6 load(1, XDATA, add(CFA_XSP16, literal(-20)))
        CFI (cfiCond315) VB load(1, XDATA, add(CFA_XSP16, literal(-19)))
        CFI (cfiCond315) V0 load(1, XDATA, add(CFA_XSP16, literal(-18)))
        CFI (cfiCond315) V1 load(1, XDATA, add(CFA_XSP16, literal(-17)))
        CFI (cfiCond315) V2 load(1, XDATA, add(CFA_XSP16, literal(-16)))
        CFI (cfiCond315) V3 load(1, XDATA, add(CFA_XSP16, literal(-15)))
        CFI (cfiCond315) V4 load(1, XDATA, add(CFA_XSP16, literal(-14)))
        CFI (cfiCond315) V5 load(1, XDATA, add(CFA_XSP16, literal(-13)))
        CFI (cfiCond315) V6 load(1, XDATA, add(CFA_XSP16, literal(-12)))
        CFI (cfiCond315) V7 load(1, XDATA, add(CFA_XSP16, literal(-11)))
        CFI (cfiCond315) V8 load(1, XDATA, add(CFA_XSP16, literal(-10)))
        CFI (cfiCond315) V9 load(1, XDATA, add(CFA_XSP16, literal(-9)))
        CFI (cfiCond315) V10 load(1, XDATA, add(CFA_XSP16, literal(-8)))
        CFI (cfiCond315) V11 load(1, XDATA, add(CFA_XSP16, literal(-7)))
        CFI (cfiCond315) R7 load(1, XDATA, add(CFA_XSP16, literal(-6)))
        CFI (cfiCond315) ?RET_LOW load(1, XDATA, add(CFA_XSP16, literal(-5)))
        CFI (cfiCond315) ?RET_HIGH load(1, XDATA, add(CFA_XSP16, literal(-4)))
        CFI (cfiCond315) ?BRET_EXT load(1, XDATA, add(CFA_XSP16, literal(-3)))
        CFI (cfiCond315) DPL0 load(1, XDATA, add(CFA_XSP16, literal(-2)))
        CFI (cfiCond315) DPH0 load(1, XDATA, add(CFA_XSP16, literal(-1)))
        CFI (cfiCond315) CFA_SP SP+0
        CFI (cfiCond315) CFA_XSP16 add(XSP16, 33)
        CFI Block cfiCond316 Using cfiCommon0
        CFI (cfiCond316) NoFunction
        CFI (cfiCond316) Conditional ??CrossCallReturnLabel_158, ??CrossCallReturnLabel_7
        CFI (cfiCond316) R6 load(1, XDATA, add(CFA_XSP16, literal(-20)))
        CFI (cfiCond316) VB load(1, XDATA, add(CFA_XSP16, literal(-19)))
        CFI (cfiCond316) V0 load(1, XDATA, add(CFA_XSP16, literal(-18)))
        CFI (cfiCond316) V1 load(1, XDATA, add(CFA_XSP16, literal(-17)))
        CFI (cfiCond316) V2 load(1, XDATA, add(CFA_XSP16, literal(-16)))
        CFI (cfiCond316) V3 load(1, XDATA, add(CFA_XSP16, literal(-15)))
        CFI (cfiCond316) V4 load(1, XDATA, add(CFA_XSP16, literal(-14)))
        CFI (cfiCond316) V5 load(1, XDATA, add(CFA_XSP16, literal(-13)))
        CFI (cfiCond316) V6 load(1, XDATA, add(CFA_XSP16, literal(-12)))
        CFI (cfiCond316) V7 load(1, XDATA, add(CFA_XSP16, literal(-11)))
        CFI (cfiCond316) V8 load(1, XDATA, add(CFA_XSP16, literal(-10)))
        CFI (cfiCond316) V9 load(1, XDATA, add(CFA_XSP16, literal(-9)))
        CFI (cfiCond316) V10 load(1, XDATA, add(CFA_XSP16, literal(-8)))
        CFI (cfiCond316) V11 load(1, XDATA, add(CFA_XSP16, literal(-7)))
        CFI (cfiCond316) R7 load(1, XDATA, add(CFA_XSP16, literal(-6)))
        CFI (cfiCond316) ?RET_LOW load(1, XDATA, add(CFA_XSP16, literal(-5)))
        CFI (cfiCond316) ?RET_HIGH load(1, XDATA, add(CFA_XSP16, literal(-4)))
        CFI (cfiCond316) ?BRET_EXT load(1, XDATA, add(CFA_XSP16, literal(-3)))
        CFI (cfiCond316) DPL0 load(1, XDATA, add(CFA_XSP16, literal(-2)))
        CFI (cfiCond316) DPH0 load(1, XDATA, add(CFA_XSP16, literal(-1)))
        CFI (cfiCond316) CFA_SP SP+0
        CFI (cfiCond316) CFA_XSP16 add(XSP16, 33)
        CFI Block cfiCond317 Using cfiCommon0
        CFI (cfiCond317) NoFunction
        CFI (cfiCond317) Conditional ??CrossCallReturnLabel_157, ??CrossCallReturnLabel_2
        CFI (cfiCond317) R6 load(1, XDATA, add(CFA_XSP16, literal(-20)))
        CFI (cfiCond317) VB load(1, XDATA, add(CFA_XSP16, literal(-19)))
        CFI (cfiCond317) V0 load(1, XDATA, add(CFA_XSP16, literal(-18)))
        CFI (cfiCond317) V1 load(1, XDATA, add(CFA_XSP16, literal(-17)))
        CFI (cfiCond317) V2 load(1, XDATA, add(CFA_XSP16, literal(-16)))
        CFI (cfiCond317) V3 load(1, XDATA, add(CFA_XSP16, literal(-15)))
        CFI (cfiCond317) V4 load(1, XDATA, add(CFA_XSP16, literal(-14)))
        CFI (cfiCond317) V5 load(1, XDATA, add(CFA_XSP16, literal(-13)))
        CFI (cfiCond317) V6 load(1, XDATA, add(CFA_XSP16, literal(-12)))
        CFI (cfiCond317) V7 load(1, XDATA, add(CFA_XSP16, literal(-11)))
        CFI (cfiCond317) V8 load(1, XDATA, add(CFA_XSP16, literal(-10)))
        CFI (cfiCond317) V9 load(1, XDATA, add(CFA_XSP16, literal(-9)))
        CFI (cfiCond317) V10 load(1, XDATA, add(CFA_XSP16, literal(-8)))
        CFI (cfiCond317) V11 load(1, XDATA, add(CFA_XSP16, literal(-7)))
        CFI (cfiCond317) R7 load(1, XDATA, add(CFA_XSP16, literal(-6)))
        CFI (cfiCond317) ?RET_LOW load(1, XDATA, add(CFA_XSP16, literal(-5)))
        CFI (cfiCond317) ?RET_HIGH load(1, XDATA, add(CFA_XSP16, literal(-4)))
        CFI (cfiCond317) ?BRET_EXT load(1, XDATA, add(CFA_XSP16, literal(-3)))
        CFI (cfiCond317) DPL0 load(1, XDATA, add(CFA_XSP16, literal(-2)))
        CFI (cfiCond317) DPH0 load(1, XDATA, add(CFA_XSP16, literal(-1)))
        CFI (cfiCond317) CFA_SP SP+0
        CFI (cfiCond317) CFA_XSP16 add(XSP16, 33)
        CFI Block cfiCond318 Using cfiCommon0
        CFI (cfiCond318) NoFunction
        CFI (cfiCond318) Conditional ??CrossCallReturnLabel_157, ??CrossCallReturnLabel_3
        CFI (cfiCond318) R6 load(1, XDATA, add(CFA_XSP16, literal(-20)))
        CFI (cfiCond318) VB load(1, XDATA, add(CFA_XSP16, literal(-19)))
        CFI (cfiCond318) V0 load(1, XDATA, add(CFA_XSP16, literal(-18)))
        CFI (cfiCond318) V1 load(1, XDATA, add(CFA_XSP16, literal(-17)))
        CFI (cfiCond318) V2 load(1, XDATA, add(CFA_XSP16, literal(-16)))
        CFI (cfiCond318) V3 load(1, XDATA, add(CFA_XSP16, literal(-15)))
        CFI (cfiCond318) V4 load(1, XDATA, add(CFA_XSP16, literal(-14)))
        CFI (cfiCond318) V5 load(1, XDATA, add(CFA_XSP16, literal(-13)))
        CFI (cfiCond318) V6 load(1, XDATA, add(CFA_XSP16, literal(-12)))
        CFI (cfiCond318) V7 load(1, XDATA, add(CFA_XSP16, literal(-11)))
        CFI (cfiCond318) V8 load(1, XDATA, add(CFA_XSP16, literal(-10)))
        CFI (cfiCond318) V9 load(1, XDATA, add(CFA_XSP16, literal(-9)))
        CFI (cfiCond318) V10 load(1, XDATA, add(CFA_XSP16, literal(-8)))
        CFI (cfiCond318) V11 load(1, XDATA, add(CFA_XSP16, literal(-7)))
        CFI (cfiCond318) R7 load(1, XDATA, add(CFA_XSP16, literal(-6)))
        CFI (cfiCond318) ?RET_LOW load(1, XDATA, add(CFA_XSP16, literal(-5)))
        CFI (cfiCond318) ?RET_HIGH load(1, XDATA, add(CFA_XSP16, literal(-4)))
        CFI (cfiCond318) ?BRET_EXT load(1, XDATA, add(CFA_XSP16, literal(-3)))
        CFI (cfiCond318) DPL0 load(1, XDATA, add(CFA_XSP16, literal(-2)))
        CFI (cfiCond318) DPH0 load(1, XDATA, add(CFA_XSP16, literal(-1)))
        CFI (cfiCond318) CFA_SP SP+0
        CFI (cfiCond318) CFA_XSP16 add(XSP16, 33)
        CFI Block cfiCond319 Using cfiCommon0
        CFI (cfiCond319) NoFunction
        CFI (cfiCond319) Conditional ??CrossCallReturnLabel_157, ??CrossCallReturnLabel_4
        CFI (cfiCond319) R6 load(1, XDATA, add(CFA_XSP16, literal(-20)))
        CFI (cfiCond319) VB load(1, XDATA, add(CFA_XSP16, literal(-19)))
        CFI (cfiCond319) V0 load(1, XDATA, add(CFA_XSP16, literal(-18)))
        CFI (cfiCond319) V1 load(1, XDATA, add(CFA_XSP16, literal(-17)))
        CFI (cfiCond319) V2 load(1, XDATA, add(CFA_XSP16, literal(-16)))
        CFI (cfiCond319) V3 load(1, XDATA, add(CFA_XSP16, literal(-15)))
        CFI (cfiCond319) V4 load(1, XDATA, add(CFA_XSP16, literal(-14)))
        CFI (cfiCond319) V5 load(1, XDATA, add(CFA_XSP16, literal(-13)))
        CFI (cfiCond319) V6 load(1, XDATA, add(CFA_XSP16, literal(-12)))
        CFI (cfiCond319) V7 load(1, XDATA, add(CFA_XSP16, literal(-11)))
        CFI (cfiCond319) V8 load(1, XDATA, add(CFA_XSP16, literal(-10)))
        CFI (cfiCond319) V9 load(1, XDATA, add(CFA_XSP16, literal(-9)))
        CFI (cfiCond319) V10 load(1, XDATA, add(CFA_XSP16, literal(-8)))
        CFI (cfiCond319) V11 load(1, XDATA, add(CFA_XSP16, literal(-7)))
        CFI (cfiCond319) R7 load(1, XDATA, add(CFA_XSP16, literal(-6)))
        CFI (cfiCond319) ?RET_LOW load(1, XDATA, add(CFA_XSP16, literal(-5)))
        CFI (cfiCond319) ?RET_HIGH load(1, XDATA, add(CFA_XSP16, literal(-4)))
        CFI (cfiCond319) ?BRET_EXT load(1, XDATA, add(CFA_XSP16, literal(-3)))
        CFI (cfiCond319) DPL0 load(1, XDATA, add(CFA_XSP16, literal(-2)))
        CFI (cfiCond319) DPH0 load(1, XDATA, add(CFA_XSP16, literal(-1)))
        CFI (cfiCond319) CFA_SP SP+0
        CFI (cfiCond319) CFA_XSP16 add(XSP16, 33)
        CFI Block cfiPicker320 Using cfiCommon1
        CFI (cfiPicker320) NoFunction
        CFI (cfiPicker320) Picker
        INC     DPTR
        MOVX    A,@DPTR
        MOV     DPH,A
        MOV     DPL,R0
        INC     DPTR
        RET
        CFI EndBlock cfiCond309
        CFI EndBlock cfiCond310
        CFI EndBlock cfiCond311
        CFI EndBlock cfiCond312
        CFI EndBlock cfiCond313
        CFI EndBlock cfiCond314
        CFI EndBlock cfiCond315
        CFI EndBlock cfiCond316
        CFI EndBlock cfiCond317
        CFI EndBlock cfiCond318
        CFI EndBlock cfiCond319
        CFI EndBlock cfiPicker320

        RSEG BANKED_CODE:CODE:NOROOT(0)
?Subroutine3:
        CFI Block cfiCond321 Using cfiCommon0
        CFI NoFunction
        CFI Conditional ??CrossCallReturnLabel_2
        CFI R6 load(1, XDATA, add(CFA_XSP16, literal(-20)))
        CFI VB load(1, XDATA, add(CFA_XSP16, literal(-19)))
        CFI V0 load(1, XDATA, add(CFA_XSP16, literal(-18)))
        CFI V1 load(1, XDATA, add(CFA_XSP16, literal(-17)))
        CFI V2 load(1, XDATA, add(CFA_XSP16, literal(-16)))
        CFI V3 load(1, XDATA, add(CFA_XSP16, literal(-15)))
        CFI V4 load(1, XDATA, add(CFA_XSP16, literal(-14)))
        CFI V5 load(1, XDATA, add(CFA_XSP16, literal(-13)))
        CFI V6 load(1, XDATA, add(CFA_XSP16, literal(-12)))
        CFI V7 load(1, XDATA, add(CFA_XSP16, literal(-11)))
        CFI V8 load(1, XDATA, add(CFA_XSP16, literal(-10)))
        CFI V9 load(1, XDATA, add(CFA_XSP16, literal(-9)))
        CFI V10 load(1, XDATA, add(CFA_XSP16, literal(-8)))
        CFI V11 load(1, XDATA, add(CFA_XSP16, literal(-7)))
        CFI R7 load(1, XDATA, add(CFA_XSP16, literal(-6)))
        CFI ?RET_LOW load(1, XDATA, add(CFA_XSP16, literal(-5)))
        CFI ?RET_HIGH load(1, XDATA, add(CFA_XSP16, literal(-4)))
        CFI ?BRET_EXT load(1, XDATA, add(CFA_XSP16, literal(-3)))
        CFI DPL0 load(1, XDATA, add(CFA_XSP16, literal(-2)))
        CFI DPH0 load(1, XDATA, add(CFA_XSP16, literal(-1)))
        CFI CFA_SP SP+0
        CFI CFA_XSP16 add(XSP16, 33)
        CFI Block cfiCond322 Using cfiCommon0
        CFI (cfiCond322) NoFunction
        CFI (cfiCond322) Conditional ??CrossCallReturnLabel_3
        CFI (cfiCond322) R6 load(1, XDATA, add(CFA_XSP16, literal(-20)))
        CFI (cfiCond322) VB load(1, XDATA, add(CFA_XSP16, literal(-19)))
        CFI (cfiCond322) V0 load(1, XDATA, add(CFA_XSP16, literal(-18)))
        CFI (cfiCond322) V1 load(1, XDATA, add(CFA_XSP16, literal(-17)))
        CFI (cfiCond322) V2 load(1, XDATA, add(CFA_XSP16, literal(-16)))
        CFI (cfiCond322) V3 load(1, XDATA, add(CFA_XSP16, literal(-15)))
        CFI (cfiCond322) V4 load(1, XDATA, add(CFA_XSP16, literal(-14)))
        CFI (cfiCond322) V5 load(1, XDATA, add(CFA_XSP16, literal(-13)))
        CFI (cfiCond322) V6 load(1, XDATA, add(CFA_XSP16, literal(-12)))
        CFI (cfiCond322) V7 load(1, XDATA, add(CFA_XSP16, literal(-11)))
        CFI (cfiCond322) V8 load(1, XDATA, add(CFA_XSP16, literal(-10)))
        CFI (cfiCond322) V9 load(1, XDATA, add(CFA_XSP16, literal(-9)))
        CFI (cfiCond322) V10 load(1, XDATA, add(CFA_XSP16, literal(-8)))
        CFI (cfiCond322) V11 load(1, XDATA, add(CFA_XSP16, literal(-7)))
        CFI (cfiCond322) R7 load(1, XDATA, add(CFA_XSP16, literal(-6)))
        CFI (cfiCond322) ?RET_LOW load(1, XDATA, add(CFA_XSP16, literal(-5)))
        CFI (cfiCond322) ?RET_HIGH load(1, XDATA, add(CFA_XSP16, literal(-4)))
        CFI (cfiCond322) ?BRET_EXT load(1, XDATA, add(CFA_XSP16, literal(-3)))
        CFI (cfiCond322) DPL0 load(1, XDATA, add(CFA_XSP16, literal(-2)))
        CFI (cfiCond322) DPH0 load(1, XDATA, add(CFA_XSP16, literal(-1)))
        CFI (cfiCond322) CFA_SP SP+0
        CFI (cfiCond322) CFA_XSP16 add(XSP16, 33)
        CFI Block cfiCond323 Using cfiCommon0
        CFI (cfiCond323) NoFunction
        CFI (cfiCond323) Conditional ??CrossCallReturnLabel_4
        CFI (cfiCond323) R6 load(1, XDATA, add(CFA_XSP16, literal(-20)))
        CFI (cfiCond323) VB load(1, XDATA, add(CFA_XSP16, literal(-19)))
        CFI (cfiCond323) V0 load(1, XDATA, add(CFA_XSP16, literal(-18)))
        CFI (cfiCond323) V1 load(1, XDATA, add(CFA_XSP16, literal(-17)))
        CFI (cfiCond323) V2 load(1, XDATA, add(CFA_XSP16, literal(-16)))
        CFI (cfiCond323) V3 load(1, XDATA, add(CFA_XSP16, literal(-15)))
        CFI (cfiCond323) V4 load(1, XDATA, add(CFA_XSP16, literal(-14)))
        CFI (cfiCond323) V5 load(1, XDATA, add(CFA_XSP16, literal(-13)))
        CFI (cfiCond323) V6 load(1, XDATA, add(CFA_XSP16, literal(-12)))
        CFI (cfiCond323) V7 load(1, XDATA, add(CFA_XSP16, literal(-11)))
        CFI (cfiCond323) V8 load(1, XDATA, add(CFA_XSP16, literal(-10)))
        CFI (cfiCond323) V9 load(1, XDATA, add(CFA_XSP16, literal(-9)))
        CFI (cfiCond323) V10 load(1, XDATA, add(CFA_XSP16, literal(-8)))
        CFI (cfiCond323) V11 load(1, XDATA, add(CFA_XSP16, literal(-7)))
        CFI (cfiCond323) R7 load(1, XDATA, add(CFA_XSP16, literal(-6)))
        CFI (cfiCond323) ?RET_LOW load(1, XDATA, add(CFA_XSP16, literal(-5)))
        CFI (cfiCond323) ?RET_HIGH load(1, XDATA, add(CFA_XSP16, literal(-4)))
        CFI (cfiCond323) ?BRET_EXT load(1, XDATA, add(CFA_XSP16, literal(-3)))
        CFI (cfiCond323) DPL0 load(1, XDATA, add(CFA_XSP16, literal(-2)))
        CFI (cfiCond323) DPH0 load(1, XDATA, add(CFA_XSP16, literal(-1)))
        CFI (cfiCond323) CFA_SP SP+0
        CFI (cfiCond323) CFA_XSP16 add(XSP16, 33)
        CFI Block cfiPicker324 Using cfiCommon1
        CFI (cfiPicker324) NoFunction
        CFI (cfiPicker324) Picker
        LCALL   ?Subroutine49 & 0xFFFF
??CrossCallReturnLabel_157:
        INC     DPTR
        INC     DPTR
        MOVX    A,@DPTR
        RET
        CFI EndBlock cfiCond321
        CFI EndBlock cfiCond322
        CFI EndBlock cfiCond323
        CFI EndBlock cfiPicker324

        RSEG BANKED_CODE:CODE:NOROOT(0)
?Subroutine2:
        CFI Block cfiCond325 Using cfiCommon0
        CFI NoFunction
        CFI Conditional ??CrossCallReturnLabel_0
        CFI R6 load(1, XDATA, add(CFA_XSP16, literal(-20)))
        CFI VB load(1, XDATA, add(CFA_XSP16, literal(-19)))
        CFI V0 load(1, XDATA, add(CFA_XSP16, literal(-18)))
        CFI V1 load(1, XDATA, add(CFA_XSP16, literal(-17)))
        CFI V2 load(1, XDATA, add(CFA_XSP16, literal(-16)))
        CFI V3 load(1, XDATA, add(CFA_XSP16, literal(-15)))
        CFI V4 load(1, XDATA, add(CFA_XSP16, literal(-14)))
        CFI V5 load(1, XDATA, add(CFA_XSP16, literal(-13)))
        CFI V6 load(1, XDATA, add(CFA_XSP16, literal(-12)))
        CFI V7 load(1, XDATA, add(CFA_XSP16, literal(-11)))
        CFI V8 load(1, XDATA, add(CFA_XSP16, literal(-10)))
        CFI V9 load(1, XDATA, add(CFA_XSP16, literal(-9)))
        CFI V10 load(1, XDATA, add(CFA_XSP16, literal(-8)))
        CFI V11 load(1, XDATA, add(CFA_XSP16, literal(-7)))
        CFI R7 load(1, XDATA, add(CFA_XSP16, literal(-6)))
        CFI ?RET_LOW load(1, XDATA, add(CFA_XSP16, literal(-5)))
        CFI ?RET_HIGH load(1, XDATA, add(CFA_XSP16, literal(-4)))
        CFI ?BRET_EXT load(1, XDATA, add(CFA_XSP16, literal(-3)))
        CFI DPL0 load(1, XDATA, add(CFA_XSP16, literal(-2)))
        CFI DPH0 load(1, XDATA, add(CFA_XSP16, literal(-1)))
        CFI CFA_SP SP+0
        CFI CFA_XSP16 add(XSP16, 33)
        CFI Block cfiCond326 Using cfiCommon0
        CFI (cfiCond326) NoFunction
        CFI (cfiCond326) Conditional ??CrossCallReturnLabel_1
        CFI (cfiCond326) R6 load(1, XDATA, add(CFA_XSP16, literal(-20)))
        CFI (cfiCond326) VB load(1, XDATA, add(CFA_XSP16, literal(-19)))
        CFI (cfiCond326) V0 load(1, XDATA, add(CFA_XSP16, literal(-18)))
        CFI (cfiCond326) V1 load(1, XDATA, add(CFA_XSP16, literal(-17)))
        CFI (cfiCond326) V2 load(1, XDATA, add(CFA_XSP16, literal(-16)))
        CFI (cfiCond326) V3 load(1, XDATA, add(CFA_XSP16, literal(-15)))
        CFI (cfiCond326) V4 load(1, XDATA, add(CFA_XSP16, literal(-14)))
        CFI (cfiCond326) V5 load(1, XDATA, add(CFA_XSP16, literal(-13)))
        CFI (cfiCond326) V6 load(1, XDATA, add(CFA_XSP16, literal(-12)))
        CFI (cfiCond326) V7 load(1, XDATA, add(CFA_XSP16, literal(-11)))
        CFI (cfiCond326) V8 load(1, XDATA, add(CFA_XSP16, literal(-10)))
        CFI (cfiCond326) V9 load(1, XDATA, add(CFA_XSP16, literal(-9)))
        CFI (cfiCond326) V10 load(1, XDATA, add(CFA_XSP16, literal(-8)))
        CFI (cfiCond326) V11 load(1, XDATA, add(CFA_XSP16, literal(-7)))
        CFI (cfiCond326) R7 load(1, XDATA, add(CFA_XSP16, literal(-6)))
        CFI (cfiCond326) ?RET_LOW load(1, XDATA, add(CFA_XSP16, literal(-5)))
        CFI (cfiCond326) ?RET_HIGH load(1, XDATA, add(CFA_XSP16, literal(-4)))
        CFI (cfiCond326) ?BRET_EXT load(1, XDATA, add(CFA_XSP16, literal(-3)))
        CFI (cfiCond326) DPL0 load(1, XDATA, add(CFA_XSP16, literal(-2)))
        CFI (cfiCond326) DPH0 load(1, XDATA, add(CFA_XSP16, literal(-1)))
        CFI (cfiCond326) CFA_SP SP+0
        CFI (cfiCond326) CFA_XSP16 add(XSP16, 33)
        CFI Block cfiPicker327 Using cfiCommon1
        CFI (cfiPicker327) NoFunction
        CFI (cfiPicker327) Picker
        MOV     A,R6
        MOV     R0,A
        MOV     A,R7
        MOV     R1,A
        MOV     A,R0
        CLR     C
        RLC     A
        MOV     R0,A
        MOV     A,R1
        RLC     A
        MOV     R1,A
        LCALL   ?Subroutine46 & 0xFFFF
??CrossCallReturnLabel_72:
        LCALL   ?Subroutine58 & 0xFFFF
??CrossCallReturnLabel_90:
        LCALL   ?Subroutine43 & 0xFFFF
??CrossCallReturnLabel_160:
        MOV     R2,#`?<Constant " ">` & 0xff
        MOV     R3,#(`?<Constant " ">` >> 8) & 0xff
        MOV     R1,#0x0
        LCALL   ??HalUARTWrite?relay
        MOV     A,R6
        ADD     A,#0x1
        INC     R6
        MOV     A,R7
        ADDC    A,#0x0
        MOV     R7,A
        RET
        CFI EndBlock cfiCond325
        CFI EndBlock cfiCond326
        CFI EndBlock cfiPicker327

        RSEG BANKED_CODE:CODE:NOROOT(0)
?Subroutine58:
        CFI Block cfiCond328 Using cfiCommon0
        CFI NoFunction
        CFI Conditional ??CrossCallReturnLabel_89, ??CrossCallReturnLabel_74
        CFI R6 load(1, XDATA, add(CFA_XSP16, literal(-10)))
        CFI VB load(1, XDATA, add(CFA_XSP16, literal(-9)))
        CFI V0 load(1, XDATA, add(CFA_XSP16, literal(-8)))
        CFI V1 load(1, XDATA, add(CFA_XSP16, literal(-7)))
        CFI R7 load(1, XDATA, add(CFA_XSP16, literal(-6)))
        CFI ?RET_LOW load(1, XDATA, add(CFA_XSP16, literal(-5)))
        CFI ?RET_HIGH load(1, XDATA, add(CFA_XSP16, literal(-4)))
        CFI ?BRET_EXT load(1, XDATA, add(CFA_XSP16, literal(-3)))
        CFI DPL0 load(1, XDATA, add(CFA_XSP16, literal(-2)))
        CFI DPH0 load(1, XDATA, add(CFA_XSP16, literal(-1)))
        CFI CFA_SP SP+0
        CFI CFA_XSP16 add(XSP16, 15)
        CFI Block cfiCond329 Using cfiCommon0
        CFI (cfiCond329) NoFunction
        CFI (cfiCond329) Conditional ??CrossCallReturnLabel_89, ??CrossCallReturnLabel_75, ??CrossCallReturnLabel_29
        CFI (cfiCond329) R6 load(1, XDATA, add(CFA_XSP16, literal(-20)))
        CFI (cfiCond329) VB load(1, XDATA, add(CFA_XSP16, literal(-19)))
        CFI (cfiCond329) V0 load(1, XDATA, add(CFA_XSP16, literal(-18)))
        CFI (cfiCond329) V1 load(1, XDATA, add(CFA_XSP16, literal(-17)))
        CFI (cfiCond329) V2 load(1, XDATA, add(CFA_XSP16, literal(-16)))
        CFI (cfiCond329) V3 load(1, XDATA, add(CFA_XSP16, literal(-15)))
        CFI (cfiCond329) V4 load(1, XDATA, add(CFA_XSP16, literal(-14)))
        CFI (cfiCond329) V5 load(1, XDATA, add(CFA_XSP16, literal(-13)))
        CFI (cfiCond329) V6 load(1, XDATA, add(CFA_XSP16, literal(-12)))
        CFI (cfiCond329) V7 load(1, XDATA, add(CFA_XSP16, literal(-11)))
        CFI (cfiCond329) V8 load(1, XDATA, add(CFA_XSP16, literal(-10)))
        CFI (cfiCond329) V9 load(1, XDATA, add(CFA_XSP16, literal(-9)))
        CFI (cfiCond329) V10 load(1, XDATA, add(CFA_XSP16, literal(-8)))
        CFI (cfiCond329) V11 load(1, XDATA, add(CFA_XSP16, literal(-7)))
        CFI (cfiCond329) R7 load(1, XDATA, add(CFA_XSP16, literal(-6)))
        CFI (cfiCond329) ?RET_LOW load(1, XDATA, add(CFA_XSP16, literal(-5)))
        CFI (cfiCond329) ?RET_HIGH load(1, XDATA, add(CFA_XSP16, literal(-4)))
        CFI (cfiCond329) ?BRET_EXT load(1, XDATA, add(CFA_XSP16, literal(-3)))
        CFI (cfiCond329) DPL0 load(1, XDATA, add(CFA_XSP16, literal(-2)))
        CFI (cfiCond329) DPH0 load(1, XDATA, add(CFA_XSP16, literal(-1)))
        CFI (cfiCond329) CFA_SP SP+0
        CFI (cfiCond329) CFA_XSP16 add(XSP16, 33)
        CFI Block cfiCond330 Using cfiCommon0
        CFI (cfiCond330) NoFunction
        CFI (cfiCond330) Conditional ??CrossCallReturnLabel_89, ??CrossCallReturnLabel_75, ??CrossCallReturnLabel_30
        CFI (cfiCond330) R6 load(1, XDATA, add(CFA_XSP16, literal(-20)))
        CFI (cfiCond330) VB load(1, XDATA, add(CFA_XSP16, literal(-19)))
        CFI (cfiCond330) V0 load(1, XDATA, add(CFA_XSP16, literal(-18)))
        CFI (cfiCond330) V1 load(1, XDATA, add(CFA_XSP16, literal(-17)))
        CFI (cfiCond330) V2 load(1, XDATA, add(CFA_XSP16, literal(-16)))
        CFI (cfiCond330) V3 load(1, XDATA, add(CFA_XSP16, literal(-15)))
        CFI (cfiCond330) V4 load(1, XDATA, add(CFA_XSP16, literal(-14)))
        CFI (cfiCond330) V5 load(1, XDATA, add(CFA_XSP16, literal(-13)))
        CFI (cfiCond330) V6 load(1, XDATA, add(CFA_XSP16, literal(-12)))
        CFI (cfiCond330) V7 load(1, XDATA, add(CFA_XSP16, literal(-11)))
        CFI (cfiCond330) V8 load(1, XDATA, add(CFA_XSP16, literal(-10)))
        CFI (cfiCond330) V9 load(1, XDATA, add(CFA_XSP16, literal(-9)))
        CFI (cfiCond330) V10 load(1, XDATA, add(CFA_XSP16, literal(-8)))
        CFI (cfiCond330) V11 load(1, XDATA, add(CFA_XSP16, literal(-7)))
        CFI (cfiCond330) R7 load(1, XDATA, add(CFA_XSP16, literal(-6)))
        CFI (cfiCond330) ?RET_LOW load(1, XDATA, add(CFA_XSP16, literal(-5)))
        CFI (cfiCond330) ?RET_HIGH load(1, XDATA, add(CFA_XSP16, literal(-4)))
        CFI (cfiCond330) ?BRET_EXT load(1, XDATA, add(CFA_XSP16, literal(-3)))
        CFI (cfiCond330) DPL0 load(1, XDATA, add(CFA_XSP16, literal(-2)))
        CFI (cfiCond330) DPH0 load(1, XDATA, add(CFA_XSP16, literal(-1)))
        CFI (cfiCond330) CFA_SP SP+0
        CFI (cfiCond330) CFA_XSP16 add(XSP16, 33)
        CFI Block cfiCond331 Using cfiCommon0
        CFI (cfiCond331) NoFunction
        CFI (cfiCond331) Conditional ??CrossCallReturnLabel_90, ??CrossCallReturnLabel_0
        CFI (cfiCond331) R6 load(1, XDATA, add(CFA_XSP16, literal(-20)))
        CFI (cfiCond331) VB load(1, XDATA, add(CFA_XSP16, literal(-19)))
        CFI (cfiCond331) V0 load(1, XDATA, add(CFA_XSP16, literal(-18)))
        CFI (cfiCond331) V1 load(1, XDATA, add(CFA_XSP16, literal(-17)))
        CFI (cfiCond331) V2 load(1, XDATA, add(CFA_XSP16, literal(-16)))
        CFI (cfiCond331) V3 load(1, XDATA, add(CFA_XSP16, literal(-15)))
        CFI (cfiCond331) V4 load(1, XDATA, add(CFA_XSP16, literal(-14)))
        CFI (cfiCond331) V5 load(1, XDATA, add(CFA_XSP16, literal(-13)))
        CFI (cfiCond331) V6 load(1, XDATA, add(CFA_XSP16, literal(-12)))
        CFI (cfiCond331) V7 load(1, XDATA, add(CFA_XSP16, literal(-11)))
        CFI (cfiCond331) V8 load(1, XDATA, add(CFA_XSP16, literal(-10)))
        CFI (cfiCond331) V9 load(1, XDATA, add(CFA_XSP16, literal(-9)))
        CFI (cfiCond331) V10 load(1, XDATA, add(CFA_XSP16, literal(-8)))
        CFI (cfiCond331) V11 load(1, XDATA, add(CFA_XSP16, literal(-7)))
        CFI (cfiCond331) R7 load(1, XDATA, add(CFA_XSP16, literal(-6)))
        CFI (cfiCond331) ?RET_LOW load(1, XDATA, add(CFA_XSP16, literal(-5)))
        CFI (cfiCond331) ?RET_HIGH load(1, XDATA, add(CFA_XSP16, literal(-4)))
        CFI (cfiCond331) ?BRET_EXT load(1, XDATA, add(CFA_XSP16, literal(-3)))
        CFI (cfiCond331) DPL0 load(1, XDATA, add(CFA_XSP16, literal(-2)))
        CFI (cfiCond331) DPH0 load(1, XDATA, add(CFA_XSP16, literal(-1)))
        CFI (cfiCond331) CFA_SP SP+0
        CFI (cfiCond331) CFA_XSP16 add(XSP16, 33)
        CFI Block cfiCond332 Using cfiCommon0
        CFI (cfiCond332) NoFunction
        CFI (cfiCond332) Conditional ??CrossCallReturnLabel_90, ??CrossCallReturnLabel_1
        CFI (cfiCond332) R6 load(1, XDATA, add(CFA_XSP16, literal(-20)))
        CFI (cfiCond332) VB load(1, XDATA, add(CFA_XSP16, literal(-19)))
        CFI (cfiCond332) V0 load(1, XDATA, add(CFA_XSP16, literal(-18)))
        CFI (cfiCond332) V1 load(1, XDATA, add(CFA_XSP16, literal(-17)))
        CFI (cfiCond332) V2 load(1, XDATA, add(CFA_XSP16, literal(-16)))
        CFI (cfiCond332) V3 load(1, XDATA, add(CFA_XSP16, literal(-15)))
        CFI (cfiCond332) V4 load(1, XDATA, add(CFA_XSP16, literal(-14)))
        CFI (cfiCond332) V5 load(1, XDATA, add(CFA_XSP16, literal(-13)))
        CFI (cfiCond332) V6 load(1, XDATA, add(CFA_XSP16, literal(-12)))
        CFI (cfiCond332) V7 load(1, XDATA, add(CFA_XSP16, literal(-11)))
        CFI (cfiCond332) V8 load(1, XDATA, add(CFA_XSP16, literal(-10)))
        CFI (cfiCond332) V9 load(1, XDATA, add(CFA_XSP16, literal(-9)))
        CFI (cfiCond332) V10 load(1, XDATA, add(CFA_XSP16, literal(-8)))
        CFI (cfiCond332) V11 load(1, XDATA, add(CFA_XSP16, literal(-7)))
        CFI (cfiCond332) R7 load(1, XDATA, add(CFA_XSP16, literal(-6)))
        CFI (cfiCond332) ?RET_LOW load(1, XDATA, add(CFA_XSP16, literal(-5)))
        CFI (cfiCond332) ?RET_HIGH load(1, XDATA, add(CFA_XSP16, literal(-4)))
        CFI (cfiCond332) ?BRET_EXT load(1, XDATA, add(CFA_XSP16, literal(-3)))
        CFI (cfiCond332) DPL0 load(1, XDATA, add(CFA_XSP16, literal(-2)))
        CFI (cfiCond332) DPH0 load(1, XDATA, add(CFA_XSP16, literal(-1)))
        CFI (cfiCond332) CFA_SP SP+0
        CFI (cfiCond332) CFA_XSP16 add(XSP16, 33)
        CFI Block cfiPicker333 Using cfiCommon1
        CFI (cfiPicker333) NoFunction
        CFI (cfiPicker333) Picker
        MOVX    A,@DPTR
        ADD     A,#0x30
        MOV     DPL,?XSP + 0
        MOV     DPH,?XSP + 1
        MOVX    @DPTR,A
        ; Setup parameters for call to function HalUARTWrite
        ; Setup parameters for call to function HalUARTWrite
        ; Setup parameters for call to function HalUARTWrite
        ; Setup parameters for call to function HalUARTWrite
        ; Setup parameters for call to function HalUARTWrite
        MOV     R4,#0x1
        MOV     R5,#0x0
        MOV     R2,DPL
        MOV     R3,DPH
        RET
        CFI EndBlock cfiCond328
        CFI EndBlock cfiCond329
        CFI EndBlock cfiCond330
        CFI EndBlock cfiCond331
        CFI EndBlock cfiCond332
        CFI EndBlock cfiPicker333

        RSEG BANKED_CODE:CODE:NOROOT(0)
?Subroutine43:
        CFI Block cfiCond334 Using cfiCommon0
        CFI NoFunction
        CFI Conditional ??CrossCallReturnLabel_160, ??CrossCallReturnLabel_0
        CFI R6 load(1, XDATA, add(CFA_XSP16, literal(-20)))
        CFI VB load(1, XDATA, add(CFA_XSP16, literal(-19)))
        CFI V0 load(1, XDATA, add(CFA_XSP16, literal(-18)))
        CFI V1 load(1, XDATA, add(CFA_XSP16, literal(-17)))
        CFI V2 load(1, XDATA, add(CFA_XSP16, literal(-16)))
        CFI V3 load(1, XDATA, add(CFA_XSP16, literal(-15)))
        CFI V4 load(1, XDATA, add(CFA_XSP16, literal(-14)))
        CFI V5 load(1, XDATA, add(CFA_XSP16, literal(-13)))
        CFI V6 load(1, XDATA, add(CFA_XSP16, literal(-12)))
        CFI V7 load(1, XDATA, add(CFA_XSP16, literal(-11)))
        CFI V8 load(1, XDATA, add(CFA_XSP16, literal(-10)))
        CFI V9 load(1, XDATA, add(CFA_XSP16, literal(-9)))
        CFI V10 load(1, XDATA, add(CFA_XSP16, literal(-8)))
        CFI V11 load(1, XDATA, add(CFA_XSP16, literal(-7)))
        CFI R7 load(1, XDATA, add(CFA_XSP16, literal(-6)))
        CFI ?RET_LOW load(1, XDATA, add(CFA_XSP16, literal(-5)))
        CFI ?RET_HIGH load(1, XDATA, add(CFA_XSP16, literal(-4)))
        CFI ?BRET_EXT load(1, XDATA, add(CFA_XSP16, literal(-3)))
        CFI DPL0 load(1, XDATA, add(CFA_XSP16, literal(-2)))
        CFI DPH0 load(1, XDATA, add(CFA_XSP16, literal(-1)))
        CFI CFA_SP SP+0
        CFI CFA_XSP16 add(XSP16, 33)
        CFI Block cfiCond335 Using cfiCommon0
        CFI (cfiCond335) NoFunction
        CFI (cfiCond335) Conditional ??CrossCallReturnLabel_160, ??CrossCallReturnLabel_1
        CFI (cfiCond335) R6 load(1, XDATA, add(CFA_XSP16, literal(-20)))
        CFI (cfiCond335) VB load(1, XDATA, add(CFA_XSP16, literal(-19)))
        CFI (cfiCond335) V0 load(1, XDATA, add(CFA_XSP16, literal(-18)))
        CFI (cfiCond335) V1 load(1, XDATA, add(CFA_XSP16, literal(-17)))
        CFI (cfiCond335) V2 load(1, XDATA, add(CFA_XSP16, literal(-16)))
        CFI (cfiCond335) V3 load(1, XDATA, add(CFA_XSP16, literal(-15)))
        CFI (cfiCond335) V4 load(1, XDATA, add(CFA_XSP16, literal(-14)))
        CFI (cfiCond335) V5 load(1, XDATA, add(CFA_XSP16, literal(-13)))
        CFI (cfiCond335) V6 load(1, XDATA, add(CFA_XSP16, literal(-12)))
        CFI (cfiCond335) V7 load(1, XDATA, add(CFA_XSP16, literal(-11)))
        CFI (cfiCond335) V8 load(1, XDATA, add(CFA_XSP16, literal(-10)))
        CFI (cfiCond335) V9 load(1, XDATA, add(CFA_XSP16, literal(-9)))
        CFI (cfiCond335) V10 load(1, XDATA, add(CFA_XSP16, literal(-8)))
        CFI (cfiCond335) V11 load(1, XDATA, add(CFA_XSP16, literal(-7)))
        CFI (cfiCond335) R7 load(1, XDATA, add(CFA_XSP16, literal(-6)))
        CFI (cfiCond335) ?RET_LOW load(1, XDATA, add(CFA_XSP16, literal(-5)))
        CFI (cfiCond335) ?RET_HIGH load(1, XDATA, add(CFA_XSP16, literal(-4)))
        CFI (cfiCond335) ?BRET_EXT load(1, XDATA, add(CFA_XSP16, literal(-3)))
        CFI (cfiCond335) DPL0 load(1, XDATA, add(CFA_XSP16, literal(-2)))
        CFI (cfiCond335) DPH0 load(1, XDATA, add(CFA_XSP16, literal(-1)))
        CFI (cfiCond335) CFA_SP SP+0
        CFI (cfiCond335) CFA_XSP16 add(XSP16, 33)
        CFI Block cfiCond336 Using cfiCommon0
        CFI (cfiCond336) NoFunction
        CFI (cfiCond336) Conditional ??CrossCallReturnLabel_161
        CFI (cfiCond336) R6 load(1, XDATA, add(CFA_XSP16, literal(-12)))
        CFI (cfiCond336) VB load(1, XDATA, add(CFA_XSP16, literal(-11)))
        CFI (cfiCond336) V0 load(1, XDATA, add(CFA_XSP16, literal(-10)))
        CFI (cfiCond336) V1 load(1, XDATA, add(CFA_XSP16, literal(-9)))
        CFI (cfiCond336) V2 load(1, XDATA, add(CFA_XSP16, literal(-8)))
        CFI (cfiCond336) V3 load(1, XDATA, add(CFA_XSP16, literal(-7)))
        CFI (cfiCond336) R7 load(1, XDATA, add(CFA_XSP16, literal(-6)))
        CFI (cfiCond336) ?RET_LOW load(1, XDATA, add(CFA_XSP16, literal(-5)))
        CFI (cfiCond336) ?RET_HIGH load(1, XDATA, add(CFA_XSP16, literal(-4)))
        CFI (cfiCond336) ?BRET_EXT load(1, XDATA, add(CFA_XSP16, literal(-3)))
        CFI (cfiCond336) DPL0 load(1, XDATA, add(CFA_XSP16, literal(-2)))
        CFI (cfiCond336) DPH0 load(1, XDATA, add(CFA_XSP16, literal(-1)))
        CFI (cfiCond336) CFA_SP SP+0
        CFI (cfiCond336) CFA_XSP16 add(XSP16, 17)
        CFI Block cfiPicker337 Using cfiCommon1
        CFI (cfiPicker337) NoFunction
        CFI (cfiPicker337) Picker
        MOV     R1,#0x0
        CFI EndBlock cfiCond334
        CFI EndBlock cfiCond335
        CFI EndBlock cfiCond336
        CFI EndBlock cfiPicker337
        REQUIRE ??Subroutine75_0
        ; // Fall through to label ??Subroutine75_0

        RSEG BANKED_CODE:CODE:NOROOT(0)
??Subroutine75_0:
        CFI Block cfiCond338 Using cfiCommon0
        CFI NoFunction
        CFI Conditional ??CrossCallReturnLabel_162, ??CrossCallReturnLabel_35
        CFI R6 load(1, XDATA, add(CFA_XSP16, literal(-20)))
        CFI VB load(1, XDATA, add(CFA_XSP16, literal(-19)))
        CFI V0 load(1, XDATA, add(CFA_XSP16, literal(-18)))
        CFI V1 load(1, XDATA, add(CFA_XSP16, literal(-17)))
        CFI V2 load(1, XDATA, add(CFA_XSP16, literal(-16)))
        CFI V3 load(1, XDATA, add(CFA_XSP16, literal(-15)))
        CFI V4 load(1, XDATA, add(CFA_XSP16, literal(-14)))
        CFI V5 load(1, XDATA, add(CFA_XSP16, literal(-13)))
        CFI V6 load(1, XDATA, add(CFA_XSP16, literal(-12)))
        CFI V7 load(1, XDATA, add(CFA_XSP16, literal(-11)))
        CFI V8 load(1, XDATA, add(CFA_XSP16, literal(-10)))
        CFI V9 load(1, XDATA, add(CFA_XSP16, literal(-9)))
        CFI V10 load(1, XDATA, add(CFA_XSP16, literal(-8)))
        CFI V11 load(1, XDATA, add(CFA_XSP16, literal(-7)))
        CFI R7 load(1, XDATA, add(CFA_XSP16, literal(-6)))
        CFI ?RET_LOW load(1, XDATA, add(CFA_XSP16, literal(-5)))
        CFI ?RET_HIGH load(1, XDATA, add(CFA_XSP16, literal(-4)))
        CFI ?BRET_EXT load(1, XDATA, add(CFA_XSP16, literal(-3)))
        CFI DPL0 load(1, XDATA, add(CFA_XSP16, literal(-2)))
        CFI DPH0 load(1, XDATA, add(CFA_XSP16, literal(-1)))
        CFI CFA_SP SP+0
        CFI CFA_XSP16 add(XSP16, 33)
        CFI Block cfiCond339 Using cfiCommon0
        CFI (cfiCond339) NoFunction
        CFI (cfiCond339) Conditional ??CrossCallReturnLabel_162, ??CrossCallReturnLabel_36
        CFI (cfiCond339) R6 load(1, XDATA, add(CFA_XSP16, literal(-12)))
        CFI (cfiCond339) VB load(1, XDATA, add(CFA_XSP16, literal(-11)))
        CFI (cfiCond339) V0 load(1, XDATA, add(CFA_XSP16, literal(-10)))
        CFI (cfiCond339) V1 load(1, XDATA, add(CFA_XSP16, literal(-9)))
        CFI (cfiCond339) V2 load(1, XDATA, add(CFA_XSP16, literal(-8)))
        CFI (cfiCond339) V3 load(1, XDATA, add(CFA_XSP16, literal(-7)))
        CFI (cfiCond339) R7 load(1, XDATA, add(CFA_XSP16, literal(-6)))
        CFI (cfiCond339) ?RET_LOW load(1, XDATA, add(CFA_XSP16, literal(-5)))
        CFI (cfiCond339) ?RET_HIGH load(1, XDATA, add(CFA_XSP16, literal(-4)))
        CFI (cfiCond339) ?BRET_EXT load(1, XDATA, add(CFA_XSP16, literal(-3)))
        CFI (cfiCond339) DPL0 load(1, XDATA, add(CFA_XSP16, literal(-2)))
        CFI (cfiCond339) DPH0 load(1, XDATA, add(CFA_XSP16, literal(-1)))
        CFI (cfiCond339) CFA_SP SP+0
        CFI (cfiCond339) CFA_XSP16 add(XSP16, 17)
        CFI Block cfiCond340 Using cfiCommon0
        CFI (cfiCond340) NoFunction
        CFI (cfiCond340) Conditional ??CrossCallReturnLabel_160, ??CrossCallReturnLabel_0
        CFI (cfiCond340) R6 load(1, XDATA, add(CFA_XSP16, literal(-20)))
        CFI (cfiCond340) VB load(1, XDATA, add(CFA_XSP16, literal(-19)))
        CFI (cfiCond340) V0 load(1, XDATA, add(CFA_XSP16, literal(-18)))
        CFI (cfiCond340) V1 load(1, XDATA, add(CFA_XSP16, literal(-17)))
        CFI (cfiCond340) V2 load(1, XDATA, add(CFA_XSP16, literal(-16)))
        CFI (cfiCond340) V3 load(1, XDATA, add(CFA_XSP16, literal(-15)))
        CFI (cfiCond340) V4 load(1, XDATA, add(CFA_XSP16, literal(-14)))
        CFI (cfiCond340) V5 load(1, XDATA, add(CFA_XSP16, literal(-13)))
        CFI (cfiCond340) V6 load(1, XDATA, add(CFA_XSP16, literal(-12)))
        CFI (cfiCond340) V7 load(1, XDATA, add(CFA_XSP16, literal(-11)))
        CFI (cfiCond340) V8 load(1, XDATA, add(CFA_XSP16, literal(-10)))
        CFI (cfiCond340) V9 load(1, XDATA, add(CFA_XSP16, literal(-9)))
        CFI (cfiCond340) V10 load(1, XDATA, add(CFA_XSP16, literal(-8)))
        CFI (cfiCond340) V11 load(1, XDATA, add(CFA_XSP16, literal(-7)))
        CFI (cfiCond340) R7 load(1, XDATA, add(CFA_XSP16, literal(-6)))
        CFI (cfiCond340) ?RET_LOW load(1, XDATA, add(CFA_XSP16, literal(-5)))
        CFI (cfiCond340) ?RET_HIGH load(1, XDATA, add(CFA_XSP16, literal(-4)))
        CFI (cfiCond340) ?BRET_EXT load(1, XDATA, add(CFA_XSP16, literal(-3)))
        CFI (cfiCond340) DPL0 load(1, XDATA, add(CFA_XSP16, literal(-2)))
        CFI (cfiCond340) DPH0 load(1, XDATA, add(CFA_XSP16, literal(-1)))
        CFI (cfiCond340) CFA_SP SP+0
        CFI (cfiCond340) CFA_XSP16 add(XSP16, 33)
        CFI Block cfiCond341 Using cfiCommon0
        CFI (cfiCond341) NoFunction
        CFI (cfiCond341) Conditional ??CrossCallReturnLabel_160, ??CrossCallReturnLabel_1
        CFI (cfiCond341) R6 load(1, XDATA, add(CFA_XSP16, literal(-20)))
        CFI (cfiCond341) VB load(1, XDATA, add(CFA_XSP16, literal(-19)))
        CFI (cfiCond341) V0 load(1, XDATA, add(CFA_XSP16, literal(-18)))
        CFI (cfiCond341) V1 load(1, XDATA, add(CFA_XSP16, literal(-17)))
        CFI (cfiCond341) V2 load(1, XDATA, add(CFA_XSP16, literal(-16)))
        CFI (cfiCond341) V3 load(1, XDATA, add(CFA_XSP16, literal(-15)))
        CFI (cfiCond341) V4 load(1, XDATA, add(CFA_XSP16, literal(-14)))
        CFI (cfiCond341) V5 load(1, XDATA, add(CFA_XSP16, literal(-13)))
        CFI (cfiCond341) V6 load(1, XDATA, add(CFA_XSP16, literal(-12)))
        CFI (cfiCond341) V7 load(1, XDATA, add(CFA_XSP16, literal(-11)))
        CFI (cfiCond341) V8 load(1, XDATA, add(CFA_XSP16, literal(-10)))
        CFI (cfiCond341) V9 load(1, XDATA, add(CFA_XSP16, literal(-9)))
        CFI (cfiCond341) V10 load(1, XDATA, add(CFA_XSP16, literal(-8)))
        CFI (cfiCond341) V11 load(1, XDATA, add(CFA_XSP16, literal(-7)))
        CFI (cfiCond341) R7 load(1, XDATA, add(CFA_XSP16, literal(-6)))
        CFI (cfiCond341) ?RET_LOW load(1, XDATA, add(CFA_XSP16, literal(-5)))
        CFI (cfiCond341) ?RET_HIGH load(1, XDATA, add(CFA_XSP16, literal(-4)))
        CFI (cfiCond341) ?BRET_EXT load(1, XDATA, add(CFA_XSP16, literal(-3)))
        CFI (cfiCond341) DPL0 load(1, XDATA, add(CFA_XSP16, literal(-2)))
        CFI (cfiCond341) DPH0 load(1, XDATA, add(CFA_XSP16, literal(-1)))
        CFI (cfiCond341) CFA_SP SP+0
        CFI (cfiCond341) CFA_XSP16 add(XSP16, 33)
        CFI Block cfiCond342 Using cfiCommon0
        CFI (cfiCond342) NoFunction
        CFI (cfiCond342) Conditional ??CrossCallReturnLabel_161
        CFI (cfiCond342) R6 load(1, XDATA, add(CFA_XSP16, literal(-12)))
        CFI (cfiCond342) VB load(1, XDATA, add(CFA_XSP16, literal(-11)))
        CFI (cfiCond342) V0 load(1, XDATA, add(CFA_XSP16, literal(-10)))
        CFI (cfiCond342) V1 load(1, XDATA, add(CFA_XSP16, literal(-9)))
        CFI (cfiCond342) V2 load(1, XDATA, add(CFA_XSP16, literal(-8)))
        CFI (cfiCond342) V3 load(1, XDATA, add(CFA_XSP16, literal(-7)))
        CFI (cfiCond342) R7 load(1, XDATA, add(CFA_XSP16, literal(-6)))
        CFI (cfiCond342) ?RET_LOW load(1, XDATA, add(CFA_XSP16, literal(-5)))
        CFI (cfiCond342) ?RET_HIGH load(1, XDATA, add(CFA_XSP16, literal(-4)))
        CFI (cfiCond342) ?BRET_EXT load(1, XDATA, add(CFA_XSP16, literal(-3)))
        CFI (cfiCond342) DPL0 load(1, XDATA, add(CFA_XSP16, literal(-2)))
        CFI (cfiCond342) DPH0 load(1, XDATA, add(CFA_XSP16, literal(-1)))
        CFI (cfiCond342) CFA_SP SP+0
        CFI (cfiCond342) CFA_XSP16 add(XSP16, 17)
        CFI Block cfiPicker343 Using cfiCommon1
        CFI (cfiPicker343) NoFunction
        CFI (cfiPicker343) Picker
        LCALL   ??HalUARTWrite?relay
        ; Setup parameters for call to function HalUARTWrite
        ; Setup parameters for call to function HalUARTWrite
        ; Setup parameters for call to function HalUARTWrite
        ; Setup parameters for call to function HalUARTWrite
        ; Setup parameters for call to function HalUARTWrite
        MOV     R4,#0x1
        MOV     R5,#0x0
        RET
        CFI EndBlock cfiCond338
        CFI EndBlock cfiCond339
        CFI EndBlock cfiCond340
        CFI EndBlock cfiCond341
        CFI EndBlock cfiCond342
        CFI EndBlock cfiPicker343
// 1316 
// 1317 
// 1318 
// 1319 //给掉线的邻居发送重置信号

        RSEG BANKED_CODE:CODE:NOROOT(0)
// 1320 void Reset_down_neighbor(int16 nei_addr)
Reset_down_neighbor:
        CFI Block cfiBlock344 Using cfiCommon0
        CFI Function Reset_down_neighbor
        CODE
// 1321 {
        FUNCALL Reset_down_neighbor, AF_DataRequest
        LOCFRAME ISTACK, 0, STACK
        LOCFRAME PSTACK, 0, STACK
        LOCFRAME XSTACK, 21, STACK
        LOCFRAME IOVERLAY, 0, STATIC
        LOCFRAME DOVERLAY, 0, STATIC
        ARGFRAME ISTACK, 0, STACK
        ARGFRAME PSTACK, 0, STACK
        ARGFRAME XSTACK, 21, STACK
        ARGFRAME IOVERLAY, 0, STATIC
        ARGFRAME DOVERLAY, 0, STATIC
        FUNCALL Reset_down_neighbor, HalLedBlink
        LOCFRAME ISTACK, 0, STACK
        LOCFRAME PSTACK, 0, STACK
        LOCFRAME XSTACK, 12, STACK
        LOCFRAME IOVERLAY, 0, STATIC
        LOCFRAME DOVERLAY, 0, STATIC
        ARGFRAME ISTACK, 0, STACK
        ARGFRAME PSTACK, 0, STACK
        ARGFRAME XSTACK, 12, STACK
        ARGFRAME IOVERLAY, 0, STATIC
        ARGFRAME DOVERLAY, 0, STATIC
        MOV     A,#-0xa
        LCALL   ?BANKED_ENTER_XDATA
        CFI DPH0 load(1, XDATA, add(CFA_XSP16, literal(-1)))
        CFI DPL0 load(1, XDATA, add(CFA_XSP16, literal(-2)))
        CFI ?BRET_EXT load(1, XDATA, add(CFA_XSP16, literal(-3)))
        CFI ?RET_HIGH load(1, XDATA, add(CFA_XSP16, literal(-4)))
        CFI ?RET_LOW load(1, XDATA, add(CFA_XSP16, literal(-5)))
        CFI R7 load(1, XDATA, add(CFA_XSP16, literal(-6)))
        CFI V1 load(1, XDATA, add(CFA_XSP16, literal(-7)))
        CFI V0 load(1, XDATA, add(CFA_XSP16, literal(-8)))
        CFI VB load(1, XDATA, add(CFA_XSP16, literal(-9)))
        CFI R6 load(1, XDATA, add(CFA_XSP16, literal(-10)))
        CFI CFA_SP SP+0
        CFI CFA_XSP16 add(XSP16, 10)
        ; Saved register size: 10
        ; Auto size: 2
        MOV     A,#-0x2
        LCALL   ?ALLOC_XSTACK8
        CFI CFA_XSP16 add(XSP16, 12)
// 1322   short flashTime = 1000;
// 1323   Point_To_Point_DstAddr.addr.shortAddr = nei_addr;
        MOV     DPTR,#Point_To_Point_DstAddr
        MOV     A,R2
        MOVX    @DPTR,A
        INC     DPTR
        MOV     A,R3
        MOVX    @DPTR,A
// 1324   unsigned char DATA[] = "!";
        MOV     DPL,?XSP + 0
        MOV     DPH,?XSP + 1
        MOV     R4,DPL
        MOV     R5,DPH
        MOV     DPH,#(`?<Constant "!">` >> 8) & 0xff
        MOV     DPL,#`?<Constant "!">` & 0xff
        MOV     A,#0x2
        LCALL   ?MOVE_LONG8_XDATA_XDATA
// 1325   if ( AF_DataRequest( &Point_To_Point_DstAddr, //点对点通信方式目标地址
// 1326                         &SampleApp_epDesc,
// 1327                         SAMPLEAPP_POINT_TO_POINT_CLUSTERID, //点对点簇ID
// 1328                         1,
// 1329                         DATA,
// 1330                         &SampleApp_TransID,
// 1331                         AF_DISCV_ROUTE,
// 1332                         AF_DEFAULT_RADIUS ) == afStatus_SUCCESS )
        ; Setup parameters for call to function AF_DataRequest
        MOV     ?V0 + 0,#0x1e
        MOV     R0,#?V0 + 0
        LCALL   ?PUSH_XSTACK_I_ONE
        CFI CFA_XSP16 add(XSP16, 13)
        MOV     ?V0 + 0,#SampleApp_TransID & 0xff
        MOV     ?V0 + 1,#(SampleApp_TransID >> 8) & 0xff
        MOV     R0,#?V0 + 0
        LCALL   ?PUSH_XSTACK_I_TWO
        CFI CFA_XSP16 add(XSP16, 15)
        MOV     A,#0x3
        LCALL   ?XSTACK_DISP0_8
        MOV     ?V0 + 0,DPL
        MOV     ?V0 + 1,DPH
        MOV     R0,#?V0 + 0
        LCALL   ?PUSH_XSTACK_I_TWO
        CFI CFA_XSP16 add(XSP16, 17)
        MOV     ?V0 + 0,#0x1
        MOV     ?V0 + 1,#0x0
        MOV     R0,#?V0 + 0
        LCALL   ?PUSH_XSTACK_I_TWO
        CFI CFA_XSP16 add(XSP16, 19)
        MOV     ?V0 + 0,#0x4
        MOV     R0,#?V0 + 0
        LCALL   ?PUSH_XSTACK_I_TWO
        CFI CFA_XSP16 add(XSP16, 21)
        LCALL   ?Subroutine36 & 0xFFFF
??CrossCallReturnLabel_111:
        LCALL   ?DEALLOC_XSTACK8
        CFI CFA_XSP16 add(XSP16, 12)
        MOV     A,R1
        JNZ     ??Reset_down_neighbor_0
// 1333     {
// 1334       HalLedBlink( HAL_LED_3, 1, 60, (flashTime / 3) ); //led3闪
        ; Setup parameters for call to function HalLedBlink
        MOV     R4,#0x4d
        MOV     R5,#0x1
        MOV     R3,#0x3c
        MOV     R2,#0x1
        MOV     R1,#0x4
        LCALL   ??HalLedBlink?relay
// 1335     }
// 1336     else
// 1337     {
// 1338 
// 1339     }
// 1340 }
??Reset_down_neighbor_0:
        MOV     A,#0x2
        CFI EndBlock cfiBlock344
        REQUIRE ?Subroutine0
        ; // Fall through to label ?Subroutine0

        RSEG BANKED_CODE:CODE:NOROOT(0)
?Subroutine0:
        CFI Block cfiBlock345 Using cfiCommon0
        CFI NoFunction
        CFI CFA_SP SP+0
        CFI CFA_XSP16 add(XSP16, 15)
        CFI VB load(1, XDATA, add(CFA_XSP16, literal(-9)))
        CFI DPL0 load(1, XDATA, add(CFA_XSP16, literal(-2)))
        CFI DPH0 load(1, XDATA, add(CFA_XSP16, literal(-1)))
        CFI R6 load(1, XDATA, add(CFA_XSP16, literal(-10)))
        CFI R7 load(1, XDATA, add(CFA_XSP16, literal(-6)))
        CFI V0 load(1, XDATA, add(CFA_XSP16, literal(-8)))
        CFI V1 load(1, XDATA, add(CFA_XSP16, literal(-7)))
        CFI ?BRET_EXT load(1, XDATA, add(CFA_XSP16, literal(-3)))
        CFI ?RET_HIGH load(1, XDATA, add(CFA_XSP16, literal(-4)))
        CFI ?RET_LOW load(1, XDATA, add(CFA_XSP16, literal(-5)))
        CFI Invalid
        LCALL   ?DEALLOC_XSTACK8
        CFI EndBlock cfiBlock345
        REQUIRE ??Subroutine76_0
        ; // Fall through to label ??Subroutine76_0

        RSEG BANKED_CODE:CODE:NOROOT(0)
??Subroutine76_0:
        CFI Block cfiBlock346 Using cfiCommon0
        CFI NoFunction
        CFI CFA_SP SP+0
        CFI CFA_XSP16 add(XSP16, 10)
        CFI VB load(1, XDATA, add(CFA_XSP16, literal(-9)))
        CFI DPL0 load(1, XDATA, add(CFA_XSP16, literal(-2)))
        CFI DPH0 load(1, XDATA, add(CFA_XSP16, literal(-1)))
        CFI R6 load(1, XDATA, add(CFA_XSP16, literal(-10)))
        CFI R7 load(1, XDATA, add(CFA_XSP16, literal(-6)))
        CFI V0 load(1, XDATA, add(CFA_XSP16, literal(-8)))
        CFI V1 load(1, XDATA, add(CFA_XSP16, literal(-7)))
        CFI ?BRET_EXT load(1, XDATA, add(CFA_XSP16, literal(-3)))
        CFI ?RET_HIGH load(1, XDATA, add(CFA_XSP16, literal(-4)))
        CFI ?RET_LOW load(1, XDATA, add(CFA_XSP16, literal(-5)))
        MOV     R7,#0x2
        LJMP    ?BANKED_LEAVE_XDATA
        CFI EndBlock cfiBlock346
// 1341 
// 1342 
// 1343 /***********************************************************<><><><><><><>*****
// 1344                    自定义 点对点 发送函数
// 1345 ************************************************************<><><><><><><>****/

        RSEG BANKED_CODE:CODE:NOROOT(0)
// 1346 void SampleApp_SendPointToPointMessage( void )
SampleApp_SendPointToPointMessage:
        CFI Block cfiBlock347 Using cfiCommon0
        CFI Function SampleApp_SendPointToPointMessage
        CODE
// 1347 {
        FUNCALL SampleApp_SendPointToPointMessage, osal_getClock
        LOCFRAME ISTACK, 0, STACK
        LOCFRAME PSTACK, 0, STACK
        LOCFRAME XSTACK, 17, STACK
        LOCFRAME IOVERLAY, 0, STATIC
        LOCFRAME DOVERLAY, 0, STATIC
        ARGFRAME ISTACK, 0, STACK
        ARGFRAME PSTACK, 0, STACK
        ARGFRAME XSTACK, 17, STACK
        ARGFRAME IOVERLAY, 0, STATIC
        ARGFRAME DOVERLAY, 0, STATIC
        FUNCALL SampleApp_SendPointToPointMessage, srand
        LOCFRAME ISTACK, 0, STACK
        LOCFRAME PSTACK, 0, STACK
        LOCFRAME XSTACK, 17, STACK
        LOCFRAME IOVERLAY, 0, STATIC
        LOCFRAME DOVERLAY, 0, STATIC
        ARGFRAME ISTACK, 0, STACK
        ARGFRAME PSTACK, 0, STACK
        ARGFRAME XSTACK, 17, STACK
        ARGFRAME IOVERLAY, 0, STATIC
        ARGFRAME DOVERLAY, 0, STATIC
        FUNCALL SampleApp_SendPointToPointMessage, rand
        LOCFRAME ISTACK, 0, STACK
        LOCFRAME PSTACK, 0, STACK
        LOCFRAME XSTACK, 17, STACK
        LOCFRAME IOVERLAY, 0, STATIC
        LOCFRAME DOVERLAY, 0, STATIC
        ARGFRAME ISTACK, 0, STACK
        ARGFRAME PSTACK, 0, STACK
        ARGFRAME XSTACK, 17, STACK
        ARGFRAME IOVERLAY, 0, STATIC
        ARGFRAME DOVERLAY, 0, STATIC
        FUNCALL SampleApp_SendPointToPointMessage, rand
        LOCFRAME ISTACK, 0, STACK
        LOCFRAME PSTACK, 0, STACK
        LOCFRAME XSTACK, 17, STACK
        LOCFRAME IOVERLAY, 0, STATIC
        LOCFRAME DOVERLAY, 0, STATIC
        ARGFRAME ISTACK, 0, STACK
        ARGFRAME PSTACK, 0, STACK
        ARGFRAME XSTACK, 17, STACK
        ARGFRAME IOVERLAY, 0, STATIC
        ARGFRAME DOVERLAY, 0, STATIC
        FUNCALL SampleApp_SendPointToPointMessage, AF_DataRequest
        LOCFRAME ISTACK, 0, STACK
        LOCFRAME PSTACK, 0, STACK
        LOCFRAME XSTACK, 26, STACK
        LOCFRAME IOVERLAY, 0, STATIC
        LOCFRAME DOVERLAY, 0, STATIC
        ARGFRAME ISTACK, 0, STACK
        ARGFRAME PSTACK, 0, STACK
        ARGFRAME XSTACK, 26, STACK
        ARGFRAME IOVERLAY, 0, STATIC
        ARGFRAME DOVERLAY, 0, STATIC
        FUNCALL SampleApp_SendPointToPointMessage, HalLedBlink
        LOCFRAME ISTACK, 0, STACK
        LOCFRAME PSTACK, 0, STACK
        LOCFRAME XSTACK, 17, STACK
        LOCFRAME IOVERLAY, 0, STATIC
        LOCFRAME DOVERLAY, 0, STATIC
        ARGFRAME ISTACK, 0, STACK
        ARGFRAME PSTACK, 0, STACK
        ARGFRAME XSTACK, 17, STACK
        ARGFRAME IOVERLAY, 0, STATIC
        ARGFRAME DOVERLAY, 0, STATIC
        FUNCALL SampleApp_SendPointToPointMessage, HalUARTWrite
        LOCFRAME ISTACK, 0, STACK
        LOCFRAME PSTACK, 0, STACK
        LOCFRAME XSTACK, 17, STACK
        LOCFRAME IOVERLAY, 0, STATIC
        LOCFRAME DOVERLAY, 0, STATIC
        ARGFRAME ISTACK, 0, STACK
        ARGFRAME PSTACK, 0, STACK
        ARGFRAME XSTACK, 17, STACK
        ARGFRAME IOVERLAY, 0, STATIC
        ARGFRAME DOVERLAY, 0, STATIC
        FUNCALL SampleApp_SendPointToPointMessage, HalUARTWrite
        LOCFRAME ISTACK, 0, STACK
        LOCFRAME PSTACK, 0, STACK
        LOCFRAME XSTACK, 17, STACK
        LOCFRAME IOVERLAY, 0, STATIC
        LOCFRAME DOVERLAY, 0, STATIC
        ARGFRAME ISTACK, 0, STACK
        ARGFRAME PSTACK, 0, STACK
        ARGFRAME XSTACK, 17, STACK
        ARGFRAME IOVERLAY, 0, STATIC
        ARGFRAME DOVERLAY, 0, STATIC
        FUNCALL SampleApp_SendPointToPointMessage, Show_Bit
        LOCFRAME ISTACK, 0, STACK
        LOCFRAME PSTACK, 0, STACK
        LOCFRAME XSTACK, 17, STACK
        LOCFRAME IOVERLAY, 0, STATIC
        LOCFRAME DOVERLAY, 0, STATIC
        ARGFRAME ISTACK, 0, STACK
        ARGFRAME PSTACK, 0, STACK
        ARGFRAME XSTACK, 17, STACK
        ARGFRAME IOVERLAY, 0, STATIC
        ARGFRAME DOVERLAY, 0, STATIC
        FUNCALL SampleApp_SendPointToPointMessage, HalUARTWrite
        LOCFRAME ISTACK, 0, STACK
        LOCFRAME PSTACK, 0, STACK
        LOCFRAME XSTACK, 17, STACK
        LOCFRAME IOVERLAY, 0, STATIC
        LOCFRAME DOVERLAY, 0, STATIC
        ARGFRAME ISTACK, 0, STACK
        ARGFRAME PSTACK, 0, STACK
        ARGFRAME XSTACK, 17, STACK
        ARGFRAME IOVERLAY, 0, STATIC
        ARGFRAME DOVERLAY, 0, STATIC
        FUNCALL SampleApp_SendPointToPointMessage, Show_Bit
        LOCFRAME ISTACK, 0, STACK
        LOCFRAME PSTACK, 0, STACK
        LOCFRAME XSTACK, 17, STACK
        LOCFRAME IOVERLAY, 0, STATIC
        LOCFRAME DOVERLAY, 0, STATIC
        ARGFRAME ISTACK, 0, STACK
        ARGFRAME PSTACK, 0, STACK
        ARGFRAME XSTACK, 17, STACK
        ARGFRAME IOVERLAY, 0, STATIC
        ARGFRAME DOVERLAY, 0, STATIC
        FUNCALL SampleApp_SendPointToPointMessage, HalUARTWrite
        LOCFRAME ISTACK, 0, STACK
        LOCFRAME PSTACK, 0, STACK
        LOCFRAME XSTACK, 17, STACK
        LOCFRAME IOVERLAY, 0, STATIC
        LOCFRAME DOVERLAY, 0, STATIC
        ARGFRAME ISTACK, 0, STACK
        ARGFRAME PSTACK, 0, STACK
        ARGFRAME XSTACK, 17, STACK
        ARGFRAME IOVERLAY, 0, STATIC
        ARGFRAME DOVERLAY, 0, STATIC
        FUNCALL SampleApp_SendPointToPointMessage, HalUARTWrite
        LOCFRAME ISTACK, 0, STACK
        LOCFRAME PSTACK, 0, STACK
        LOCFRAME XSTACK, 17, STACK
        LOCFRAME IOVERLAY, 0, STATIC
        LOCFRAME DOVERLAY, 0, STATIC
        ARGFRAME ISTACK, 0, STACK
        ARGFRAME PSTACK, 0, STACK
        ARGFRAME XSTACK, 17, STACK
        ARGFRAME IOVERLAY, 0, STATIC
        ARGFRAME DOVERLAY, 0, STATIC
        FUNCALL SampleApp_SendPointToPointMessage, HalUARTWrite
        LOCFRAME ISTACK, 0, STACK
        LOCFRAME PSTACK, 0, STACK
        LOCFRAME XSTACK, 17, STACK
        LOCFRAME IOVERLAY, 0, STATIC
        LOCFRAME DOVERLAY, 0, STATIC
        ARGFRAME ISTACK, 0, STACK
        ARGFRAME PSTACK, 0, STACK
        ARGFRAME XSTACK, 17, STACK
        ARGFRAME IOVERLAY, 0, STATIC
        ARGFRAME DOVERLAY, 0, STATIC
        MOV     A,#-0xc
        LCALL   ?BANKED_ENTER_XDATA
        CFI DPH0 load(1, XDATA, add(CFA_XSP16, literal(-1)))
        CFI DPL0 load(1, XDATA, add(CFA_XSP16, literal(-2)))
        CFI ?BRET_EXT load(1, XDATA, add(CFA_XSP16, literal(-3)))
        CFI ?RET_HIGH load(1, XDATA, add(CFA_XSP16, literal(-4)))
        CFI ?RET_LOW load(1, XDATA, add(CFA_XSP16, literal(-5)))
        CFI R7 load(1, XDATA, add(CFA_XSP16, literal(-6)))
        CFI V3 load(1, XDATA, add(CFA_XSP16, literal(-7)))
        CFI V2 load(1, XDATA, add(CFA_XSP16, literal(-8)))
        CFI V1 load(1, XDATA, add(CFA_XSP16, literal(-9)))
        CFI V0 load(1, XDATA, add(CFA_XSP16, literal(-10)))
        CFI VB load(1, XDATA, add(CFA_XSP16, literal(-11)))
        CFI R6 load(1, XDATA, add(CFA_XSP16, literal(-12)))
        CFI CFA_SP SP+0
        CFI CFA_XSP16 add(XSP16, 12)
        ; Saved register size: 12
        ; Auto size: 5
        MOV     A,#-0x5
        LCALL   ?ALLOC_XSTACK8
        CFI CFA_XSP16 add(XSP16, 17)
// 1348   uint16 flashTime = 1000;
// 1349   srand((int)osal_getClock()); //生成随机数种子
        ; Setup parameters for call to function srand
        ; Setup parameters for call to function osal_getClock
        LCALL   ??osal_getClock?relay
        LCALL   ??srand?relay
// 1350   int8 nei_index = random(NEI_NUM);  //挑选随机邻居节点
        ; Setup parameters for call to function rand
        LCALL   ??rand?relay
        MOV     ?V0 + 0,R2
        MOV     ?V0 + 1,R3
        MOV     R0,?V0 + 0
        MOV     R1,?V0 + 1
        MOV     DPTR,#NEI_NUM
        LCALL   ??Subroutine66_0 & 0xFFFF
??CrossCallReturnLabel_116:
        LCALL   ?S_DIV_MOD
        MOV     A,R2
        MOV     R6,A
// 1351   Exchange_index = random(5)+1;//挑选随机交换码字
        ; Setup parameters for call to function rand
        LCALL   ??Subroutine64_0 & 0xFFFF
??CrossCallReturnLabel_106:
        LCALL   ?S_DIV_MOD
        MOV     A,R2
        ADD     A,#0x1
        MOV     DPTR,#Exchange_index
        MOVX    @DPTR,A
// 1352 
// 1353   Exchanging_Neighbor = Nei_Table[nei_index];  //即将交换码字的邻居
        MOV     A,R6
        MOV     R0,A
        RLC     A
        SUBB    A,0xE0 /* A   */
        LCALL   ?Subroutine7 & 0xFFFF
??CrossCallReturnLabel_101:
        MOV     R2,A
        INC     DPTR
        MOVX    A,@DPTR
        MOV     R3,A
        MOV     DPTR,#Exchanging_Neighbor
        MOV     A,R2
        MOVX    @DPTR,A
        INC     DPTR
        MOV     A,R3
        MOVX    @DPTR,A
// 1354   Exchanging_Data = DATA_SLOT[Exchange_index].data; //即将交换的码字
        LCALL   ?Subroutine51 & 0xFFFF
??CrossCallReturnLabel_76:
        LCALL   ?S_SHL
        LCALL   ?Subroutine23 & 0xFFFF
??CrossCallReturnLabel_43:
        MOV     DPTR,#Exchanging_Data
        LCALL   ??Subroutine62_0 & 0xFFFF
??CrossCallReturnLabel_98:
        LCALL   ?Subroutine50 & 0xFFFF
??CrossCallReturnLabel_135:
        MOV     A,R0
        MOV     ?V0 + 0,A
// 1355 
// 1356   uint8 data = Exchanging_Data;  //赋值交换的随机数据
// 1357   uint8 degree_high = DATA_SLOT[Exchange_index].Degree_ID >>8; //高位码字度信息
// 1358   uint8 degree_low = (uint8)DATA_SLOT[Exchange_index].Degree_ID;  //低位码字度信息
// 1359   uint8 _DATA[] = {'*', data, degree_high, degree_low};  //发送数据交换请求 用'*' 表示请求类型
        MOV     A,#0x1
        LCALL   ?XSTACK_DISP0_8
        MOV     R4,DPL
        MOV     R5,DPH
        MOV     DPH,#(`?<Constant {42, 0, 0, 0}>` >> 8) & 0xff
        MOV     DPL,#`?<Constant {42, 0, 0, 0}>` & 0xff
        MOV     A,#0x4
        LCALL   ?MOVE_LONG8_XDATA_XDATA
        MOV     DPTR,#Exchanging_Data
        MOVX    A,@DPTR
        PUSH    A
        CFI CFA_SP SP+-1
        MOV     A,#0x2
        LCALL   ?XSTACK_DISP0_8
        POP     A
        CFI CFA_SP SP+0
        MOVX    @DPTR,A
        MOV     A,#0x3
        LCALL   ?XSTACK_DISP0_8
        MOV     A,R1
        MOVX    @DPTR,A
        MOV     A,#0x4
        LCALL   ?XSTACK_DISP0_8
        MOV     A,R0
        MOVX    @DPTR,A
// 1360   /*给选出的邻居发送数据*/
// 1361   if((Nei_Table[nei_index] != (int16)65534) && (0<=nei_index) && (nei_index<NEI_NUM))
        MOV     A,#-0x2
        XRL     A,R2
        JNZ     ??SampleApp_SendPointToPointMessage_0
        MOV     A,#-0x1
        XRL     A,R3
??SampleApp_SendPointToPointMessage_0:
        JNZ     $+5
        LJMP    ??CrossCallReturnLabel_36 & 0xFFFF
        MOV     A,R6
        CLR     C
        SUBB    A,#0x0
        XRL     A,PSW
        RLC     A
        JNC     $+5
        LJMP    ??CrossCallReturnLabel_36 & 0xFFFF
        MOV     DPTR,#NEI_NUM
        MOVX    A,@DPTR
        MOV     R0,A
        MOV     A,R6
        CLR     C
        SUBB    A,R0
        MOV     C,0xD0 /* PSW */.2
        XRL     A,PSW
        RLC     A
        JC      $+5
        LJMP    ??CrossCallReturnLabel_36 & 0xFFFF
// 1362   {
// 1363     Point_To_Point_DstAddr.addr.shortAddr = Exchanging_Neighbor;
        MOV     DPTR,#Exchanging_Neighbor
        LCALL   ?Subroutine50 & 0xFFFF
??CrossCallReturnLabel_136:
        MOV     DPTR,#Point_To_Point_DstAddr
        MOV     A,R0
        MOVX    @DPTR,A
        INC     DPTR
        MOV     A,R1
        MOVX    @DPTR,A
// 1364     if ( AF_DataRequest( &Point_To_Point_DstAddr, //点对点通信方式目标地址
// 1365                         &SampleApp_epDesc,
// 1366                         SAMPLEAPP_POINT_TO_POINT_CLUSTERID, //点对点簇ID
// 1367                         4,
// 1368                         _DATA,
// 1369                         &SampleApp_TransID,
// 1370                         AF_DISCV_ROUTE,
// 1371                         AF_DEFAULT_RADIUS ) == afStatus_SUCCESS )
        ; Setup parameters for call to function AF_DataRequest
        MOV     ?V0 + 1,#0x1e
        MOV     R0,#?V0 + 1
        LCALL   ?PUSH_XSTACK_I_ONE
        CFI CFA_XSP16 add(XSP16, 18)
        MOV     ?V0 + 2,#SampleApp_TransID & 0xff
        MOV     ?V0 + 3,#(SampleApp_TransID >> 8) & 0xff
        MOV     R0,#?V0 + 2
        LCALL   ?PUSH_XSTACK_I_TWO
        CFI CFA_XSP16 add(XSP16, 20)
        MOV     A,#0x4
        LCALL   ?XSTACK_DISP0_8
        MOV     ?V0 + 2,DPL
        MOV     ?V0 + 3,DPH
        MOV     R0,#?V0 + 2
        LCALL   ?PUSH_XSTACK_I_TWO
        CFI CFA_XSP16 add(XSP16, 22)
        MOV     ?V0 + 2,#0x4
        MOV     ?V0 + 3,#0x0
        MOV     R0,#?V0 + 2
        LCALL   ?PUSH_XSTACK_I_TWO
        CFI CFA_XSP16 add(XSP16, 24)
        MOV     R0,#?V0 + 2
        LCALL   ?PUSH_XSTACK_I_TWO
        CFI CFA_XSP16 add(XSP16, 26)
        LCALL   ?Subroutine36 & 0xFFFF
??CrossCallReturnLabel_112:
        LCALL   ?DEALLOC_XSTACK8
        CFI CFA_XSP16 add(XSP16, 17)
        MOV     A,R1
        JNZ     ??SampleApp_SendPointToPointMessage_1
// 1372     {
// 1373       HalLedBlink( HAL_LED_1, 1, 60, (flashTime / 3) ); //led1闪
        ; Setup parameters for call to function HalLedBlink
        MOV     R4,#0x4d
        MOV     R5,#0x1
        MOV     R3,#0x3c
        MOV     R2,#0x1
        MOV     R1,#0x1
        LCALL   ??HalLedBlink?relay
// 1374       Waiting_Request = TRUE; //请求交换数据包标志位
        MOV     DPTR,#Waiting_Request
        MOV     A,#0x1
        MOVX    @DPTR,A
        SJMP    ??SampleApp_SendPointToPointMessage_2
// 1375     }
// 1376     else
// 1377     {
// 1378       HalUARTWrite(0,"交换数据包请求发送失败.",strlen("交换数据包请求发送失败."));
??SampleApp_SendPointToPointMessage_1:
        ; Setup parameters for call to function HalUARTWrite
        MOV     R4,#0x17
        MOV     R5,#0x0
        MOV     R2,#`?<Constant "\\275\\273\\273\\273\\312\\375\\276\\335\\2` & 0xff
        MOV     R3,#(`?<Constant "\\275\\273\\273\\273\\312\\375\\276\\335\\2` >> 8) & 0xff
        MOV     R1,#0x0
        LCALL   ??HalUARTWrite?relay
// 1379     }
// 1380     
// 1381     
// 1382     uchar INDEX = nei_index + '0';
??SampleApp_SendPointToPointMessage_2:
        MOV     A,#0x30
        ADD     A,R6
        MOV     DPL,?XSP + 0
        MOV     DPH,?XSP + 1
        MOVX    @DPTR,A
// 1383     HalUARTWrite(0,"send      *", 11);
        ; Setup parameters for call to function HalUARTWrite
        MOV     R4,#0xb
        MOV     R5,#0x0
        MOV     R2,#`?<Constant "send      *">` & 0xff
        MOV     R3,#(`?<Constant "send      *">` >> 8) & 0xff
        LCALL   ??Subroutine71_0 & 0xFFFF
// 1384     
// 1385     Show_Bit(Exchanging_Data, 8);
??CrossCallReturnLabel_147:
        MOV     DPTR,#Exchanging_Data
        MOVX    A,@DPTR
        MOV     R2,A
        LCALL   ?Subroutine20 & 0xFFFF
// 1386     HalUARTWrite(0," ",1);
// 1387 //    Show_Bit(degree_high,8);
// 1388 //    HalUARTWrite(0," ",1);
// 1389     Show_Bit(degree_low,8);
??CrossCallReturnLabel_144:
        MOV     R2,?V0 + 0
        MOV     R3,#0x0
        LCALL   ??Show_Bit?relay
// 1390     
// 1391     HalUARTWrite(0," to addr ", 9);
        ; Setup parameters for call to function HalUARTWrite
        MOV     R4,#0x9
        MOV     R5,#0x0
        MOV     R2,#`?<Constant " to addr ">` & 0xff
        MOV     R3,#(`?<Constant " to addr ">` >> 8) & 0xff
        LCALL   ?Subroutine43 & 0xFFFF
// 1392     HalUARTWrite(0,&INDEX,1);
// 1393     HalUARTWrite(0,"\n",1);
// 1394   }
??CrossCallReturnLabel_161:
        MOV     DPL,?XSP + 0
        MOV     DPH,?XSP + 1
        MOV     R2,DPL
        MOV     R3,DPH
        MOV     R1,#0x0
        LCALL   ?Subroutine18 & 0xFFFF
// 1395 
// 1396 }
??CrossCallReturnLabel_36:
        MOV     A,#0x5
        LCALL   ?DEALLOC_XSTACK8
        CFI CFA_XSP16 add(XSP16, 12)
        LJMP    ?Subroutine1 & 0xFFFF
        CFI EndBlock cfiBlock347

        RSEG BANKED_CODE:CODE:NOROOT(0)
?Subroutine23:
        CFI Block cfiCond348 Using cfiCommon0
        CFI NoFunction
        CFI Conditional ??CrossCallReturnLabel_41
        CFI R6 load(1, XDATA, add(CFA_XSP16, literal(-20)))
        CFI VB load(1, XDATA, add(CFA_XSP16, literal(-19)))
        CFI V0 load(1, XDATA, add(CFA_XSP16, literal(-18)))
        CFI V1 load(1, XDATA, add(CFA_XSP16, literal(-17)))
        CFI V2 load(1, XDATA, add(CFA_XSP16, literal(-16)))
        CFI V3 load(1, XDATA, add(CFA_XSP16, literal(-15)))
        CFI V4 load(1, XDATA, add(CFA_XSP16, literal(-14)))
        CFI V5 load(1, XDATA, add(CFA_XSP16, literal(-13)))
        CFI V6 load(1, XDATA, add(CFA_XSP16, literal(-12)))
        CFI V7 load(1, XDATA, add(CFA_XSP16, literal(-11)))
        CFI V8 load(1, XDATA, add(CFA_XSP16, literal(-10)))
        CFI V9 load(1, XDATA, add(CFA_XSP16, literal(-9)))
        CFI V10 load(1, XDATA, add(CFA_XSP16, literal(-8)))
        CFI V11 load(1, XDATA, add(CFA_XSP16, literal(-7)))
        CFI R7 load(1, XDATA, add(CFA_XSP16, literal(-6)))
        CFI ?RET_LOW load(1, XDATA, add(CFA_XSP16, literal(-5)))
        CFI ?RET_HIGH load(1, XDATA, add(CFA_XSP16, literal(-4)))
        CFI ?BRET_EXT load(1, XDATA, add(CFA_XSP16, literal(-3)))
        CFI DPL0 load(1, XDATA, add(CFA_XSP16, literal(-2)))
        CFI DPH0 load(1, XDATA, add(CFA_XSP16, literal(-1)))
        CFI CFA_SP SP+0
        CFI CFA_XSP16 add(XSP16, 33)
        CFI Block cfiCond349 Using cfiCommon0
        CFI (cfiCond349) NoFunction
        CFI (cfiCond349) Conditional ??CrossCallReturnLabel_42
        CFI (cfiCond349) R6 load(1, XDATA, add(CFA_XSP16, literal(-20)))
        CFI (cfiCond349) VB load(1, XDATA, add(CFA_XSP16, literal(-19)))
        CFI (cfiCond349) V0 load(1, XDATA, add(CFA_XSP16, literal(-18)))
        CFI (cfiCond349) V1 load(1, XDATA, add(CFA_XSP16, literal(-17)))
        CFI (cfiCond349) V2 load(1, XDATA, add(CFA_XSP16, literal(-16)))
        CFI (cfiCond349) V3 load(1, XDATA, add(CFA_XSP16, literal(-15)))
        CFI (cfiCond349) V4 load(1, XDATA, add(CFA_XSP16, literal(-14)))
        CFI (cfiCond349) V5 load(1, XDATA, add(CFA_XSP16, literal(-13)))
        CFI (cfiCond349) V6 load(1, XDATA, add(CFA_XSP16, literal(-12)))
        CFI (cfiCond349) V7 load(1, XDATA, add(CFA_XSP16, literal(-11)))
        CFI (cfiCond349) V8 load(1, XDATA, add(CFA_XSP16, literal(-10)))
        CFI (cfiCond349) V9 load(1, XDATA, add(CFA_XSP16, literal(-9)))
        CFI (cfiCond349) V10 load(1, XDATA, add(CFA_XSP16, literal(-8)))
        CFI (cfiCond349) V11 load(1, XDATA, add(CFA_XSP16, literal(-7)))
        CFI (cfiCond349) R7 load(1, XDATA, add(CFA_XSP16, literal(-6)))
        CFI (cfiCond349) ?RET_LOW load(1, XDATA, add(CFA_XSP16, literal(-5)))
        CFI (cfiCond349) ?RET_HIGH load(1, XDATA, add(CFA_XSP16, literal(-4)))
        CFI (cfiCond349) ?BRET_EXT load(1, XDATA, add(CFA_XSP16, literal(-3)))
        CFI (cfiCond349) DPL0 load(1, XDATA, add(CFA_XSP16, literal(-2)))
        CFI (cfiCond349) DPH0 load(1, XDATA, add(CFA_XSP16, literal(-1)))
        CFI (cfiCond349) CFA_SP SP+0
        CFI (cfiCond349) CFA_XSP16 add(XSP16, 33)
        CFI Block cfiCond350 Using cfiCommon0
        CFI (cfiCond350) NoFunction
        CFI (cfiCond350) Conditional ??CrossCallReturnLabel_43
        CFI (cfiCond350) R6 load(1, XDATA, add(CFA_XSP16, literal(-12)))
        CFI (cfiCond350) VB load(1, XDATA, add(CFA_XSP16, literal(-11)))
        CFI (cfiCond350) V0 load(1, XDATA, add(CFA_XSP16, literal(-10)))
        CFI (cfiCond350) V1 load(1, XDATA, add(CFA_XSP16, literal(-9)))
        CFI (cfiCond350) V2 load(1, XDATA, add(CFA_XSP16, literal(-8)))
        CFI (cfiCond350) V3 load(1, XDATA, add(CFA_XSP16, literal(-7)))
        CFI (cfiCond350) R7 load(1, XDATA, add(CFA_XSP16, literal(-6)))
        CFI (cfiCond350) ?RET_LOW load(1, XDATA, add(CFA_XSP16, literal(-5)))
        CFI (cfiCond350) ?RET_HIGH load(1, XDATA, add(CFA_XSP16, literal(-4)))
        CFI (cfiCond350) ?BRET_EXT load(1, XDATA, add(CFA_XSP16, literal(-3)))
        CFI (cfiCond350) DPL0 load(1, XDATA, add(CFA_XSP16, literal(-2)))
        CFI (cfiCond350) DPH0 load(1, XDATA, add(CFA_XSP16, literal(-1)))
        CFI (cfiCond350) CFA_SP SP+0
        CFI (cfiCond350) CFA_XSP16 add(XSP16, 17)
        CFI Block cfiPicker351 Using cfiCommon1
        CFI (cfiPicker351) NoFunction
        CFI (cfiPicker351) Picker
        LCALL   ?Subroutine55 & 0xFFFF
??CrossCallReturnLabel_84:
        MOVX    A,@DPTR
        RET
        CFI EndBlock cfiCond348
        CFI EndBlock cfiCond349
        CFI EndBlock cfiCond350
        CFI EndBlock cfiPicker351

        RSEG BANKED_CODE:CODE:NOROOT(0)
?Subroutine55:
        CFI Block cfiCond352 Using cfiCommon0
        CFI NoFunction
        CFI Conditional ??CrossCallReturnLabel_83, ??CrossCallReturnLabel_39
        CFI R6 load(1, XDATA, add(CFA_XSP16, literal(-20)))
        CFI VB load(1, XDATA, add(CFA_XSP16, literal(-19)))
        CFI V0 load(1, XDATA, add(CFA_XSP16, literal(-18)))
        CFI V1 load(1, XDATA, add(CFA_XSP16, literal(-17)))
        CFI V2 load(1, XDATA, add(CFA_XSP16, literal(-16)))
        CFI V3 load(1, XDATA, add(CFA_XSP16, literal(-15)))
        CFI V4 load(1, XDATA, add(CFA_XSP16, literal(-14)))
        CFI V5 load(1, XDATA, add(CFA_XSP16, literal(-13)))
        CFI V6 load(1, XDATA, add(CFA_XSP16, literal(-12)))
        CFI V7 load(1, XDATA, add(CFA_XSP16, literal(-11)))
        CFI V8 load(1, XDATA, add(CFA_XSP16, literal(-10)))
        CFI V9 load(1, XDATA, add(CFA_XSP16, literal(-9)))
        CFI V10 load(1, XDATA, add(CFA_XSP16, literal(-8)))
        CFI V11 load(1, XDATA, add(CFA_XSP16, literal(-7)))
        CFI R7 load(1, XDATA, add(CFA_XSP16, literal(-6)))
        CFI ?RET_LOW load(1, XDATA, add(CFA_XSP16, literal(-5)))
        CFI ?RET_HIGH load(1, XDATA, add(CFA_XSP16, literal(-4)))
        CFI ?BRET_EXT load(1, XDATA, add(CFA_XSP16, literal(-3)))
        CFI DPL0 load(1, XDATA, add(CFA_XSP16, literal(-2)))
        CFI DPH0 load(1, XDATA, add(CFA_XSP16, literal(-1)))
        CFI CFA_SP SP+0
        CFI CFA_XSP16 add(XSP16, 33)
        CFI Block cfiCond353 Using cfiCommon0
        CFI (cfiCond353) NoFunction
        CFI (cfiCond353) Conditional ??CrossCallReturnLabel_83, ??CrossCallReturnLabel_40
        CFI (cfiCond353) R6 load(1, XDATA, add(CFA_XSP16, literal(-20)))
        CFI (cfiCond353) VB load(1, XDATA, add(CFA_XSP16, literal(-19)))
        CFI (cfiCond353) V0 load(1, XDATA, add(CFA_XSP16, literal(-18)))
        CFI (cfiCond353) V1 load(1, XDATA, add(CFA_XSP16, literal(-17)))
        CFI (cfiCond353) V2 load(1, XDATA, add(CFA_XSP16, literal(-16)))
        CFI (cfiCond353) V3 load(1, XDATA, add(CFA_XSP16, literal(-15)))
        CFI (cfiCond353) V4 load(1, XDATA, add(CFA_XSP16, literal(-14)))
        CFI (cfiCond353) V5 load(1, XDATA, add(CFA_XSP16, literal(-13)))
        CFI (cfiCond353) V6 load(1, XDATA, add(CFA_XSP16, literal(-12)))
        CFI (cfiCond353) V7 load(1, XDATA, add(CFA_XSP16, literal(-11)))
        CFI (cfiCond353) V8 load(1, XDATA, add(CFA_XSP16, literal(-10)))
        CFI (cfiCond353) V9 load(1, XDATA, add(CFA_XSP16, literal(-9)))
        CFI (cfiCond353) V10 load(1, XDATA, add(CFA_XSP16, literal(-8)))
        CFI (cfiCond353) V11 load(1, XDATA, add(CFA_XSP16, literal(-7)))
        CFI (cfiCond353) R7 load(1, XDATA, add(CFA_XSP16, literal(-6)))
        CFI (cfiCond353) ?RET_LOW load(1, XDATA, add(CFA_XSP16, literal(-5)))
        CFI (cfiCond353) ?RET_HIGH load(1, XDATA, add(CFA_XSP16, literal(-4)))
        CFI (cfiCond353) ?BRET_EXT load(1, XDATA, add(CFA_XSP16, literal(-3)))
        CFI (cfiCond353) DPL0 load(1, XDATA, add(CFA_XSP16, literal(-2)))
        CFI (cfiCond353) DPH0 load(1, XDATA, add(CFA_XSP16, literal(-1)))
        CFI (cfiCond353) CFA_SP SP+0
        CFI (cfiCond353) CFA_XSP16 add(XSP16, 33)
        CFI Block cfiCond354 Using cfiCommon0
        CFI (cfiCond354) NoFunction
        CFI (cfiCond354) Conditional ??CrossCallReturnLabel_84, ??CrossCallReturnLabel_41
        CFI (cfiCond354) R6 load(1, XDATA, add(CFA_XSP16, literal(-20)))
        CFI (cfiCond354) VB load(1, XDATA, add(CFA_XSP16, literal(-19)))
        CFI (cfiCond354) V0 load(1, XDATA, add(CFA_XSP16, literal(-18)))
        CFI (cfiCond354) V1 load(1, XDATA, add(CFA_XSP16, literal(-17)))
        CFI (cfiCond354) V2 load(1, XDATA, add(CFA_XSP16, literal(-16)))
        CFI (cfiCond354) V3 load(1, XDATA, add(CFA_XSP16, literal(-15)))
        CFI (cfiCond354) V4 load(1, XDATA, add(CFA_XSP16, literal(-14)))
        CFI (cfiCond354) V5 load(1, XDATA, add(CFA_XSP16, literal(-13)))
        CFI (cfiCond354) V6 load(1, XDATA, add(CFA_XSP16, literal(-12)))
        CFI (cfiCond354) V7 load(1, XDATA, add(CFA_XSP16, literal(-11)))
        CFI (cfiCond354) V8 load(1, XDATA, add(CFA_XSP16, literal(-10)))
        CFI (cfiCond354) V9 load(1, XDATA, add(CFA_XSP16, literal(-9)))
        CFI (cfiCond354) V10 load(1, XDATA, add(CFA_XSP16, literal(-8)))
        CFI (cfiCond354) V11 load(1, XDATA, add(CFA_XSP16, literal(-7)))
        CFI (cfiCond354) R7 load(1, XDATA, add(CFA_XSP16, literal(-6)))
        CFI (cfiCond354) ?RET_LOW load(1, XDATA, add(CFA_XSP16, literal(-5)))
        CFI (cfiCond354) ?RET_HIGH load(1, XDATA, add(CFA_XSP16, literal(-4)))
        CFI (cfiCond354) ?BRET_EXT load(1, XDATA, add(CFA_XSP16, literal(-3)))
        CFI (cfiCond354) DPL0 load(1, XDATA, add(CFA_XSP16, literal(-2)))
        CFI (cfiCond354) DPH0 load(1, XDATA, add(CFA_XSP16, literal(-1)))
        CFI (cfiCond354) CFA_SP SP+0
        CFI (cfiCond354) CFA_XSP16 add(XSP16, 33)
        CFI Block cfiCond355 Using cfiCommon0
        CFI (cfiCond355) NoFunction
        CFI (cfiCond355) Conditional ??CrossCallReturnLabel_84, ??CrossCallReturnLabel_42
        CFI (cfiCond355) R6 load(1, XDATA, add(CFA_XSP16, literal(-20)))
        CFI (cfiCond355) VB load(1, XDATA, add(CFA_XSP16, literal(-19)))
        CFI (cfiCond355) V0 load(1, XDATA, add(CFA_XSP16, literal(-18)))
        CFI (cfiCond355) V1 load(1, XDATA, add(CFA_XSP16, literal(-17)))
        CFI (cfiCond355) V2 load(1, XDATA, add(CFA_XSP16, literal(-16)))
        CFI (cfiCond355) V3 load(1, XDATA, add(CFA_XSP16, literal(-15)))
        CFI (cfiCond355) V4 load(1, XDATA, add(CFA_XSP16, literal(-14)))
        CFI (cfiCond355) V5 load(1, XDATA, add(CFA_XSP16, literal(-13)))
        CFI (cfiCond355) V6 load(1, XDATA, add(CFA_XSP16, literal(-12)))
        CFI (cfiCond355) V7 load(1, XDATA, add(CFA_XSP16, literal(-11)))
        CFI (cfiCond355) V8 load(1, XDATA, add(CFA_XSP16, literal(-10)))
        CFI (cfiCond355) V9 load(1, XDATA, add(CFA_XSP16, literal(-9)))
        CFI (cfiCond355) V10 load(1, XDATA, add(CFA_XSP16, literal(-8)))
        CFI (cfiCond355) V11 load(1, XDATA, add(CFA_XSP16, literal(-7)))
        CFI (cfiCond355) R7 load(1, XDATA, add(CFA_XSP16, literal(-6)))
        CFI (cfiCond355) ?RET_LOW load(1, XDATA, add(CFA_XSP16, literal(-5)))
        CFI (cfiCond355) ?RET_HIGH load(1, XDATA, add(CFA_XSP16, literal(-4)))
        CFI (cfiCond355) ?BRET_EXT load(1, XDATA, add(CFA_XSP16, literal(-3)))
        CFI (cfiCond355) DPL0 load(1, XDATA, add(CFA_XSP16, literal(-2)))
        CFI (cfiCond355) DPH0 load(1, XDATA, add(CFA_XSP16, literal(-1)))
        CFI (cfiCond355) CFA_SP SP+0
        CFI (cfiCond355) CFA_XSP16 add(XSP16, 33)
        CFI Block cfiCond356 Using cfiCommon0
        CFI (cfiCond356) NoFunction
        CFI (cfiCond356) Conditional ??CrossCallReturnLabel_84, ??CrossCallReturnLabel_43
        CFI (cfiCond356) R6 load(1, XDATA, add(CFA_XSP16, literal(-12)))
        CFI (cfiCond356) VB load(1, XDATA, add(CFA_XSP16, literal(-11)))
        CFI (cfiCond356) V0 load(1, XDATA, add(CFA_XSP16, literal(-10)))
        CFI (cfiCond356) V1 load(1, XDATA, add(CFA_XSP16, literal(-9)))
        CFI (cfiCond356) V2 load(1, XDATA, add(CFA_XSP16, literal(-8)))
        CFI (cfiCond356) V3 load(1, XDATA, add(CFA_XSP16, literal(-7)))
        CFI (cfiCond356) R7 load(1, XDATA, add(CFA_XSP16, literal(-6)))
        CFI (cfiCond356) ?RET_LOW load(1, XDATA, add(CFA_XSP16, literal(-5)))
        CFI (cfiCond356) ?RET_HIGH load(1, XDATA, add(CFA_XSP16, literal(-4)))
        CFI (cfiCond356) ?BRET_EXT load(1, XDATA, add(CFA_XSP16, literal(-3)))
        CFI (cfiCond356) DPL0 load(1, XDATA, add(CFA_XSP16, literal(-2)))
        CFI (cfiCond356) DPH0 load(1, XDATA, add(CFA_XSP16, literal(-1)))
        CFI (cfiCond356) CFA_SP SP+0
        CFI (cfiCond356) CFA_XSP16 add(XSP16, 17)
        CFI Block cfiPicker357 Using cfiCommon1
        CFI (cfiPicker357) NoFunction
        CFI (cfiPicker357) Picker
        LCALL   ?Subroutine59 & 0xFFFF
??CrossCallReturnLabel_92:
        MOV     DPL,R0
        MOV     DPH,R1
        RET
        CFI EndBlock cfiCond352
        CFI EndBlock cfiCond353
        CFI EndBlock cfiCond354
        CFI EndBlock cfiCond355
        CFI EndBlock cfiCond356
        CFI EndBlock cfiPicker357

        RSEG BANKED_CODE:CODE:NOROOT(0)
?Subroutine59:
        CFI Block cfiCond358 Using cfiCommon0
        CFI NoFunction
        CFI Conditional ??CrossCallReturnLabel_91
        CFI R6 load(1, XDATA, add(CFA_XSP16, literal(-11)))
        CFI VB load(1, XDATA, add(CFA_XSP16, literal(-10)))
        CFI V0 load(1, XDATA, add(CFA_XSP16, literal(-9)))
        CFI V1 load(1, XDATA, add(CFA_XSP16, literal(-8)))
        CFI V2 load(1, XDATA, add(CFA_XSP16, literal(-7)))
        CFI R7 load(1, XDATA, add(CFA_XSP16, literal(-6)))
        CFI ?RET_LOW load(1, XDATA, add(CFA_XSP16, literal(-5)))
        CFI ?RET_HIGH load(1, XDATA, add(CFA_XSP16, literal(-4)))
        CFI ?BRET_EXT load(1, XDATA, add(CFA_XSP16, literal(-3)))
        CFI DPL0 load(1, XDATA, add(CFA_XSP16, literal(-2)))
        CFI DPH0 load(1, XDATA, add(CFA_XSP16, literal(-1)))
        CFI CFA_SP SP+0
        CFI CFA_XSP16 add(XSP16, 11)
        CFI Block cfiCond359 Using cfiCommon0
        CFI (cfiCond359) NoFunction
        CFI (cfiCond359) Conditional ??CrossCallReturnLabel_92, ??CrossCallReturnLabel_83, ??CrossCallReturnLabel_39
        CFI (cfiCond359) R6 load(1, XDATA, add(CFA_XSP16, literal(-20)))
        CFI (cfiCond359) VB load(1, XDATA, add(CFA_XSP16, literal(-19)))
        CFI (cfiCond359) V0 load(1, XDATA, add(CFA_XSP16, literal(-18)))
        CFI (cfiCond359) V1 load(1, XDATA, add(CFA_XSP16, literal(-17)))
        CFI (cfiCond359) V2 load(1, XDATA, add(CFA_XSP16, literal(-16)))
        CFI (cfiCond359) V3 load(1, XDATA, add(CFA_XSP16, literal(-15)))
        CFI (cfiCond359) V4 load(1, XDATA, add(CFA_XSP16, literal(-14)))
        CFI (cfiCond359) V5 load(1, XDATA, add(CFA_XSP16, literal(-13)))
        CFI (cfiCond359) V6 load(1, XDATA, add(CFA_XSP16, literal(-12)))
        CFI (cfiCond359) V7 load(1, XDATA, add(CFA_XSP16, literal(-11)))
        CFI (cfiCond359) V8 load(1, XDATA, add(CFA_XSP16, literal(-10)))
        CFI (cfiCond359) V9 load(1, XDATA, add(CFA_XSP16, literal(-9)))
        CFI (cfiCond359) V10 load(1, XDATA, add(CFA_XSP16, literal(-8)))
        CFI (cfiCond359) V11 load(1, XDATA, add(CFA_XSP16, literal(-7)))
        CFI (cfiCond359) R7 load(1, XDATA, add(CFA_XSP16, literal(-6)))
        CFI (cfiCond359) ?RET_LOW load(1, XDATA, add(CFA_XSP16, literal(-5)))
        CFI (cfiCond359) ?RET_HIGH load(1, XDATA, add(CFA_XSP16, literal(-4)))
        CFI (cfiCond359) ?BRET_EXT load(1, XDATA, add(CFA_XSP16, literal(-3)))
        CFI (cfiCond359) DPL0 load(1, XDATA, add(CFA_XSP16, literal(-2)))
        CFI (cfiCond359) DPH0 load(1, XDATA, add(CFA_XSP16, literal(-1)))
        CFI (cfiCond359) CFA_SP SP+0
        CFI (cfiCond359) CFA_XSP16 add(XSP16, 33)
        CFI Block cfiCond360 Using cfiCommon0
        CFI (cfiCond360) NoFunction
        CFI (cfiCond360) Conditional ??CrossCallReturnLabel_92, ??CrossCallReturnLabel_83, ??CrossCallReturnLabel_40
        CFI (cfiCond360) R6 load(1, XDATA, add(CFA_XSP16, literal(-20)))
        CFI (cfiCond360) VB load(1, XDATA, add(CFA_XSP16, literal(-19)))
        CFI (cfiCond360) V0 load(1, XDATA, add(CFA_XSP16, literal(-18)))
        CFI (cfiCond360) V1 load(1, XDATA, add(CFA_XSP16, literal(-17)))
        CFI (cfiCond360) V2 load(1, XDATA, add(CFA_XSP16, literal(-16)))
        CFI (cfiCond360) V3 load(1, XDATA, add(CFA_XSP16, literal(-15)))
        CFI (cfiCond360) V4 load(1, XDATA, add(CFA_XSP16, literal(-14)))
        CFI (cfiCond360) V5 load(1, XDATA, add(CFA_XSP16, literal(-13)))
        CFI (cfiCond360) V6 load(1, XDATA, add(CFA_XSP16, literal(-12)))
        CFI (cfiCond360) V7 load(1, XDATA, add(CFA_XSP16, literal(-11)))
        CFI (cfiCond360) V8 load(1, XDATA, add(CFA_XSP16, literal(-10)))
        CFI (cfiCond360) V9 load(1, XDATA, add(CFA_XSP16, literal(-9)))
        CFI (cfiCond360) V10 load(1, XDATA, add(CFA_XSP16, literal(-8)))
        CFI (cfiCond360) V11 load(1, XDATA, add(CFA_XSP16, literal(-7)))
        CFI (cfiCond360) R7 load(1, XDATA, add(CFA_XSP16, literal(-6)))
        CFI (cfiCond360) ?RET_LOW load(1, XDATA, add(CFA_XSP16, literal(-5)))
        CFI (cfiCond360) ?RET_HIGH load(1, XDATA, add(CFA_XSP16, literal(-4)))
        CFI (cfiCond360) ?BRET_EXT load(1, XDATA, add(CFA_XSP16, literal(-3)))
        CFI (cfiCond360) DPL0 load(1, XDATA, add(CFA_XSP16, literal(-2)))
        CFI (cfiCond360) DPH0 load(1, XDATA, add(CFA_XSP16, literal(-1)))
        CFI (cfiCond360) CFA_SP SP+0
        CFI (cfiCond360) CFA_XSP16 add(XSP16, 33)
        CFI Block cfiCond361 Using cfiCommon0
        CFI (cfiCond361) NoFunction
        CFI (cfiCond361) Conditional ??CrossCallReturnLabel_92, ??CrossCallReturnLabel_84, ??CrossCallReturnLabel_41
        CFI (cfiCond361) R6 load(1, XDATA, add(CFA_XSP16, literal(-20)))
        CFI (cfiCond361) VB load(1, XDATA, add(CFA_XSP16, literal(-19)))
        CFI (cfiCond361) V0 load(1, XDATA, add(CFA_XSP16, literal(-18)))
        CFI (cfiCond361) V1 load(1, XDATA, add(CFA_XSP16, literal(-17)))
        CFI (cfiCond361) V2 load(1, XDATA, add(CFA_XSP16, literal(-16)))
        CFI (cfiCond361) V3 load(1, XDATA, add(CFA_XSP16, literal(-15)))
        CFI (cfiCond361) V4 load(1, XDATA, add(CFA_XSP16, literal(-14)))
        CFI (cfiCond361) V5 load(1, XDATA, add(CFA_XSP16, literal(-13)))
        CFI (cfiCond361) V6 load(1, XDATA, add(CFA_XSP16, literal(-12)))
        CFI (cfiCond361) V7 load(1, XDATA, add(CFA_XSP16, literal(-11)))
        CFI (cfiCond361) V8 load(1, XDATA, add(CFA_XSP16, literal(-10)))
        CFI (cfiCond361) V9 load(1, XDATA, add(CFA_XSP16, literal(-9)))
        CFI (cfiCond361) V10 load(1, XDATA, add(CFA_XSP16, literal(-8)))
        CFI (cfiCond361) V11 load(1, XDATA, add(CFA_XSP16, literal(-7)))
        CFI (cfiCond361) R7 load(1, XDATA, add(CFA_XSP16, literal(-6)))
        CFI (cfiCond361) ?RET_LOW load(1, XDATA, add(CFA_XSP16, literal(-5)))
        CFI (cfiCond361) ?RET_HIGH load(1, XDATA, add(CFA_XSP16, literal(-4)))
        CFI (cfiCond361) ?BRET_EXT load(1, XDATA, add(CFA_XSP16, literal(-3)))
        CFI (cfiCond361) DPL0 load(1, XDATA, add(CFA_XSP16, literal(-2)))
        CFI (cfiCond361) DPH0 load(1, XDATA, add(CFA_XSP16, literal(-1)))
        CFI (cfiCond361) CFA_SP SP+0
        CFI (cfiCond361) CFA_XSP16 add(XSP16, 33)
        CFI Block cfiCond362 Using cfiCommon0
        CFI (cfiCond362) NoFunction
        CFI (cfiCond362) Conditional ??CrossCallReturnLabel_92, ??CrossCallReturnLabel_84, ??CrossCallReturnLabel_42
        CFI (cfiCond362) R6 load(1, XDATA, add(CFA_XSP16, literal(-20)))
        CFI (cfiCond362) VB load(1, XDATA, add(CFA_XSP16, literal(-19)))
        CFI (cfiCond362) V0 load(1, XDATA, add(CFA_XSP16, literal(-18)))
        CFI (cfiCond362) V1 load(1, XDATA, add(CFA_XSP16, literal(-17)))
        CFI (cfiCond362) V2 load(1, XDATA, add(CFA_XSP16, literal(-16)))
        CFI (cfiCond362) V3 load(1, XDATA, add(CFA_XSP16, literal(-15)))
        CFI (cfiCond362) V4 load(1, XDATA, add(CFA_XSP16, literal(-14)))
        CFI (cfiCond362) V5 load(1, XDATA, add(CFA_XSP16, literal(-13)))
        CFI (cfiCond362) V6 load(1, XDATA, add(CFA_XSP16, literal(-12)))
        CFI (cfiCond362) V7 load(1, XDATA, add(CFA_XSP16, literal(-11)))
        CFI (cfiCond362) V8 load(1, XDATA, add(CFA_XSP16, literal(-10)))
        CFI (cfiCond362) V9 load(1, XDATA, add(CFA_XSP16, literal(-9)))
        CFI (cfiCond362) V10 load(1, XDATA, add(CFA_XSP16, literal(-8)))
        CFI (cfiCond362) V11 load(1, XDATA, add(CFA_XSP16, literal(-7)))
        CFI (cfiCond362) R7 load(1, XDATA, add(CFA_XSP16, literal(-6)))
        CFI (cfiCond362) ?RET_LOW load(1, XDATA, add(CFA_XSP16, literal(-5)))
        CFI (cfiCond362) ?RET_HIGH load(1, XDATA, add(CFA_XSP16, literal(-4)))
        CFI (cfiCond362) ?BRET_EXT load(1, XDATA, add(CFA_XSP16, literal(-3)))
        CFI (cfiCond362) DPL0 load(1, XDATA, add(CFA_XSP16, literal(-2)))
        CFI (cfiCond362) DPH0 load(1, XDATA, add(CFA_XSP16, literal(-1)))
        CFI (cfiCond362) CFA_SP SP+0
        CFI (cfiCond362) CFA_XSP16 add(XSP16, 33)
        CFI Block cfiCond363 Using cfiCommon0
        CFI (cfiCond363) NoFunction
        CFI (cfiCond363) Conditional ??CrossCallReturnLabel_92, ??CrossCallReturnLabel_84, ??CrossCallReturnLabel_43
        CFI (cfiCond363) R6 load(1, XDATA, add(CFA_XSP16, literal(-12)))
        CFI (cfiCond363) VB load(1, XDATA, add(CFA_XSP16, literal(-11)))
        CFI (cfiCond363) V0 load(1, XDATA, add(CFA_XSP16, literal(-10)))
        CFI (cfiCond363) V1 load(1, XDATA, add(CFA_XSP16, literal(-9)))
        CFI (cfiCond363) V2 load(1, XDATA, add(CFA_XSP16, literal(-8)))
        CFI (cfiCond363) V3 load(1, XDATA, add(CFA_XSP16, literal(-7)))
        CFI (cfiCond363) R7 load(1, XDATA, add(CFA_XSP16, literal(-6)))
        CFI (cfiCond363) ?RET_LOW load(1, XDATA, add(CFA_XSP16, literal(-5)))
        CFI (cfiCond363) ?RET_HIGH load(1, XDATA, add(CFA_XSP16, literal(-4)))
        CFI (cfiCond363) ?BRET_EXT load(1, XDATA, add(CFA_XSP16, literal(-3)))
        CFI (cfiCond363) DPL0 load(1, XDATA, add(CFA_XSP16, literal(-2)))
        CFI (cfiCond363) DPH0 load(1, XDATA, add(CFA_XSP16, literal(-1)))
        CFI (cfiCond363) CFA_SP SP+0
        CFI (cfiCond363) CFA_XSP16 add(XSP16, 17)
        CFI Block cfiPicker364 Using cfiCommon1
        CFI (cfiPicker364) NoFunction
        CFI (cfiPicker364) Picker
        MOV     A,#DATA_SLOT & 0xff
        ADD     A,?V0 + 0
        MOV     R0,A
        MOV     A,#(DATA_SLOT >> 8) & 0xff
        ADDC    A,?V0 + 1
        MOV     R1,A
        RET
        CFI EndBlock cfiCond358
        CFI EndBlock cfiCond359
        CFI EndBlock cfiCond360
        CFI EndBlock cfiCond361
        CFI EndBlock cfiCond362
        CFI EndBlock cfiCond363
        CFI EndBlock cfiPicker364

        RSEG BANKED_CODE:CODE:NOROOT(0)
?Subroutine18:
        CFI Block cfiCond365 Using cfiCommon0
        CFI NoFunction
        CFI Conditional ??CrossCallReturnLabel_35
        CFI R6 load(1, XDATA, add(CFA_XSP16, literal(-20)))
        CFI VB load(1, XDATA, add(CFA_XSP16, literal(-19)))
        CFI V0 load(1, XDATA, add(CFA_XSP16, literal(-18)))
        CFI V1 load(1, XDATA, add(CFA_XSP16, literal(-17)))
        CFI V2 load(1, XDATA, add(CFA_XSP16, literal(-16)))
        CFI V3 load(1, XDATA, add(CFA_XSP16, literal(-15)))
        CFI V4 load(1, XDATA, add(CFA_XSP16, literal(-14)))
        CFI V5 load(1, XDATA, add(CFA_XSP16, literal(-13)))
        CFI V6 load(1, XDATA, add(CFA_XSP16, literal(-12)))
        CFI V7 load(1, XDATA, add(CFA_XSP16, literal(-11)))
        CFI V8 load(1, XDATA, add(CFA_XSP16, literal(-10)))
        CFI V9 load(1, XDATA, add(CFA_XSP16, literal(-9)))
        CFI V10 load(1, XDATA, add(CFA_XSP16, literal(-8)))
        CFI V11 load(1, XDATA, add(CFA_XSP16, literal(-7)))
        CFI R7 load(1, XDATA, add(CFA_XSP16, literal(-6)))
        CFI ?RET_LOW load(1, XDATA, add(CFA_XSP16, literal(-5)))
        CFI ?RET_HIGH load(1, XDATA, add(CFA_XSP16, literal(-4)))
        CFI ?BRET_EXT load(1, XDATA, add(CFA_XSP16, literal(-3)))
        CFI DPL0 load(1, XDATA, add(CFA_XSP16, literal(-2)))
        CFI DPH0 load(1, XDATA, add(CFA_XSP16, literal(-1)))
        CFI CFA_SP SP+0
        CFI CFA_XSP16 add(XSP16, 33)
        CFI Block cfiCond366 Using cfiCommon0
        CFI (cfiCond366) NoFunction
        CFI (cfiCond366) Conditional ??CrossCallReturnLabel_36
        CFI (cfiCond366) R6 load(1, XDATA, add(CFA_XSP16, literal(-12)))
        CFI (cfiCond366) VB load(1, XDATA, add(CFA_XSP16, literal(-11)))
        CFI (cfiCond366) V0 load(1, XDATA, add(CFA_XSP16, literal(-10)))
        CFI (cfiCond366) V1 load(1, XDATA, add(CFA_XSP16, literal(-9)))
        CFI (cfiCond366) V2 load(1, XDATA, add(CFA_XSP16, literal(-8)))
        CFI (cfiCond366) V3 load(1, XDATA, add(CFA_XSP16, literal(-7)))
        CFI (cfiCond366) R7 load(1, XDATA, add(CFA_XSP16, literal(-6)))
        CFI (cfiCond366) ?RET_LOW load(1, XDATA, add(CFA_XSP16, literal(-5)))
        CFI (cfiCond366) ?RET_HIGH load(1, XDATA, add(CFA_XSP16, literal(-4)))
        CFI (cfiCond366) ?BRET_EXT load(1, XDATA, add(CFA_XSP16, literal(-3)))
        CFI (cfiCond366) DPL0 load(1, XDATA, add(CFA_XSP16, literal(-2)))
        CFI (cfiCond366) DPH0 load(1, XDATA, add(CFA_XSP16, literal(-1)))
        CFI (cfiCond366) CFA_SP SP+0
        CFI (cfiCond366) CFA_XSP16 add(XSP16, 17)
        CFI Block cfiPicker367 Using cfiCommon1
        CFI (cfiPicker367) NoFunction
        CFI (cfiPicker367) Picker
        LCALL   ??Subroutine75_0 & 0xFFFF
??CrossCallReturnLabel_162:
        MOV     R2,#`?<Constant "\\n">` & 0xff
        MOV     R3,#(`?<Constant "\\n">` >> 8) & 0xff
        MOV     R1,#0x0
        LCALL   ??HalUARTWrite?relay
        RET
        CFI EndBlock cfiCond365
        CFI EndBlock cfiCond366
        CFI EndBlock cfiPicker367

        RSEG XDATA_ID:CODE:NOROOT(0)
`?<Initializer for SOURCE_DATA>`:
        DATA8
        DB 8

        RSEG XDATA_ID:CODE:NOROOT(0)
`?<Initializer for Device_ID>`:
        DATA8
        DB 3

        RSEG XDATA_ID:CODE:NOROOT(0)
`?<Initializer for LIFE_TIME>`:
        DATA8
        DB 5

        RSEG XDATA_ID:CODE:NOROOT(0)
`?<Initializer for MAX_Degree>`:
        DATA16
        DW 1

        RSEG BANK_RELAYS:CODE:REORDER:NOROOT(0)
??Show_Bit?relay:
        LCALL   ?BDISPATCH
        DATA
        DC24    Show_Bit

        RSEG BANK_RELAYS:CODE:REORDER:NOROOT(0)
??Show_Num?relay:
        LCALL   ?BDISPATCH
        DATA
        DC24    Show_Num

        RSEG BANK_RELAYS:CODE:REORDER:NOROOT(0)
??Power_of_2?relay:
        LCALL   ?BDISPATCH
        DATA
        DC24    Power_of_2

        RSEG BANK_RELAYS:CODE:REORDER:NOROOT(0)
??SampleApp_Init?relay:
        LCALL   ?BDISPATCH
        DATA
        DC24    SampleApp_Init

        RSEG BANK_RELAYS:CODE:REORDER:NOROOT(0)
??SampleApp_ProcessEvent?relay:
        LCALL   ?BDISPATCH
        DATA
        DC24    SampleApp_ProcessEvent

        RSEG BANK_RELAYS:CODE:REORDER:NOROOT(0)
??SampleApp_SendGroupMessage?relay:
        LCALL   ?BDISPATCH
        DATA
        DC24    SampleApp_SendGroupMessage

        RSEG BANK_RELAYS:CODE:REORDER:NOROOT(0)
??SampleApp_SendPeriodicMessage?relay:
        LCALL   ?BDISPATCH
        DATA
        DC24    SampleApp_SendPeriodicMessage

        RSEG BANK_RELAYS:CODE:REORDER:NOROOT(0)
??SampleApp_SendFlashMessage?relay:
        LCALL   ?BDISPATCH
        DATA
        DC24    SampleApp_SendFlashMessage

        RSEG BANK_RELAYS:CODE:REORDER:NOROOT(0)
??SampleApp_HandleKeys?relay:
        LCALL   ?BDISPATCH
        DATA
        DC24    SampleApp_HandleKeys

        RSEG BANK_RELAYS:CODE:REORDER:NOROOT(0)
??SampleApp_SerialCMD?relay:
        LCALL   ?BDISPATCH
        DATA
        DC24    SampleApp_SerialCMD

        RSEG BANK_RELAYS:CODE:REORDER:NOROOT(0)
??SampleApp_MessageMSGCB?relay:
        LCALL   ?BDISPATCH
        DATA
        DC24    SampleApp_MessageMSGCB

        RSEG BANK_RELAYS:CODE:REORDER:NOROOT(0)
??Reset_down_neighbor?relay:
        LCALL   ?BDISPATCH
        DATA
        DC24    Reset_down_neighbor

        RSEG BANK_RELAYS:CODE:REORDER:NOROOT(0)
??SampleApp_SendPointToPointMessage?relay:
        LCALL   ?BDISPATCH
        DATA
        DC24    SampleApp_SendPointToPointMessage

        RSEG XDATA_ROM_C:CONST:REORDER:NOROOT(0)
        DATA16
`?<Constant {48, 49}>`:
        DATA8
        DB 48
        DB 49

        RSEG XDATA_ROM_C:CONST:REORDER:NOROOT(0)
        DATA16
`?<Constant "0">`:
        DB "0"

        RSEG XDATA_ROM_C:CONST:REORDER:NOROOT(0)
        DATA8
`?<Constant "System is started.\\n\\n">`:
        DB "System is started.\012\012"

        RSEG XDATA_ROM_C:CONST:REORDER:NOROOT(0)
        DATA8
`?<Constant "Group 1">`:
        DB "Group 1"

        RSEG XDATA_ROM_C:CONST:REORDER:NOROOT(0)
        DATA8
`?<Constant "SampleApp">`:
        DB "SampleApp"

        RSEG XDATA_ROM_C:CONST:REORDER:NOROOT(0)
        DATA8
`?<Constant "\\nsource_data: ">`:
        DB "\012source_data: "

        RSEG XDATA_ROM_C:CONST:REORDER:NOROOT(0)
        DATA16
`?<Constant " ">`:
        DB " "

        RSEG XDATA_ROM_C:CONST:REORDER:NOROOT(0)
        DATA16
`?<Constant "\\n">`:
        DB "\012"

        RSEG XDATA_ROM_C:CONST:REORDER:NOROOT(0)
        DATA16
`?<Constant ":">`:
        DB ":"

        RSEG XDATA_ROM_C:CONST:REORDER:NOROOT(0)
        DATA8
`?<Constant " info:">`:
        DB " info:"

        RSEG XDATA_ROM_C:CONST:REORDER:NOROOT(0)
        DATA8
`?<Constant "nei_num:">`:
        DB "nei_num:"

        RSEG XDATA_ROM_C:CONST:REORDER:NOROOT(0)
        DATA32
`?<Constant ">> ">`:
        DB ">> "

        RSEG XDATA_ROM_C:CONST:REORDER:NOROOT(0)
        DATA8
`?<Constant " >">`:
        DB " >"

        RSEG XDATA_ROM_C:CONST:REORDER:NOROOT(0)
        DATA32
`?<Constant "####">`:
        DB 23H, 23H, 23H, 23H

        RSEG XDATA_ROM_C:CONST:REORDER:NOROOT(0)
        DATA8
`?<Constant "\\326\\330\\326\\303\\326\\320...">`:
        DB "\326\330\326\303\326\320..."

        RSEG XDATA_ROM_C:CONST:REORDER:NOROOT(0)
        DATA32
`?<Constant {37, 37, 37, 37}>`:
        DATA8
        DB 37
        DB 37
        DB 37
        DB 37

        RSEG XDATA_ROM_C:CONST:REORDER:NOROOT(0)
        DATA8
`?<Constant "\\317\\362Sink\\275\\332\\265\\343\\267\\2`:
        DB "\317\362Sink\275\332\265\343\267\242\313\315\302\353\327\326\312\247\260\334\012"

        RSEG XDATA_ROM_C:CONST:REORDER:NOROOT(0)
        DATA32
`?<Constant {43, 0, 0, 0}>`:
        DATA8
        DB 43
        DB 0
        DB 0
        DB 0

        RSEG XDATA_ROM_C:CONST:REORDER:NOROOT(0)
        DATA8
`?<Constant "received  ">`:
        DB "received  "

        RSEG XDATA_ROM_C:CONST:REORDER:NOROOT(0)
        DATA8
`?<Constant "peer is busy">`:
        DB "peer is busy"

        RSEG XDATA_ROM_C:CONST:REORDER:NOROOT(0)
        DATA8
`?<Constant "\\260\\374\\272\\254\\327\\324\\311\\355\\3`:
        DB "\260\374\272\254\327\324\311\355\320\305\317\242"

        RSEG XDATA_ROM_C:CONST:REORDER:NOROOT(0)
        DATA8
`?<Constant "\\307\\322">`:
        DB "\307\322"

        RSEG XDATA_ROM_C:CONST:REORDER:NOROOT(0)
        DATA8
`?<Constant "\\322\\321\\264\\357\\327\\356\\264\\363\\2`:
        DB "\322\321\264\357\327\356\264\363\266\310,"

        RSEG XDATA_ROM_C:CONST:REORDER:NOROOT(0)
        DATA16
`?<Constant ",">`:
        DB ","

        RSEG XDATA_ROM_C:CONST:REORDER:NOROOT(0)
        DATA8
`?<Constant "encoding...\\n^^">`:
        DB "encoding...\012^^"

        RSEG XDATA_ROM_C:CONST:REORDER:NOROOT(0)
        DATA32
`?<Constant "\\n||">`:
        DB "\012||"

        RSEG XDATA_ROM_C:CONST:REORDER:NOROOT(0)
        DATA32
`?<Constant "\\n->">`:
        DB "\012->"

        RSEG XDATA_ROM_C:CONST:REORDER:NOROOT(0)
        DATA8
`?<Constant "\\316\\264\\261\\340\\302\\353.\\n">`:
        DB "\316\264\261\340\302\353.\012"

        RSEG XDATA_ROM_C:CONST:REORDER:NOROOT(0)
        DATA8
`?<Constant "peer_degree = ">`:
        DB "peer_degree = "

        RSEG XDATA_ROM_C:CONST:REORDER:NOROOT(0)
        DATA8
`?<Constant "\\n\\n">`:
        DB "\012\012"

        RSEG XDATA_ROM_C:CONST:REORDER:NOROOT(0)
        DATA8
`?<Constant "i am busy!\\n">`:
        DB "i am busy!\012"

        RSEG XDATA_ROM_C:CONST:REORDER:NOROOT(0)
        DATA32
`?<Constant {36, 0, 0, 0}>`:
        DATA8
        DB 36
        DB 0
        DB 0
        DB 0

        RSEG XDATA_ROM_C:CONST:REORDER:NOROOT(0)
        DATA8
`?<Constant "send back $">`:
        DB "send back $"

        RSEG XDATA_ROM_C:CONST:REORDER:NOROOT(0)
        DATA8
`?<Constant "failed to send back\\n">`:
        DB "failed to send back\012"

        RSEG XDATA_ROM_C:CONST:REORDER:NOROOT(0)
        DATA8
`?<Constant "\\n------------\\n">`:
        DB "\012------------\012"

        RSEG XDATA_ROM_C:CONST:REORDER:NOROOT(0)
        DATA8
`?<Constant "active: ">`:
        DB "active: "

        RSEG XDATA_ROM_C:CONST:REORDER:NOROOT(0)
        DATA32
`?<Constant "\\n\\323\\320">`:
        DB "\012\323\320"

        RSEG XDATA_ROM_C:CONST:REORDER:NOROOT(0)
        DATA8
`?<Constant "\\270\\366\\301\\332\\276\\323">`:
        DB "\270\366\301\332\276\323"

        RSEG XDATA_ROM_C:CONST:REORDER:NOROOT(0)
        DATA8
`?<Constant "\\266\\324\\267\\275\\313\\265: ">`:
        DB "\266\324\267\275\313\265: "

        RSEG XDATA_ROM_C:CONST:REORDER:NOROOT(0)
        DATA16
`?<Constant "!">`:
        DB "!"

        RSEG XDATA_ROM_C:CONST:REORDER:NOROOT(0)
        DATA32
`?<Constant {42, 0, 0, 0}>`:
        DATA8
        DB 42
        DB 0
        DB 0
        DB 0

        RSEG XDATA_ROM_C:CONST:REORDER:NOROOT(0)
        DATA8
`?<Constant "\\275\\273\\273\\273\\312\\375\\276\\335\\2`:
        DB "\275\273\273\273\312\375\276\335\260\374\307\353\307\363\267\242\313\315\312\247\260\334."

        RSEG XDATA_ROM_C:CONST:REORDER:NOROOT(0)
        DATA8
`?<Constant "send      *">`:
        DB "send      *"

        RSEG XDATA_ROM_C:CONST:REORDER:NOROOT(0)
        DATA8
`?<Constant " to addr ">`:
        DB " to addr "

        END
// 1397 
// 1398 
// 1399 /*********************************************************************
// 1400 *********************************************************************/
// 1401 
// 
// 4 520 bytes in segment BANKED_CODE
//    78 bytes in segment BANK_RELAYS
//     5 bytes in segment XDATA_I
//     5 bytes in segment XDATA_ID
//   404 bytes in segment XDATA_ROM_C
//   111 bytes in segment XDATA_Z
// 
// 4 603 bytes of CODE  memory
//   404 bytes of CONST memory
//   116 bytes of XDATA memory
//
//Errors: none
//Warnings: none
