///////////////////////////////////////////////////////////////////////////////
//                                                                            /
// IAR C/C++ Compiler V8.10.1.10194/W32 for 8051        10/Sep/2019  16:23:44 /
// Copyright 2004-2011 IAR Systems AB.                                        /
//                                                                            /
//    Core               =  plain                                             /
//    Code model         =  banked                                            /
//    Data model         =  large                                             /
//    Calling convention =  xdata reentrant                                   /
//    Constant location  =  data_rom                                          /
//    Dptr setup         =  1,16                                              /
//    Source file        =  F:\ZStack-CC2530(2019.09.07)\ZStack-CC2530-2.5.1a /
//                          \Projects\zstack\Samples\SampleApp-Router\Source\ /
//                          SampleApp.c                                       /
//    Command line       =  -f "F:\ZStack-CC2530(2019.09.07)\ZStack-CC2530-2. /
//                          5.1a\Projects\zstack\Samples\SampleApp-Router\CC2 /
//                          530DB\..\..\..\Tools\CC2530DB\f8wRouter.cfg"      /
//                          (-DCPU32MHZ -DROOT=__near_func                    /
//                          -DMAC_CFG_APP_PENDING_QUEUE=TRUE                  /
//                          -DMAC_CFG_TX_DATA_MAX=5 -DMAC_CFG_TX_MAX=8        /
//                          -DMAC_CFG_RX_MAX=5 -DRTR_NWK) -f                  /
//                          "F:\ZStack-CC2530(2019.09.07)\ZStack-CC2530-2.5.1 /
//                          a\Projects\zstack\Samples\SampleApp-Router\CC2530 /
//                          DB\..\..\..\Tools\CC2530DB\f8wConfig.cfg"         /
//                          (-DZIGBEEPRO -DSECURE=0 -DZG_SECURE_DYNAMIC=0     /
//                          -DREFLECTOR -DDEFAULT_CHANLIST=0x02000000         /
//                          -DZDAPP_CONFIG_PAN_ID=0xFFF0                      /
//                          -DNWK_START_DELAY=100 -DEXTENDED_JOINING_RANDOM_M /
//                          ASK=0x007F -DBEACON_REQUEST_DELAY=100             /
//                          -DBEACON_REQ_DELAY_MASK=0x00FF                    /
//                          -DLINK_STATUS_JITTER_MASK=0x007F                  /
//                          -DROUTE_EXPIRY_TIME=30 -DAPSC_ACK_WAIT_DURATION_P /
//                          OLLED=3000 -DNWK_INDIRECT_MSG_TIMEOUT=7           /
//                          -DMAX_RREQ_ENTRIES=8 -DAPSC_MAX_FRAME_RETRIES=3   /
//                          -DNWK_MAX_DATA_RETRIES=2                          /
//                          -DMAX_POLL_FAILURE_RETRIES=2 -DMAX_BCAST=9        /
//                          -DAPS_MAX_GROUPS=16 -DMAX_RTG_ENTRIES=40          /
//                          -DNWK_MAX_BINDING_ENTRIES=4                       /
//                          -DMAX_BINDING_CLUSTER_IDS=4                       /
//                          "-DDEFAULT_KEY={0x01, 0x03, 0x05, 0x07, 0x09,     /
//                          0x0B, 0x0D, 0x0F, 0x00, 0x02, 0x04, 0x06, 0x08,   /
//                          0x0A, 0x0C, 0x0D}" -DMAC_MAX_FRAME_SIZE=116       /
//                          -DZDNWKMGR_MIN_TRANSMISSIONS=20 "-DCONST=const    /
//                          __code" -DGENERIC=__generic                       /
//                          -DRFD_RCVC_ALWAYS_ON=FALSE -DPOLL_RATE=1000       /
//                          -DQUEUED_POLL_RATE=100 -DRESPONSE_POLL_RATE=100)  /
//                          -DREJOIN_POLL_RATE=440 "F:\ZStack-CC2530(2019.09. /
//                          07)\ZStack-CC2530-2.5.1a\Projects\zstack\Samples\ /
//                          SampleApp-Router\Source\SampleApp.c" -D ZTOOL_P1  /
//                          -D MT_TASK -D MT_SYS_FUNC -D MT_ZDO_FUNC -D       /
//                          LCD_SUPPORTED=DEBUG -lC                           /
//                          "F:\ZStack-CC2530(2019.09.07)\ZStack-CC2530-2.5.1 /
//                          a\Projects\zstack\Samples\SampleApp-Router\CC2530 /
//                          DB\RouterEB\List\" -lA "F:\ZStack-CC2530(2019.09. /
//                          07)\ZStack-CC2530-2.5.1a\Projects\zstack\Samples\ /
//                          SampleApp-Router\CC2530DB\RouterEB\List\"         /
//                          --diag_suppress Pe001,Pa010 -o                    /
//                          "F:\ZStack-CC2530(2019.09.07)\ZStack-CC2530-2.5.1 /
//                          a\Projects\zstack\Samples\SampleApp-Router\CC2530 /
//                          DB\RouterEB\Obj\" -e --no_code_motion --debug     /
//                          --core=plain --dptr=16,1 --data_model=large       /
//                          --code_model=banked --calling_convention=xdata_re /
//                          entrant --place_constants=data_rom                /
//                          --nr_virtual_regs 16 -I                           /
//                          "F:\ZStack-CC2530(2019.09.07)\ZStack-CC2530-2.5.1 /
//                          a\Projects\zstack\Samples\SampleApp-Router\CC2530 /
//                          DB\" -I "F:\ZStack-CC2530(2019.09.07)\ZStack-CC25 /
//                          30-2.5.1a\Projects\zstack\Samples\SampleApp-Route /
//                          r\CC2530DB\..\Source\" -I                         /
//                          "F:\ZStack-CC2530(2019.09.07)\ZStack-CC2530-2.5.1 /
//                          a\Projects\zstack\Samples\SampleApp-Router\CC2530 /
//                          DB\..\..\..\ZMain\TI2530DB\" -I                   /
//                          "F:\ZStack-CC2530(2019.09.07)\ZStack-CC2530-2.5.1 /
//                          a\Projects\zstack\Samples\SampleApp-Router\CC2530 /
//                          DB\..\..\..\..\..\Components\hal\include\" -I     /
//                          "F:\ZStack-CC2530(2019.09.07)\ZStack-CC2530-2.5.1 /
//                          a\Projects\zstack\Samples\SampleApp-Router\CC2530 /
//                          DB\..\..\..\..\..\Components\hal\target\CC2530EB\ /
//                          " -I "F:\ZStack-CC2530(2019.09.07)\ZStack-CC2530- /
//                          2.5.1a\Projects\zstack\Samples\SampleApp-Router\C /
//                          C2530DB\..\..\..\..\..\Components\mac\include\"   /
//                          -I "F:\ZStack-CC2530(2019.09.07)\ZStack-CC2530-2. /
//                          5.1a\Projects\zstack\Samples\SampleApp-Router\CC2 /
//                          530DB\..\..\..\..\..\Components\mac\high_level\"  /
//                          -I "F:\ZStack-CC2530(2019.09.07)\ZStack-CC2530-2. /
//                          5.1a\Projects\zstack\Samples\SampleApp-Router\CC2 /
//                          530DB\..\..\..\..\..\Components\mac\low_level\srf /
//                          04\" -I "F:\ZStack-CC2530(2019.09.07)\ZStack-CC25 /
//                          30-2.5.1a\Projects\zstack\Samples\SampleApp-Route /
//                          r\CC2530DB\..\..\..\..\..\Components\mac\low_leve /
//                          l\srf04\single_chip\" -I                          /
//                          "F:\ZStack-CC2530(2019.09.07)\ZStack-CC2530-2.5.1 /
//                          a\Projects\zstack\Samples\SampleApp-Router\CC2530 /
//                          DB\..\..\..\..\..\Components\mt\" -I              /
//                          "F:\ZStack-CC2530(2019.09.07)\ZStack-CC2530-2.5.1 /
//                          a\Projects\zstack\Samples\SampleApp-Router\CC2530 /
//                          DB\..\..\..\..\..\Components\osal\include\" -I    /
//                          "F:\ZStack-CC2530(2019.09.07)\ZStack-CC2530-2.5.1 /
//                          a\Projects\zstack\Samples\SampleApp-Router\CC2530 /
//                          DB\..\..\..\..\..\Components\services\saddr\" -I  /
//                          "F:\ZStack-CC2530(2019.09.07)\ZStack-CC2530-2.5.1 /
//                          a\Projects\zstack\Samples\SampleApp-Router\CC2530 /
//                          DB\..\..\..\..\..\Components\services\sdata\" -I  /
//                          "F:\ZStack-CC2530(2019.09.07)\ZStack-CC2530-2.5.1 /
//                          a\Projects\zstack\Samples\SampleApp-Router\CC2530 /
//                          DB\..\..\..\..\..\Components\stack\af\" -I        /
//                          "F:\ZStack-CC2530(2019.09.07)\ZStack-CC2530-2.5.1 /
//                          a\Projects\zstack\Samples\SampleApp-Router\CC2530 /
//                          DB\..\..\..\..\..\Components\stack\nwk\" -I       /
//                          "F:\ZStack-CC2530(2019.09.07)\ZStack-CC2530-2.5.1 /
//                          a\Projects\zstack\Samples\SampleApp-Router\CC2530 /
//                          DB\..\..\..\..\..\Components\stack\sapi\" -I      /
//                          "F:\ZStack-CC2530(2019.09.07)\ZStack-CC2530-2.5.1 /
//                          a\Projects\zstack\Samples\SampleApp-Router\CC2530 /
//                          DB\..\..\..\..\..\Components\stack\sec\" -I       /
//                          "F:\ZStack-CC2530(2019.09.07)\ZStack-CC2530-2.5.1 /
//                          a\Projects\zstack\Samples\SampleApp-Router\CC2530 /
//                          DB\..\..\..\..\..\Components\stack\sys\" -I       /
//                          "F:\ZStack-CC2530(2019.09.07)\ZStack-CC2530-2.5.1 /
//                          a\Projects\zstack\Samples\SampleApp-Router\CC2530 /
//                          DB\..\..\..\..\..\Components\stack\zdo\" -I       /
//                          "F:\ZStack-CC2530(2019.09.07)\ZStack-CC2530-2.5.1 /
//                          a\Projects\zstack\Samples\SampleApp-Router\CC2530 /
//                          DB\..\..\..\..\..\Components\zmac\" -I            /
//                          "F:\ZStack-CC2530(2019.09.07)\ZStack-CC2530-2.5.1 /
//                          a\Projects\zstack\Samples\SampleApp-Router\CC2530 /
//                          DB\..\..\..\..\..\Components\zmac\f8w\" -Ohz      /
//                          --require_prototypes                              /
//    List file          =  F:\ZStack-CC2530(2019.09.07)\ZStack-CC2530-2.5.1a /
//                          \Projects\zstack\Samples\SampleApp-Router\CC2530D /
//                          B\RouterEB\List\SampleApp.s51                     /
//                                                                            /
//                                                                            /
///////////////////////////////////////////////////////////////////////////////

        NAME SampleApp

        RTMODEL "__SystemLibrary", "CLib"
        RTMODEL "__calling_convention", "xdata_reentrant"
        RTMODEL "__code_model", "banked"
        RTMODEL "__core", "plain"
        RTMODEL "__data_model", "large"
        RTMODEL "__dptr_size", "16"
        RTMODEL "__extended_stack", "disabled"
        RTMODEL "__location_for_constants", "data"
        RTMODEL "__number_of_dptrs", "1"
        RTMODEL "__rt_version", "1"

        RSEG DOVERLAY:DATA:NOROOT(0)
        RSEG IOVERLAY:IDATA:NOROOT(0)
        RSEG ISTACK:IDATA:NOROOT(0)
        RSEG PSTACK:XDATA:NOROOT(0)
        RSEG XSTACK:XDATA:NOROOT(0)

        EXTERN ?ALLOC_XSTACK8
        EXTERN ?BANKED_ENTER_XDATA
        EXTERN ?BANKED_LEAVE_XDATA
        EXTERN ?BDISPATCH
        EXTERN ?BRET
        EXTERN ?DEALLOC_XSTACK8
        EXTERN ?MOVE_LONG8_XDATA_XDATA
        EXTERN ?PUSH_XSTACK_I_ONE
        EXTERN ?PUSH_XSTACK_I_THREE
        EXTERN ?PUSH_XSTACK_I_TWO
        EXTERN ?SS_SHR
        EXTERN ?S_DIV_MOD
        EXTERN ?S_SHL
        EXTERN ?US_DIV_MOD
        EXTERN ?US_SHR
        EXTERN ?US_SWITCH_DENSE
        EXTERN ?V0
        EXTERN ?XSP
        EXTERN ?XSTACK_DISP0_8
        EXTERN __INIT_XDATA_I
        EXTERN __INIT_XDATA_Z

        PUBLIC ??Power_of_2?relay
        FUNCTION ??Power_of_2?relay,0203H
        PUBLIC ??Reset_down_neighbor?relay
        FUNCTION ??Reset_down_neighbor?relay,0203H
        PUBLIC ??SampleApp_HandleKeys?relay
        FUNCTION ??SampleApp_HandleKeys?relay,0203H
        PUBLIC ??SampleApp_Init?relay
        FUNCTION ??SampleApp_Init?relay,0203H
        PUBLIC ??SampleApp_MessageMSGCB?relay
        FUNCTION ??SampleApp_MessageMSGCB?relay,0203H
        PUBLIC ??SampleApp_ProcessEvent?relay
        FUNCTION ??SampleApp_ProcessEvent?relay,0203H
        PUBLIC ??SampleApp_SendFlashMessage?relay
        FUNCTION ??SampleApp_SendFlashMessage?relay,0203H
        PUBLIC ??SampleApp_SendGroupMessage?relay
        FUNCTION ??SampleApp_SendGroupMessage?relay,0203H
        PUBLIC ??SampleApp_SendPeriodicMessage?relay
        FUNCTION ??SampleApp_SendPeriodicMessage?relay,0203H
        PUBLIC ??SampleApp_SendPointToPointMessage?relay
        FUNCTION ??SampleApp_SendPointToPointMessage?relay,0203H
        PUBLIC ??SampleApp_SerialCMD?relay
        FUNCTION ??SampleApp_SerialCMD?relay,0203H
        PUBLIC ??Show_Bit?relay
        FUNCTION ??Show_Bit?relay,0203H
        PUBLIC ??Show_Num?relay
        FUNCTION ??Show_Num?relay,0203H
        PUBLIC ACTIVE
        PUBLIC DATA_SLOT
        PUBLIC Device_ID
        PUBLIC Exchange_Lock
        PUBLIC Exchange_index
        PUBLIC Exchanging_Data
        PUBLIC Exchanging_Neighbor
        PUBLIC Is_AgentNode
        PUBLIC LIFE_TIME
        PUBLIC MAX_Degree
        PUBLIC NEI_NUM
        PUBLIC Nei_Table
        PUBLIC Point_To_Point_DstAddr
        PUBLIC Power_of_2
        FUNCTION Power_of_2,0203H
        ARGFRAME XSTACK, 33, STACK
        ARGFRAME IOVERLAY, 0, STATIC
        ARGFRAME DOVERLAY, 0, STATIC
        PUBLIC Reset_down_neighbor
        FUNCTION Reset_down_neighbor,021203H
        ARGFRAME XSTACK, 33, STACK
        ARGFRAME IOVERLAY, 0, STATIC
        ARGFRAME DOVERLAY, 0, STATIC
        LOCFRAME ISTACK, 2, STACK
        LOCFRAME XSTACK, 21, STACK
        PUBLIC SOURCE_DATA
        PUBLIC SampleAppFlashCounter
        PUBLIC SampleAppPeriodicCounter
        PUBLIC SampleApp_ClusterList
        PUBLIC SampleApp_Flash_DstAddr
        PUBLIC SampleApp_Group
        PUBLIC SampleApp_HandleKeys
        FUNCTION SampleApp_HandleKeys,021203H
        ARGFRAME XSTACK, 12, STACK
        ARGFRAME IOVERLAY, 0, STATIC
        ARGFRAME DOVERLAY, 0, STATIC
        LOCFRAME XSTACK, 10, STACK
        PUBLIC SampleApp_Init
        FUNCTION SampleApp_Init,021203H
        ARGFRAME XSTACK, 0, STACK
        LOCFRAME XSTACK, 14, STACK
        PUBLIC SampleApp_MessageMSGCB
        FUNCTION SampleApp_MessageMSGCB,0a1203H
        ARGFRAME XSTACK, 12, STACK
        ARGFRAME IOVERLAY, 0, STATIC
        ARGFRAME DOVERLAY, 0, STATIC
        LOCFRAME ISTACK, 2, STACK
        LOCFRAME XSTACK, 42, STACK
        PUBLIC SampleApp_NwkState
        PUBLIC SampleApp_Periodic_DstAddr
        PUBLIC SampleApp_ProcessEvent
        FUNCTION SampleApp_ProcessEvent,021203H
        ARGFRAME XSTACK, 0, STACK
        LOCFRAME XSTACK, 12, STACK
        PUBLIC SampleApp_SendFlashMessage
        FUNCTION SampleApp_SendFlashMessage,021203H
        ARGFRAME XSTACK, 0, STACK
        LOCFRAME ISTACK, 1, STACK
        LOCFRAME XSTACK, 22, STACK
        PUBLIC SampleApp_SendGroupMessage
        FUNCTION SampleApp_SendGroupMessage,021203H
        ARGFRAME XSTACK, 12, STACK
        ARGFRAME IOVERLAY, 0, STATIC
        ARGFRAME DOVERLAY, 0, STATIC
        LOCFRAME XSTACK, 19, STACK
        PUBLIC SampleApp_SendPeriodicMessage
        FUNCTION SampleApp_SendPeriodicMessage,021203H
        ARGFRAME XSTACK, 0, STACK
        LOCFRAME XSTACK, 19, STACK
        PUBLIC SampleApp_SendPointToPointMessage
        FUNCTION SampleApp_SendPointToPointMessage,021203H
        ARGFRAME XSTACK, 12, STACK
        ARGFRAME IOVERLAY, 0, STATIC
        ARGFRAME DOVERLAY, 0, STATIC
        LOCFRAME ISTACK, 2, STACK
        LOCFRAME XSTACK, 26, STACK
        PUBLIC SampleApp_SerialCMD
        FUNCTION SampleApp_SerialCMD,021203H
        ARGFRAME XSTACK, 12, STACK
        ARGFRAME IOVERLAY, 0, STATIC
        ARGFRAME DOVERLAY, 0, STATIC
        LOCFRAME XSTACK, 12, STACK
        PUBLIC SampleApp_SimpleDesc
        PUBLIC SampleApp_TaskID
        PUBLIC SampleApp_TransID
        PUBLIC SampleApp_epDesc
        PUBLIC Show_Bit
        FUNCTION Show_Bit,021203H
        ARGFRAME XSTACK, 33, STACK
        ARGFRAME IOVERLAY, 0, STATIC
        ARGFRAME DOVERLAY, 0, STATIC
        LOCFRAME ISTACK, 2, STACK
        LOCFRAME XSTACK, 15, STACK
        PUBLIC Show_Num
        FUNCTION Show_Num,021203H
        ARGFRAME XSTACK, 33, STACK
        ARGFRAME IOVERLAY, 0, STATIC
        ARGFRAME DOVERLAY, 0, STATIC
        LOCFRAME ISTACK, 1, STACK
        LOCFRAME XSTACK, 15, STACK
        PUBLIC Slot_Size
        PUBLIC Waiting_Request
        PUBLIC _TURN
        
        CFI Names cfiNames0
        CFI StackFrame CFA_SP SP IDATA
        CFI StackFrame CFA_PSP16 PSP16 XDATA
        CFI StackFrame CFA_XSP16 XSP16 XDATA
        CFI StaticOverlayFrame CFA_IOVERLAY IOVERLAY
        CFI StaticOverlayFrame CFA_DOVERLAY DOVERLAY
        CFI Resource `PSW.CY`:1, `B.BR0`:1, `B.BR1`:1, `B.BR2`:1, `B.BR3`:1
        CFI Resource `B.BR4`:1, `B.BR5`:1, `B.BR6`:1, `B.BR7`:1, `VB.BR8`:1
        CFI Resource `VB.BR9`:1, `VB.BR10`:1, `VB.BR11`:1, `VB.BR12`:1
        CFI Resource `VB.BR13`:1, `VB.BR14`:1, `VB.BR15`:1, VB:8, B:8, A:8
        CFI Resource PSW:8, DPL0:8, DPH0:8, R0:8, R1:8, R2:8, R3:8, R4:8, R5:8
        CFI Resource R6:8, R7:8, V0:8, V1:8, V2:8, V3:8, V4:8, V5:8, V6:8, V7:8
        CFI Resource V8:8, V9:8, V10:8, V11:8, V12:8, V13:8, V14:8, V15:8, SP:8
        CFI Resource PSPH:8, PSPL:8, PSP16:16, XSPH:8, XSPL:8, XSP16:16
        CFI VirtualResource ?RET:24
        CFI Resource ?BRET_EXT:8
        CFI VirtualResource ?RET_HIGH:8, ?RET_LOW:8
        CFI ResourceParts PSP16 PSPH, PSPL
        CFI ResourceParts XSP16 XSPH, XSPL
        CFI ResourceParts ?RET ?BRET_EXT, ?RET_HIGH, ?RET_LOW
        CFI EndNames cfiNames0
        
        CFI Common cfiCommon0 Using cfiNames0
        CFI CodeAlign 1
        CFI DataAlign -1
        CFI ReturnAddress ?RET CODE
        CFI CFA_DOVERLAY Used
        CFI CFA_IOVERLAY Used
        CFI CFA_SP SP+-3
        CFI CFA_PSP16 PSP16+0
        CFI CFA_XSP16 XSP16+0
        CFI `PSW.CY` SameValue
        CFI `B.BR0` SameValue
        CFI `B.BR1` SameValue
        CFI `B.BR2` SameValue
        CFI `B.BR3` SameValue
        CFI `B.BR4` SameValue
        CFI `B.BR5` SameValue
        CFI `B.BR6` SameValue
        CFI `B.BR7` SameValue
        CFI `VB.BR8` SameValue
        CFI `VB.BR9` SameValue
        CFI `VB.BR10` SameValue
        CFI `VB.BR11` SameValue
        CFI `VB.BR12` SameValue
        CFI `VB.BR13` SameValue
        CFI `VB.BR14` SameValue
        CFI `VB.BR15` SameValue
        CFI VB SameValue
        CFI B Undefined
        CFI A Undefined
        CFI PSW SameValue
        CFI DPL0 SameValue
        CFI DPH0 SameValue
        CFI R0 Undefined
        CFI R1 Undefined
        CFI R2 Undefined
        CFI R3 Undefined
        CFI R4 Undefined
        CFI R5 Undefined
        CFI R6 SameValue
        CFI R7 SameValue
        CFI V0 SameValue
        CFI V1 SameValue
        CFI V2 SameValue
        CFI V3 SameValue
        CFI V4 SameValue
        CFI V5 SameValue
        CFI V6 SameValue
        CFI V7 SameValue
        CFI V8 SameValue
        CFI V9 SameValue
        CFI V10 SameValue
        CFI V11 SameValue
        CFI V12 SameValue
        CFI V13 SameValue
        CFI V14 SameValue
        CFI V15 SameValue
        CFI PSPH Undefined
        CFI PSPL Undefined
        CFI XSPH Undefined
        CFI XSPL Undefined
        CFI ?RET Concat
        CFI ?BRET_EXT Frame(CFA_SP, 3)
        CFI ?RET_HIGH Frame(CFA_SP, 2)
        CFI ?RET_LOW Frame(CFA_SP, 1)
        CFI EndCommon cfiCommon0
        
        
        CFI Common cfiCommon1 Using cfiNames0
        CFI CodeAlign 1
        CFI DataAlign -1
        CFI ReturnAddress ?RET CODE
        CFI CFA_DOVERLAY Used
        CFI CFA_IOVERLAY Used
        CFI CFA_SP SP+-2
        CFI CFA_PSP16 PSP16+0
        CFI CFA_XSP16 XSP16+0
        CFI `PSW.CY` SameValue
        CFI `B.BR0` SameValue
        CFI `B.BR1` SameValue
        CFI `B.BR2` SameValue
        CFI `B.BR3` SameValue
        CFI `B.BR4` SameValue
        CFI `B.BR5` SameValue
        CFI `B.BR6` SameValue
        CFI `B.BR7` SameValue
        CFI `VB.BR8` SameValue
        CFI `VB.BR9` SameValue
        CFI `VB.BR10` SameValue
        CFI `VB.BR11` SameValue
        CFI `VB.BR12` SameValue
        CFI `VB.BR13` SameValue
        CFI `VB.BR14` SameValue
        CFI `VB.BR15` SameValue
        CFI VB SameValue
        CFI B SameValue
        CFI A SameValue
        CFI PSW SameValue
        CFI DPL0 SameValue
        CFI DPH0 SameValue
        CFI R0 SameValue
        CFI R1 SameValue
        CFI R2 SameValue
        CFI R3 SameValue
        CFI R4 SameValue
        CFI R5 SameValue
        CFI R6 SameValue
        CFI R7 SameValue
        CFI V0 SameValue
        CFI V1 SameValue
        CFI V2 SameValue
        CFI V3 SameValue
        CFI V4 SameValue
        CFI V5 SameValue
        CFI V6 SameValue
        CFI V7 SameValue
        CFI V8 SameValue
        CFI V9 SameValue
        CFI V10 SameValue
        CFI V11 SameValue
        CFI V12 SameValue
        CFI V13 SameValue
        CFI V14 SameValue
        CFI V15 SameValue
        CFI PSPH Undefined
        CFI PSPL Undefined
        CFI XSPH Undefined
        CFI XSPL Undefined
        CFI ?RET Concat
        CFI ?BRET_EXT SameValue
        CFI ?RET_HIGH Frame(CFA_SP, 2)
        CFI ?RET_LOW Frame(CFA_SP, 1)
        CFI EndCommon cfiCommon1
        
HalUARTWrite        SYMBOL "HalUARTWrite"
MT_UartInit         SYMBOL "MT_UartInit"
MT_UartRegisterTaskID SYMBOL "MT_UartRegisterTaskID"
afRegister          SYMBOL "afRegister"
RegisterForKeys     SYMBOL "RegisterForKeys"
osal_memcpy         SYMBOL "osal_memcpy"
aps_AddGroup        SYMBOL "aps_AddGroup"
HalLcdWriteString   SYMBOL "HalLcdWriteString"
osal_msg_receive    SYMBOL "osal_msg_receive"
osal_start_timerEx  SYMBOL "osal_start_timerEx"
osal_msg_deallocate SYMBOL "osal_msg_deallocate"
osal_rand           SYMBOL "osal_rand"
AF_DataRequest      SYMBOL "AF_DataRequest"
HalLedBlink         SYMBOL "HalLedBlink"
aps_FindGroup       SYMBOL "aps_FindGroup"
aps_RemoveGroup     SYMBOL "aps_RemoveGroup"
osal_getClock       SYMBOL "osal_getClock"
srand               SYMBOL "srand"
rand                SYMBOL "rand"
??AF_DataRequest?relay SYMBOL "?relay", AF_DataRequest
??HalLcdWriteString?relay SYMBOL "?relay", HalLcdWriteString
??HalLedBlink?relay SYMBOL "?relay", HalLedBlink
??HalUARTWrite?relay SYMBOL "?relay", HalUARTWrite
??MT_UartInit?relay SYMBOL "?relay", MT_UartInit
??MT_UartRegisterTaskID?relay SYMBOL "?relay", MT_UartRegisterTaskID
??RegisterForKeys?relay SYMBOL "?relay", RegisterForKeys
??afRegister?relay  SYMBOL "?relay", afRegister
??aps_AddGroup?relay SYMBOL "?relay", aps_AddGroup
??aps_FindGroup?relay SYMBOL "?relay", aps_FindGroup
??aps_RemoveGroup?relay SYMBOL "?relay", aps_RemoveGroup
??osal_getClock?relay SYMBOL "?relay", osal_getClock
??osal_memcpy?relay SYMBOL "?relay", osal_memcpy
??osal_msg_deallocate?relay SYMBOL "?relay", osal_msg_deallocate
??osal_msg_receive?relay SYMBOL "?relay", osal_msg_receive
??osal_rand?relay   SYMBOL "?relay", osal_rand
??osal_start_timerEx?relay SYMBOL "?relay", osal_start_timerEx
??rand?relay        SYMBOL "?relay", rand
??srand?relay       SYMBOL "?relay", srand
Power_of_2          SYMBOL "Power_of_2"
??Power_of_2?relay  SYMBOL "?relay", Power_of_2
Reset_down_neighbor SYMBOL "Reset_down_neighbor"
??Reset_down_neighbor?relay SYMBOL "?relay", Reset_down_neighbor
SampleApp_HandleKeys SYMBOL "SampleApp_HandleKeys"
??SampleApp_HandleKeys?relay SYMBOL "?relay", SampleApp_HandleKeys
SampleApp_Init      SYMBOL "SampleApp_Init"
??SampleApp_Init?relay SYMBOL "?relay", SampleApp_Init
SampleApp_MessageMSGCB SYMBOL "SampleApp_MessageMSGCB"
??SampleApp_MessageMSGCB?relay SYMBOL "?relay", SampleApp_MessageMSGCB
SampleApp_ProcessEvent SYMBOL "SampleApp_ProcessEvent"
??SampleApp_ProcessEvent?relay SYMBOL "?relay", SampleApp_ProcessEvent
SampleApp_SendFlashMessage SYMBOL "SampleApp_SendFlashMessage"
??SampleApp_SendFlashMessage?relay SYMBOL "?relay", SampleApp_SendFlashMessage
SampleApp_SendGroupMessage SYMBOL "SampleApp_SendGroupMessage"
??SampleApp_SendGroupMessage?relay SYMBOL "?relay", SampleApp_SendGroupMessage
SampleApp_SendPeriodicMessage SYMBOL "SampleApp_SendPeriodicMessage"
??SampleApp_SendPeriodicMessage?relay SYMBOL "?relay", SampleApp_SendPeriodicMessage
SampleApp_SendPointToPointMessage SYMBOL "SampleApp_SendPointToPointMessage"
??SampleApp_SendPointToPointMessage?relay SYMBOL "?relay", SampleApp_SendPointToPointMessage
SampleApp_SerialCMD SYMBOL "SampleApp_SerialCMD"
??SampleApp_SerialCMD?relay SYMBOL "?relay", SampleApp_SerialCMD
Show_Bit            SYMBOL "Show_Bit"
??Show_Bit?relay    SYMBOL "?relay", Show_Bit
Show_Num            SYMBOL "Show_Num"
??Show_Num?relay    SYMBOL "?relay", Show_Num

        EXTERN HalUARTWrite
        FUNCTION HalUARTWrite,0202H
        ARGFRAME ISTACK, 0, STACK
        ARGFRAME PSTACK, 0, STACK
        ARGFRAME XSTACK, 33, STACK
        ARGFRAME IOVERLAY, 0, STATIC
        ARGFRAME DOVERLAY, 0, STATIC
        EXTERN MT_UartInit
        FUNCTION MT_UartInit,0202H
        ARGFRAME ISTACK, 0, STACK
        ARGFRAME PSTACK, 0, STACK
        ARGFRAME XSTACK, 11, STACK
        ARGFRAME IOVERLAY, 0, STATIC
        ARGFRAME DOVERLAY, 0, STATIC
        EXTERN MT_UartRegisterTaskID
        FUNCTION MT_UartRegisterTaskID,0202H
        ARGFRAME ISTACK, 0, STACK
        ARGFRAME PSTACK, 0, STACK
        ARGFRAME XSTACK, 11, STACK
        ARGFRAME IOVERLAY, 0, STATIC
        ARGFRAME DOVERLAY, 0, STATIC
        EXTERN afRegister
        FUNCTION afRegister,0202H
        ARGFRAME ISTACK, 0, STACK
        ARGFRAME PSTACK, 0, STACK
        ARGFRAME XSTACK, 11, STACK
        ARGFRAME IOVERLAY, 0, STATIC
        ARGFRAME DOVERLAY, 0, STATIC
        EXTERN RegisterForKeys
        FUNCTION RegisterForKeys,0202H
        ARGFRAME ISTACK, 0, STACK
        ARGFRAME PSTACK, 0, STACK
        ARGFRAME XSTACK, 11, STACK
        ARGFRAME IOVERLAY, 0, STATIC
        ARGFRAME DOVERLAY, 0, STATIC
        EXTERN osal_memcpy
        FUNCTION osal_memcpy,0202H
        ARGFRAME ISTACK, 0, STACK
        ARGFRAME PSTACK, 0, STACK
        ARGFRAME XSTACK, 14, STACK
        ARGFRAME IOVERLAY, 0, STATIC
        ARGFRAME DOVERLAY, 0, STATIC
        EXTERN aps_AddGroup
        FUNCTION aps_AddGroup,0202H
        ARGFRAME ISTACK, 0, STACK
        ARGFRAME PSTACK, 0, STACK
        ARGFRAME XSTACK, 11, STACK
        ARGFRAME IOVERLAY, 0, STATIC
        ARGFRAME DOVERLAY, 0, STATIC
        EXTERN HalLcdWriteString
        FUNCTION HalLcdWriteString,0202H
        ARGFRAME ISTACK, 0, STACK
        ARGFRAME PSTACK, 0, STACK
        ARGFRAME XSTACK, 11, STACK
        ARGFRAME IOVERLAY, 0, STATIC
        ARGFRAME DOVERLAY, 0, STATIC
        EXTERN osal_msg_receive
        FUNCTION osal_msg_receive,0202H
        ARGFRAME ISTACK, 0, STACK
        ARGFRAME PSTACK, 0, STACK
        ARGFRAME XSTACK, 12, STACK
        ARGFRAME IOVERLAY, 0, STATIC
        ARGFRAME DOVERLAY, 0, STATIC
        EXTERN osal_start_timerEx
        FUNCTION osal_start_timerEx,0202H
        ARGFRAME ISTACK, 0, STACK
        ARGFRAME PSTACK, 0, STACK
        ARGFRAME XSTACK, 12, STACK
        ARGFRAME IOVERLAY, 0, STATIC
        ARGFRAME DOVERLAY, 0, STATIC
        EXTERN osal_msg_deallocate
        FUNCTION osal_msg_deallocate,0202H
        ARGFRAME ISTACK, 0, STACK
        ARGFRAME PSTACK, 0, STACK
        ARGFRAME XSTACK, 12, STACK
        ARGFRAME IOVERLAY, 0, STATIC
        ARGFRAME DOVERLAY, 0, STATIC
        EXTERN osal_rand
        FUNCTION osal_rand,0202H
        ARGFRAME ISTACK, 0, STACK
        ARGFRAME PSTACK, 0, STACK
        ARGFRAME XSTACK, 12, STACK
        ARGFRAME IOVERLAY, 0, STATIC
        ARGFRAME DOVERLAY, 0, STATIC
        EXTERN AF_DataRequest
        FUNCTION AF_DataRequest,0202H
        ARGFRAME ISTACK, 0, STACK
        ARGFRAME PSTACK, 0, STACK
        ARGFRAME XSTACK, 42, STACK
        ARGFRAME IOVERLAY, 0, STATIC
        ARGFRAME DOVERLAY, 0, STATIC
        EXTERN HalLedBlink
        FUNCTION HalLedBlink,0202H
        ARGFRAME ISTACK, 0, STACK
        ARGFRAME PSTACK, 0, STACK
        ARGFRAME XSTACK, 33, STACK
        ARGFRAME IOVERLAY, 0, STATIC
        ARGFRAME DOVERLAY, 0, STATIC
        EXTERN aps_FindGroup
        FUNCTION aps_FindGroup,0202H
        ARGFRAME ISTACK, 0, STACK
        ARGFRAME PSTACK, 0, STACK
        ARGFRAME XSTACK, 10, STACK
        ARGFRAME IOVERLAY, 0, STATIC
        ARGFRAME DOVERLAY, 0, STATIC
        EXTERN aps_RemoveGroup
        FUNCTION aps_RemoveGroup,0202H
        ARGFRAME ISTACK, 0, STACK
        ARGFRAME PSTACK, 0, STACK
        ARGFRAME XSTACK, 10, STACK
        ARGFRAME IOVERLAY, 0, STATIC
        ARGFRAME DOVERLAY, 0, STATIC
        EXTERN Onboard_soft_reset
        FUNCTION Onboard_soft_reset,0202H
        ARGFRAME ISTACK, 0, STACK
        ARGFRAME PSTACK, 0, STACK
        ARGFRAME XSTACK, 33, STACK
        ARGFRAME IOVERLAY, 0, STATIC
        ARGFRAME DOVERLAY, 0, STATIC
        EXTERN osal_getClock
        FUNCTION osal_getClock,0202H
        ARGFRAME ISTACK, 0, STACK
        ARGFRAME PSTACK, 0, STACK
        ARGFRAME XSTACK, 33, STACK
        ARGFRAME IOVERLAY, 0, STATIC
        ARGFRAME DOVERLAY, 0, STATIC
        EXTERN srand
        FUNCTION srand,010202H
        ARGFRAME ISTACK, 0, STACK
        ARGFRAME PSTACK, 0, STACK
        ARGFRAME XSTACK, 33, STACK
        ARGFRAME IOVERLAY, 0, STATIC
        ARGFRAME DOVERLAY, 0, STATIC
        EXTERN rand
        FUNCTION rand,010202H
        ARGFRAME ISTACK, 0, STACK
        ARGFRAME PSTACK, 0, STACK
        ARGFRAME XSTACK, 33, STACK
        ARGFRAME IOVERLAY, 0, STATIC
        ARGFRAME DOVERLAY, 0, STATIC
        EXTERN ??AF_DataRequest?relay
        FUNCTION ??AF_DataRequest?relay,00H
        EXTERN ??HalLcdWriteString?relay
        FUNCTION ??HalLcdWriteString?relay,00H
        EXTERN ??HalLedBlink?relay
        FUNCTION ??HalLedBlink?relay,00H
        EXTERN ??HalUARTWrite?relay
        FUNCTION ??HalUARTWrite?relay,00H
        EXTERN ??MT_UartInit?relay
        FUNCTION ??MT_UartInit?relay,00H
        EXTERN ??MT_UartRegisterTaskID?relay
        FUNCTION ??MT_UartRegisterTaskID?relay,00H
        EXTERN ??RegisterForKeys?relay
        FUNCTION ??RegisterForKeys?relay,00H
        EXTERN ??afRegister?relay
        FUNCTION ??afRegister?relay,00H
        EXTERN ??aps_AddGroup?relay
        FUNCTION ??aps_AddGroup?relay,00H
        EXTERN ??aps_FindGroup?relay
        FUNCTION ??aps_FindGroup?relay,00H
        EXTERN ??aps_RemoveGroup?relay
        FUNCTION ??aps_RemoveGroup?relay,00H
        EXTERN ??osal_getClock?relay
        FUNCTION ??osal_getClock?relay,00H
        EXTERN ??osal_memcpy?relay
        FUNCTION ??osal_memcpy?relay,00H
        EXTERN ??osal_msg_deallocate?relay
        FUNCTION ??osal_msg_deallocate?relay,00H
        EXTERN ??osal_msg_receive?relay
        FUNCTION ??osal_msg_receive?relay,00H
        EXTERN ??osal_rand?relay
        FUNCTION ??osal_rand?relay,00H
        EXTERN ??osal_start_timerEx?relay
        FUNCTION ??osal_start_timerEx?relay,00H
        EXTERN ??rand?relay
        FUNCTION ??rand?relay,00H
        EXTERN ??srand?relay
        FUNCTION ??srand?relay,00H

// F:\ZStack-CC2530(2019.09.07)\ZStack-CC2530-2.5.1a\Projects\zstack\Samples\SampleApp-Router\Source\SampleApp.c
//    1 /**************************************************************************************************
//    2   Filename:       SampleApp.c
//    3   Revised:        $Date: 2009-03-18 15:56:27 -0700 (Wed, 18 Mar 2009) $
//    4   Revision:       $Revision: 19453 $
//    5 
//    6   Description:    Router普通路由器节点
//    7 
//    8 
//    9   Copyright 2007 Texas Instruments Incorporated. All rights reserved.
//   10 
//   11   IMPORTANT: Your use of this Software is limited to those specific rights
//   12   granted under the terms of a software license agreement between the user
//   13   who downloaded the software, his/her employer (which must be your employer)
//   14   and Texas Instruments Incorporated (the "License").  You may not use this
//   15   Software unless you agree to abide by the terms of the License. The License
//   16   limits your use, and you acknowledge, that the Software may not be modified,
//   17   copied or distributed unless embedded on a Texas Instruments microcontroller
//   18   or used solely and exclusively in conjunction with a Texas Instruments radio
//   19   frequency transceiver, which is integrated into your product.  Other than for
//   20   the foregoing purpose, you may not use, reproduce, copy, prepare derivative
//   21   works of, modify, distribute, perform, display or sell this Software and/or
//   22   its documentation for any purpose.
//   23 
//   24   YOU FURTHER ACKNOWLEDGE AND AGREE THAT THE SOFTWARE AND DOCUMENTATION ARE
//   25   PROVIDED AS IS?WITHOUT WARRANTY OF ANY KIND, EITHER EXPRESS OR IMPLIED,
//   26   INCLUDING WITHOUT LIMITATION, ANY WARRANTY OF MERCHANTABILITY, TITLE,
//   27   NON-INFRINGEMENT AND FITNESS FOR A PARTICULAR PURPOSE. IN NO EVENT SHALL
//   28   TEXAS INSTRUMENTS OR ITS LICENSORS BE LIABLE OR OBLIGATED UNDER CONTRACT,
//   29   NEGLIGENCE, STRICT LIABILITY, CONTRIBUTION, BREACH OF WARRANTY, OR OTHER
//   30   LEGAL EQUITABLE THEORY ANY DIRECT OR INDIRECT DAMAGES OR EXPENSES
//   31   INCLUDING BUT NOT LIMITED TO ANY INCIDENTAL, SPECIAL, INDIRECT, PUNITIVE
//   32   OR CONSEQUENTIAL DAMAGES, LOST PROFITS OR LOST DATA, COST OF PROCUREMENT
//   33   OF SUBSTITUTE GOODS, TECHNOLOGY, SERVICES, OR ANY CLAIMS BY THIRD PARTIES
//   34   (INCLUDING BUT NOT LIMITED TO ANY DEFENSE THEREOF), OR OTHER SIMILAR COSTS.
//   35 
//   36   Should you have any questions regarding your right to use this Software,
//   37   contact Texas Instruments Incorporated at www.TI.com.
//   38 **************************************************************************************************/
//   39 
//   40 /*********************************************************************
//   41   This application isn't intended to do anything useful, it is
//   42   intended to be a simple example of an application's structure.
//   43 
//   44   This application sends it's messages either as broadcast or
//   45   broadcast filtered group messages.  The other (more normal)
//   46   message addressing is unicast.  Most of the other sample
//   47   applications are written to support the unicast message model.
//   48 
//   49   Key control:
//   50     SW1:  Sends a flash command to all devices in Group 1.
//   51     SW2:  Adds/Removes (toggles) this device in and out
//   52           of Group 1.  This will enable and disable the
//   53           reception of the flash command.
//   54 *********************************************************************/
//   55 
//   56 /*********************************************************************
//   57  * INCLUDES
//   58  */
//   59 #include "OSAL.h"
//   60 #include "ZGlobals.h"
//   61 #include "AF.h"
//   62 #include "aps_groups.h"
//   63 #include "ZDApp.h"
//   64 #include "MT.h"  //透传中CMD_SERIAL_MSG的定义
//   65 
//   66 #include "SampleApp.h"
//   67 #include "SampleAppHw.h"
//   68 
//   69 #include "OnBoard.h"
//   70 #include "string.h"
//   71 
//   72 /* HAL */
//   73 #include "hal_lcd.h"
//   74 #include "hal_led.h"
//   75 #include "hal_key.h"
//   76 
//   77 extern uint16 NLME_GetShortAddr( void ); //获取自身短地址
//   78 extern void NLME_UpdateLinkStatus( void ); //更新连接状态
//   79 
//   80 
//   81 /*********************************************************************
//   82  * CONSTANTS
//   83  */
//   84 //用户引入的头文件
//   85 #include "MT_UART.h"
//   86 #include <stdio.h>
//   87 #include "nwk_util.h"
//   88 #include <stdlib.h>
//   89 #include "OSAL_Clock.h"
//   90 #include <math.h>
//   91 
//   92 
//   93 /*********** 注意: 每个设备不一样,记得修改!  **********/
//   94 
//   95 
//   96 //uint8 SOURCE_DATA = 1<<0;    //采集的数据 1
//   97 //uint8 Device_ID  = 0;    //设备ID
//   98 
//   99 //uint8 SOURCE_DATA = 1<<1;    //采集的数据 2l
//  100 //uint8 Device_ID  = 1;    //设备ID
//  101 
//  102 //uint8 SOURCE_DATA = 1<<2;    //采集的数据 3
//  103 //uint8 Device_ID  = 2;    //设备ID
//  104 

        RSEG XDATA_I:XDATA:NOROOT(0)
//  105 uint8 SOURCE_DATA = 1<<3;      //采集的数据 4
SOURCE_DATA:
        DATA8
        DS 1
        REQUIRE `?<Initializer for SOURCE_DATA>`
        REQUIRE __INIT_XDATA_I

        RSEG XDATA_I:XDATA:NOROOT(0)
//  106 uint8 Device_ID  = 3;      //设备ID
Device_ID:
        DATA8
        DS 1
        REQUIRE `?<Initializer for Device_ID>`
        REQUIRE __INIT_XDATA_I
//  107 
//  108 
//  109 /*********************************************************************
//  110  * MACROS
//  111  */
//  112 #define random(x) (rand() % x)
//  113 #define uchar unsigned char
//  114 #define Node_Num uint8 3  //网络中节点的数量
//  115 
//  116 
//  117 /*********************************************************************
//  118  * TYPEDEFS
//  119  */
//  120 /*<><><><><><><><><><><><><><><><><><><><><><><><><><><><><><><><><><><><><><><><><><><><>
//  121  * GLOBAL VARIABLES 全局变量
//  122  */

        RSEG XDATA_I:XDATA:NOROOT(0)
//  123 int8 LIFE_TIME=5;               //邻居活跃度初始值
LIFE_TIME:
        DATA8
        DS 1
        REQUIRE `?<Initializer for LIFE_TIME>`
        REQUIRE __INIT_XDATA_I

        RSEG XDATA_Z:XDATA:NOROOT(0)
        DATA8
//  124 int8 NEI_NUM = 0;               //邻居数量
NEI_NUM:
        DS 1
        REQUIRE __INIT_XDATA_Z

        RSEG XDATA_Z:XDATA:NOROOT(0)
        DATA8
//  125 int16 Nei_Table[3] = {0};       //邻居表
Nei_Table:
        DS 6
        REQUIRE __INIT_XDATA_Z

        RSEG XDATA_Z:XDATA:NOROOT(0)
        DATA8
//  126 unsigned short ACTIVE[3] = {0}; //邻居活跃度列表
ACTIVE:
        DS 6
        REQUIRE __INIT_XDATA_Z

        RSEG XDATA_Z:XDATA:NOROOT(0)
        DATA8
//  127 int8 _TURN = 0;                 //发送轮次控制
_TURN:
        DS 1
        REQUIRE __INIT_XDATA_Z
//  128 
//  129 
//  130 /*#######################以下是Router节点的配置############################*/
//  131 
//  132 /*一个码字的组成*/
//  133 typedef struct Encoded_PKT  //编码过的码字
//  134 {
//  135     /*数据域*/
//  136     short data; //码字数据
//  137     /*编码信息,由哪几个节点的数据包组成*/
//  138     uint16 Degree_ID;
//  139 }PKT;
//  140 
//  141 

        RSEG XDATA_ROM_C:CONST:REORDER:NOROOT(0)
        DATA16
//  142 const int Slot_Size = 6;        //码字槽大小
Slot_Size:
        DW 6
//  143 

        RSEG XDATA_Z:XDATA:NOROOT(0)
        DATA8
//  144 PKT DATA_SLOT[5+1];             //码字结构体数组,0位保存自身数据,用1-5位来进行码字交换
DATA_SLOT:
        DS 24
        REQUIRE __INIT_XDATA_Z
//  145 
//  146 

        RSEG XDATA_I:XDATA:NOROOT(0)
//  147 unsigned short MAX_Degree = 1;  //初始化允许的最大度
MAX_Degree:
        DATA16
        DS 2
        REQUIRE `?<Initializer for MAX_Degree>`
        REQUIRE __INIT_XDATA_I
//  148 //uint8 Decoded_X[100] = {0};     //初始化已解码的码字数组
//  149 //uint8 Undecoded_Y[100] = {0};   //初始化未解码的复杂码字数组

        RSEG XDATA_Z:XDATA:NOROOT(0)
        DATA16
//  150 int16 Exchanging_Neighbor;      //待进行码字交换的邻居
Exchanging_Neighbor:
        DS 2
        REQUIRE __INIT_XDATA_Z

        RSEG XDATA_Z:XDATA:NOROOT(0)
        DATA8
//  151 uint8 Exchanging_Data;          //待交换的码字
Exchanging_Data:
        DS 1
        REQUIRE __INIT_XDATA_Z

        RSEG XDATA_Z:XDATA:NOROOT(0)
        DATA8
//  152 uint8 Exchange_index;           //待交换的码字的索引
Exchange_index:
        DS 1
        REQUIRE __INIT_XDATA_Z
//  153 

        RSEG XDATA_Z:XDATA:NOROOT(0)
        DATA8
//  154 uint8 Waiting_Request = FALSE;   //是否在等待对方返回交换的数据包回应
Waiting_Request:
        DS 1
        REQUIRE __INIT_XDATA_Z

        RSEG XDATA_Z:XDATA:NOROOT(0)
        DATA8
//  155 uint8 Exchange_Lock = FALSE;     //码字槽操作锁
Exchange_Lock:
        DS 1
        REQUIRE __INIT_XDATA_Z

        RSEG XDATA_Z:XDATA:NOROOT(0)
        DATA16
//  156 unsigned short Is_AgentNode = FALSE; //是否是代理节点
Is_AgentNode:
        DS 2
        REQUIRE __INIT_XDATA_Z
//  157 /*<><><><><><><><><><><><><><><><><><><><><><><><><><><><><><><><><><><><><><><><><><><><>
//  158 * end
//  159 */
//  160 
//  161 
//  162 
//  163 
//  164 // This list should be filled with Application specific Cluster IDs.

        RSEG XDATA_ROM_C:CONST:REORDER:NOROOT(0)
        DATA8
//  165 const cId_t SampleApp_ClusterList[SAMPLEAPP_MAX_CLUSTERS] =
SampleApp_ClusterList:
        DATA16
        DW 1
        DW 2
        DW 0
        DW 0
//  166 {
//  167   SAMPLEAPP_PERIODIC_CLUSTERID,
//  168   SAMPLEAPP_FLASH_CLUSTERID
//  169 };
//  170 

        RSEG XDATA_ROM_C:CONST:REORDER:NOROOT(0)
        DATA8
//  171 const SimpleDescriptionFormat_t SampleApp_SimpleDesc =
SampleApp_SimpleDesc:
        DB 20
        DATA16
        DW 3848
        DW 1
        DATA8
        DB 0
        DB 4
        DATA16
        DW SampleApp_ClusterList
        DATA8
        DB 4
        DATA16
        DW SampleApp_ClusterList
//  172 {
//  173   SAMPLEAPP_ENDPOINT,              //  int Endpoint;
//  174   SAMPLEAPP_PROFID,                //  uint16 AppProfId[2];
//  175   SAMPLEAPP_DEVICEID,              //  uint16 AppDeviceId[2];
//  176   SAMPLEAPP_DEVICE_VERSION,        //  int   AppDevVer:4;
//  177   SAMPLEAPP_FLAGS,                 //  int   AppFlags:4;
//  178   SAMPLEAPP_MAX_CLUSTERS,          //  uint8  AppNumInClusters;
//  179   (cId_t *)SampleApp_ClusterList,  //  uint8 *pAppInClusterList;
//  180   SAMPLEAPP_MAX_CLUSTERS,          //  uint8  AppNumInClusters;
//  181   (cId_t *)SampleApp_ClusterList   //  uint8 *pAppInClusterList;
//  182 };
//  183 
//  184 // This is the Endpoint/Interface description.  It is defined here, but
//  185 // filled-in in SampleApp_Init().  Another way to go would be to fill
//  186 // in the structure here and make it a "const" (in code space).  The
//  187 // way it's defined in this sample app it is define in RAM.

        RSEG XDATA_Z:XDATA:NOROOT(0)
        DATA8
//  188 endPointDesc_t SampleApp_epDesc;
SampleApp_epDesc:
        DS 6
        REQUIRE __INIT_XDATA_Z
//  189 
//  190 /*********************************************************************
//  191  * EXTERNAL VARIABLES
//  192  */
//  193 
//  194 /*********************************************************************
//  195  * EXTERNAL FUNCTIONS
//  196  */
//  197 
//  198 /*********************************************************************
//  199  * LOCAL VARIABLES
//  200  */

        RSEG XDATA_Z:XDATA:NOROOT(0)
        DATA8
//  201 uint8 SampleApp_TaskID;   // Task ID for internal task/event processing
SampleApp_TaskID:
        DS 1
        REQUIRE __INIT_XDATA_Z
//  202                           // This variable will be received when
//  203                           // SampleApp_Init() is called.

        RSEG XDATA_Z:XDATA:NOROOT(0)
        DATA8
//  204 devStates_t SampleApp_NwkState;
SampleApp_NwkState:
        DS 1
        REQUIRE __INIT_XDATA_Z
//  205 

        RSEG XDATA_Z:XDATA:NOROOT(0)
        DATA8
//  206 uint8 SampleApp_TransID;  // This is the unique message ID (counter)
SampleApp_TransID:
        DS 1
        REQUIRE __INIT_XDATA_Z
//  207 

        RSEG XDATA_Z:XDATA:NOROOT(0)
        DATA8
//  208 afAddrType_t SampleApp_Periodic_DstAddr;
SampleApp_Periodic_DstAddr:
        DS 12
        REQUIRE __INIT_XDATA_Z

        RSEG XDATA_Z:XDATA:NOROOT(0)
        DATA8
//  209 afAddrType_t SampleApp_Flash_DstAddr; //组播
SampleApp_Flash_DstAddr:
        DS 12
        REQUIRE __INIT_XDATA_Z
//  210 

        RSEG XDATA_Z:XDATA:NOROOT(0)
        DATA8
//  211 afAddrType_t Point_To_Point_DstAddr; //WeBee点对点通信定义
Point_To_Point_DstAddr:
        DS 12
        REQUIRE __INIT_XDATA_Z
//  212 

        RSEG XDATA_Z:XDATA:NOROOT(0)
        DATA8
//  213 aps_Group_t SampleApp_Group; //分组内容
SampleApp_Group:
        DS 18
        REQUIRE __INIT_XDATA_Z
//  214 

        RSEG XDATA_Z:XDATA:NOROOT(0)
        DATA8
//  215 uint8 SampleAppPeriodicCounter = 0;
SampleAppPeriodicCounter:
        DS 1
        REQUIRE __INIT_XDATA_Z

        RSEG XDATA_Z:XDATA:NOROOT(0)
        DATA8
//  216 uint8 SampleAppFlashCounter = 0;
SampleAppFlashCounter:
        DS 1
        REQUIRE __INIT_XDATA_Z
//  217 
//  218 /*********************************************************************
//  219  * LOCAL FUNCTIONS     函数声明
//  220  */
//  221 void SampleApp_HandleKeys( uint8 shift, uint8 keys );
//  222 void SampleApp_MessageMSGCB( afIncomingMSGPacket_t *pckt );
//  223 void SampleApp_SendPeriodicMessage( void );
//  224 void SampleApp_SendFlashMessage( uint16 flashTime );
//  225 void SampleApp_SerialCMD(mtOSALSerialData_t *cmdMsg); // 串口通信
//  226 void SampleApp_SendPointToPointMessage( void ); //点对点
//  227 void SampleApp_SendGroupMessage( void );// 网蜂组播通讯发送函数定义
//  228 void Reset_down_neighbor(int16 nei_addr); //重置邻居设备函数
//  229 void Show_Bit(uint16 X, uint8 N); //串口打印一个8位比特二进制数字
//  230 void Show_Num(uint16 X);  //串口打印8bit数字
//  231 uint16 Power_of_2(uint8 X);
//  232 /*********************************************************************
//  233  * NETWORK LAYER CALLBACKS
//  234  */
//  235 
//  236 /*********************************************************************
//  237  * PUBLIC FUNCTIONS
//  238  */
//  239 

        RSEG BANKED_CODE:CODE:NOROOT(0)
//  240 void Show_Bit( uint16 X, uint8 N )
Show_Bit:
        CFI Block cfiBlock0 Using cfiCommon0
        CFI Function Show_Bit
        CODE
//  241 {
        FUNCALL Show_Bit, HalUARTWrite
        LOCFRAME ISTACK, 0, STACK
        LOCFRAME PSTACK, 0, STACK
        LOCFRAME XSTACK, 15, STACK
        LOCFRAME IOVERLAY, 0, STATIC
        LOCFRAME DOVERLAY, 0, STATIC
        ARGFRAME ISTACK, 0, STACK
        ARGFRAME PSTACK, 0, STACK
        ARGFRAME XSTACK, 15, STACK
        ARGFRAME IOVERLAY, 0, STATIC
        ARGFRAME DOVERLAY, 0, STATIC
        MOV     A,#-0xd
        LCALL   ?BANKED_ENTER_XDATA
        CFI DPH0 load(1, XDATA, add(CFA_XSP16, literal(-1)))
        CFI DPL0 load(1, XDATA, add(CFA_XSP16, literal(-2)))
        CFI ?BRET_EXT load(1, XDATA, add(CFA_XSP16, literal(-3)))
        CFI ?RET_HIGH load(1, XDATA, add(CFA_XSP16, literal(-4)))
        CFI ?RET_LOW load(1, XDATA, add(CFA_XSP16, literal(-5)))
        CFI R7 load(1, XDATA, add(CFA_XSP16, literal(-6)))
        CFI V4 load(1, XDATA, add(CFA_XSP16, literal(-7)))
        CFI V3 load(1, XDATA, add(CFA_XSP16, literal(-8)))
        CFI V2 load(1, XDATA, add(CFA_XSP16, literal(-9)))
        CFI V1 load(1, XDATA, add(CFA_XSP16, literal(-10)))
        CFI V0 load(1, XDATA, add(CFA_XSP16, literal(-11)))
        CFI VB load(1, XDATA, add(CFA_XSP16, literal(-12)))
        CFI R6 load(1, XDATA, add(CFA_XSP16, literal(-13)))
        CFI CFA_SP SP+0
        CFI CFA_XSP16 add(XSP16, 13)
        ; Saved register size: 13
        ; Auto size: 2
        MOV     A,#-0x2
        LCALL   ?ALLOC_XSTACK8
        CFI CFA_XSP16 add(XSP16, 15)
        MOV     ?V0 + 0,R2
        MOV     ?V0 + 1,R3
//  242   uchar Bit[2] = {'0','1'};
        MOV     DPL,?XSP + 0
        MOV     DPH,?XSP + 1
        MOV     R4,DPL
        MOV     R5,DPH
        MOV     DPH,#(`?<Constant {48, 49}>` >> 8) & 0xff
        MOV     DPL,#`?<Constant {48, 49}>` & 0xff
        MOV     A,#0x2
        LCALL   ?MOVE_LONG8_XDATA_XDATA
//  243   uint8 index;
//  244   for(short j=N-1;j>=0;--j)
        MOV     A,R1
        ADD     A,#-0x1
        MOV     R6,A
        CLR     A
        SJMP    ??Show_Bit_0
//  245   {
//  246     index = (X>>j) & 1;
//  247     HalUARTWrite(0,&Bit[index],1);
??Show_Bit_1:
        ; Setup parameters for call to function HalUARTWrite
        MOV     R4,#0x1
        MOV     R5,#0x0
        MOV     ?V0 + 2,?V0 + 0
        MOV     ?V0 + 3,?V0 + 1
        MOV     A,R6
        MOV     R0,#?V0 + 2
        LCALL   ?US_SHR
        MOV     A,?V0 + 2
        ANL     A,#0x1
        MOV     R0,A
        MOV     DPL,?XSP + 0
        MOV     DPH,?XSP + 1
        MOV     A,DPL
        ADD     A,R0
        MOV     R2,A
        MOV     A,DPH
        LCALL   ?Subroutine11 & 0xFFFF
//  248   }
??CrossCallReturnLabel_21:
        MOV     A,R6
        ADD     A,#-0x1
        DEC     R6
        MOV     A,R7
??Show_Bit_0:
        ADDC    A,#-0x1
        MOV     R7,A
        CLR     C
        MOV     A,R7
        LCALL   ??Subroutine72_0 & 0xFFFF
??CrossCallReturnLabel_148:
        JNC     ??Show_Bit_1
//  249 //  HalUARTWrite(0,"\n",1);
//  250 }
        MOV     A,#0x2
        LCALL   ?DEALLOC_XSTACK8
        CFI CFA_XSP16 add(XSP16, 13)
        MOV     R7,#0x5
        LJMP    ?BANKED_LEAVE_XDATA
        CFI EndBlock cfiBlock0
//  251 

        RSEG BANKED_CODE:CODE:NOROOT(0)
//  252 void Show_Num( uint16 X )
Show_Num:
        CFI Block cfiBlock1 Using cfiCommon0
        CFI Function Show_Num
        CODE
//  253 {
        FUNCALL Show_Num, HalUARTWrite
        LOCFRAME ISTACK, 0, STACK
        LOCFRAME PSTACK, 0, STACK
        LOCFRAME XSTACK, 15, STACK
        LOCFRAME IOVERLAY, 0, STATIC
        LOCFRAME DOVERLAY, 0, STATIC
        ARGFRAME ISTACK, 0, STACK
        ARGFRAME PSTACK, 0, STACK
        ARGFRAME XSTACK, 15, STACK
        ARGFRAME IOVERLAY, 0, STATIC
        ARGFRAME DOVERLAY, 0, STATIC
        FUNCALL Show_Num, HalUARTWrite
        LOCFRAME ISTACK, 0, STACK
        LOCFRAME PSTACK, 0, STACK
        LOCFRAME XSTACK, 15, STACK
        LOCFRAME IOVERLAY, 0, STATIC
        LOCFRAME DOVERLAY, 0, STATIC
        ARGFRAME ISTACK, 0, STACK
        ARGFRAME PSTACK, 0, STACK
        ARGFRAME XSTACK, 15, STACK
        ARGFRAME IOVERLAY, 0, STATIC
        ARGFRAME DOVERLAY, 0, STATIC
        MOV     A,#-0xa
        LCALL   ?BANKED_ENTER_XDATA
        CFI DPH0 load(1, XDATA, add(CFA_XSP16, literal(-1)))
        CFI DPL0 load(1, XDATA, add(CFA_XSP16, literal(-2)))
        CFI ?BRET_EXT load(1, XDATA, add(CFA_XSP16, literal(-3)))
        CFI ?RET_HIGH load(1, XDATA, add(CFA_XSP16, literal(-4)))
        CFI ?RET_LOW load(1, XDATA, add(CFA_XSP16, literal(-5)))
        CFI R7 load(1, XDATA, add(CFA_XSP16, literal(-6)))
        CFI V1 load(1, XDATA, add(CFA_XSP16, literal(-7)))
        CFI V0 load(1, XDATA, add(CFA_XSP16, literal(-8)))
        CFI VB load(1, XDATA, add(CFA_XSP16, literal(-9)))
        CFI R6 load(1, XDATA, add(CFA_XSP16, literal(-10)))
        CFI CFA_SP SP+0
        CFI CFA_XSP16 add(XSP16, 10)
        ; Saved register size: 10
        ; Auto size: 5
        MOV     A,#-0x5
        LCALL   ?ALLOC_XSTACK8
        CFI CFA_XSP16 add(XSP16, 15)
        MOV     A,R2
        MOV     R4,A
        MOV     A,R3
        MOV     R5,A
//  254   if(X == 0)
        MOV     A,R4
        ORL     A,R5
        JNZ     ??Show_Num_0
//  255   {
//  256     HalUARTWrite(0,"0",1);
        ; Setup parameters for call to function HalUARTWrite
        MOV     R4,#0x1
        MOV     R5,#0x0
        MOV     R2,#`?<Constant "0">` & 0xff
        MOV     R3,#(`?<Constant "0">` >> 8) & 0xff
        MOV     R1,#0x0
        LCALL   ??HalUARTWrite?relay
//  257   }
//  258   else
//  259   {
//  260     uint8 N = 0;
//  261     uint8 Num[4];
//  262     
//  263     while(X)
//  264     {
//  265       Num[N++] = X % 10;
//  266       X /=10;
//  267       
//  268     }
//  269     while(N > 0)
//  270     {
//  271       uchar temp = '0' + Num[--N];
//  272       HalUARTWrite(0,&temp,1);
//  273     }
//  274   }
//  275   
//  276   
//  277 }
??Show_Num_1:
        MOV     A,#0x5
        LJMP    ?Subroutine0 & 0xFFFF
??Show_Num_0:
        MOV     R6,#0x0
??Show_Num_2:
        MOV     A,R4
        MOV     R0,A
        MOV     A,R5
        MOV     R1,A
        MOV     R2,#0xa
        MOV     R3,#0x0
        LCALL   ?US_DIV_MOD
        MOV     ?V0 + 0,R6
        MOV     A,#0x1
        LCALL   ?XSTACK_DISP0_8
        LCALL   ?Subroutine24 & 0xFFFF
??CrossCallReturnLabel_44:
        MOV     A,R2
        MOVX    @DPTR,A
        INC     R6
        MOV     A,R4
        MOV     R0,A
        MOV     A,R5
        MOV     R1,A
        MOV     R2,#0xa
        MOV     R3,#0x0
        LCALL   ?US_DIV_MOD
        MOV     ?V0 + 0,R0
        MOV     ?V0 + 1,R1
        MOV     R4,?V0 + 0
        MOV     R5,?V0 + 1
        MOV     A,R4
        ORL     A,R5
        JNZ     ??Show_Num_2
??Show_Num_3:
        MOV     A,R6
        JZ      ??Show_Num_1
        DEC     R6
        MOV     ?V0 + 0,R6
        MOV     A,#0x1
        LCALL   ?XSTACK_DISP0_8
        LCALL   ?Subroutine24 & 0xFFFF
??CrossCallReturnLabel_45:
        LCALL   ?Subroutine47 & 0xFFFF
??CrossCallReturnLabel_74:
        SJMP    ??Show_Num_3
        CFI EndBlock cfiBlock1

        RSEG BANKED_CODE:CODE:NOROOT(0)
?Subroutine24:
        CFI Block cfiCond2 Using cfiCommon0
        CFI NoFunction
        CFI Conditional ??CrossCallReturnLabel_44
        CFI R6 load(1, XDATA, add(CFA_XSP16, literal(-10)))
        CFI VB load(1, XDATA, add(CFA_XSP16, literal(-9)))
        CFI V0 load(1, XDATA, add(CFA_XSP16, literal(-8)))
        CFI V1 load(1, XDATA, add(CFA_XSP16, literal(-7)))
        CFI R7 load(1, XDATA, add(CFA_XSP16, literal(-6)))
        CFI ?RET_LOW load(1, XDATA, add(CFA_XSP16, literal(-5)))
        CFI ?RET_HIGH load(1, XDATA, add(CFA_XSP16, literal(-4)))
        CFI ?BRET_EXT load(1, XDATA, add(CFA_XSP16, literal(-3)))
        CFI DPL0 load(1, XDATA, add(CFA_XSP16, literal(-2)))
        CFI DPH0 load(1, XDATA, add(CFA_XSP16, literal(-1)))
        CFI CFA_SP SP+0
        CFI CFA_XSP16 add(XSP16, 15)
        CFI Block cfiCond3 Using cfiCommon0
        CFI (cfiCond3) NoFunction
        CFI (cfiCond3) Conditional ??CrossCallReturnLabel_45
        CFI (cfiCond3) R6 load(1, XDATA, add(CFA_XSP16, literal(-10)))
        CFI (cfiCond3) VB load(1, XDATA, add(CFA_XSP16, literal(-9)))
        CFI (cfiCond3) V0 load(1, XDATA, add(CFA_XSP16, literal(-8)))
        CFI (cfiCond3) V1 load(1, XDATA, add(CFA_XSP16, literal(-7)))
        CFI (cfiCond3) R7 load(1, XDATA, add(CFA_XSP16, literal(-6)))
        CFI (cfiCond3) ?RET_LOW load(1, XDATA, add(CFA_XSP16, literal(-5)))
        CFI (cfiCond3) ?RET_HIGH load(1, XDATA, add(CFA_XSP16, literal(-4)))
        CFI (cfiCond3) ?BRET_EXT load(1, XDATA, add(CFA_XSP16, literal(-3)))
        CFI (cfiCond3) DPL0 load(1, XDATA, add(CFA_XSP16, literal(-2)))
        CFI (cfiCond3) DPH0 load(1, XDATA, add(CFA_XSP16, literal(-1)))
        CFI (cfiCond3) CFA_SP SP+0
        CFI (cfiCond3) CFA_XSP16 add(XSP16, 15)
        CFI Block cfiPicker4 Using cfiCommon1
        CFI (cfiPicker4) NoFunction
        CFI (cfiPicker4) Picker
        MOV     A,DPL
        ADD     A,?V0 + 0
        MOV     DPL,A
        MOV     A,DPH
        ADDC    A,#0x0
        MOV     DPH,A
        RET
        CFI EndBlock cfiCond2
        CFI EndBlock cfiCond3
        CFI EndBlock cfiPicker4
//  278 
//  279 

        RSEG BANKED_CODE:CODE:NOROOT(0)
//  280 uint16 Power_of_2( uint8 X )
Power_of_2:
        CFI Block cfiBlock5 Using cfiCommon0
        CFI Function Power_of_2
        CODE
//  281 {
        ; Saved register size: 0
        ; Auto size: 0
//  282   if(X == 0)
        MOV     A,R1
        JNZ     ??Power_of_2_0
//  283     return 1;
        MOV     R2,#0x1
        MOV     R3,#0x0
        SJMP    ??Power_of_2_1
//  284   else
//  285   {
//  286     uint16 temp = 2;
??Power_of_2_0:
        MOV     R2,#0x2
        MOV     R3,#0x0
//  287     for(uchar i=2;i<=X;++i)
        MOV     R0,#0x2
        SJMP    ??Power_of_2_2
//  288     {
//  289       temp *=2;
??Power_of_2_3:
        MOV     A,R2
        CLR     C
        RLC     A
        MOV     R2,A
        MOV     A,R3
        RLC     A
        MOV     R3,A
//  290     }
        INC     R0
??Power_of_2_2:
        MOV     A,R1
        CLR     C
        SUBB    A,R0
        JNC     ??Power_of_2_3
//  291     return temp;
??Power_of_2_1:
        LJMP    ?BRET
        CFI EndBlock cfiBlock5
//  292   }
//  293     
//  294 }
//  295 /*********************************************************************
//  296  * @fn      SampleApp_Init   应用初始化
//  297  *
//  298  * @brief   Initialization function for the Generic App Task.
//  299  *          This is called during initialization and should contain
//  300  *          any application specific initialization (ie. hardware
//  301  *          initialization/setup, table initialization, power up
//  302  *          notificaiton ... ).
//  303  *
//  304  * @param   task_id - the ID assigned by OSAL.  This ID should be
//  305  *                    used to send messages and set timers.
//  306  *
//  307  * @return  none
//  308  */
//  309 
//  310 

        RSEG BANKED_CODE:CODE:NOROOT(0)
//  311 void SampleApp_Init( uint8 task_id )
SampleApp_Init:
        CFI Block cfiBlock6 Using cfiCommon0
        CFI Function SampleApp_Init
        CODE
//  312 {
        FUNCALL SampleApp_Init, MT_UartInit
        LOCFRAME ISTACK, 0, STACK
        LOCFRAME PSTACK, 0, STACK
        LOCFRAME XSTACK, 11, STACK
        LOCFRAME IOVERLAY, 0, STATIC
        LOCFRAME DOVERLAY, 0, STATIC
        ARGFRAME ISTACK, 0, STACK
        ARGFRAME PSTACK, 0, STACK
        ARGFRAME XSTACK, 11, STACK
        ARGFRAME IOVERLAY, 0, STATIC
        ARGFRAME DOVERLAY, 0, STATIC
        FUNCALL SampleApp_Init, MT_UartRegisterTaskID
        LOCFRAME ISTACK, 0, STACK
        LOCFRAME PSTACK, 0, STACK
        LOCFRAME XSTACK, 11, STACK
        LOCFRAME IOVERLAY, 0, STATIC
        LOCFRAME DOVERLAY, 0, STATIC
        ARGFRAME ISTACK, 0, STACK
        ARGFRAME PSTACK, 0, STACK
        ARGFRAME XSTACK, 11, STACK
        ARGFRAME IOVERLAY, 0, STATIC
        ARGFRAME DOVERLAY, 0, STATIC
        FUNCALL SampleApp_Init, HalUARTWrite
        LOCFRAME ISTACK, 0, STACK
        LOCFRAME PSTACK, 0, STACK
        LOCFRAME XSTACK, 11, STACK
        LOCFRAME IOVERLAY, 0, STATIC
        LOCFRAME DOVERLAY, 0, STATIC
        ARGFRAME ISTACK, 0, STACK
        ARGFRAME PSTACK, 0, STACK
        ARGFRAME XSTACK, 11, STACK
        ARGFRAME IOVERLAY, 0, STATIC
        ARGFRAME DOVERLAY, 0, STATIC
        FUNCALL SampleApp_Init, Power_of_2
        LOCFRAME ISTACK, 0, STACK
        LOCFRAME PSTACK, 0, STACK
        LOCFRAME XSTACK, 11, STACK
        LOCFRAME IOVERLAY, 0, STATIC
        LOCFRAME DOVERLAY, 0, STATIC
        ARGFRAME ISTACK, 0, STACK
        ARGFRAME PSTACK, 0, STACK
        ARGFRAME XSTACK, 11, STACK
        ARGFRAME IOVERLAY, 0, STATIC
        ARGFRAME DOVERLAY, 0, STATIC
        FUNCALL SampleApp_Init, afRegister
        LOCFRAME ISTACK, 0, STACK
        LOCFRAME PSTACK, 0, STACK
        LOCFRAME XSTACK, 11, STACK
        LOCFRAME IOVERLAY, 0, STATIC
        LOCFRAME DOVERLAY, 0, STATIC
        ARGFRAME ISTACK, 0, STACK
        ARGFRAME PSTACK, 0, STACK
        ARGFRAME XSTACK, 11, STACK
        ARGFRAME IOVERLAY, 0, STATIC
        ARGFRAME DOVERLAY, 0, STATIC
        FUNCALL SampleApp_Init, RegisterForKeys
        LOCFRAME ISTACK, 0, STACK
        LOCFRAME PSTACK, 0, STACK
        LOCFRAME XSTACK, 11, STACK
        LOCFRAME IOVERLAY, 0, STATIC
        LOCFRAME DOVERLAY, 0, STATIC
        ARGFRAME ISTACK, 0, STACK
        ARGFRAME PSTACK, 0, STACK
        ARGFRAME XSTACK, 11, STACK
        ARGFRAME IOVERLAY, 0, STATIC
        ARGFRAME DOVERLAY, 0, STATIC
        FUNCALL SampleApp_Init, osal_memcpy
        LOCFRAME ISTACK, 0, STACK
        LOCFRAME PSTACK, 0, STACK
        LOCFRAME XSTACK, 14, STACK
        LOCFRAME IOVERLAY, 0, STATIC
        LOCFRAME DOVERLAY, 0, STATIC
        ARGFRAME ISTACK, 0, STACK
        ARGFRAME PSTACK, 0, STACK
        ARGFRAME XSTACK, 14, STACK
        ARGFRAME IOVERLAY, 0, STATIC
        ARGFRAME DOVERLAY, 0, STATIC
        FUNCALL SampleApp_Init, aps_AddGroup
        LOCFRAME ISTACK, 0, STACK
        LOCFRAME PSTACK, 0, STACK
        LOCFRAME XSTACK, 11, STACK
        LOCFRAME IOVERLAY, 0, STATIC
        LOCFRAME DOVERLAY, 0, STATIC
        ARGFRAME ISTACK, 0, STACK
        ARGFRAME PSTACK, 0, STACK
        ARGFRAME XSTACK, 11, STACK
        ARGFRAME IOVERLAY, 0, STATIC
        ARGFRAME DOVERLAY, 0, STATIC
        FUNCALL SampleApp_Init, HalLcdWriteString
        LOCFRAME ISTACK, 0, STACK
        LOCFRAME PSTACK, 0, STACK
        LOCFRAME XSTACK, 11, STACK
        LOCFRAME IOVERLAY, 0, STATIC
        LOCFRAME DOVERLAY, 0, STATIC
        ARGFRAME ISTACK, 0, STACK
        ARGFRAME PSTACK, 0, STACK
        ARGFRAME XSTACK, 11, STACK
        ARGFRAME IOVERLAY, 0, STATIC
        ARGFRAME DOVERLAY, 0, STATIC
        MOV     A,#-0xb
        LCALL   ?BANKED_ENTER_XDATA
        CFI DPH0 load(1, XDATA, add(CFA_XSP16, literal(-1)))
        CFI DPL0 load(1, XDATA, add(CFA_XSP16, literal(-2)))
        CFI ?BRET_EXT load(1, XDATA, add(CFA_XSP16, literal(-3)))
        CFI ?RET_HIGH load(1, XDATA, add(CFA_XSP16, literal(-4)))
        CFI ?RET_LOW load(1, XDATA, add(CFA_XSP16, literal(-5)))
        CFI R7 load(1, XDATA, add(CFA_XSP16, literal(-6)))
        CFI V2 load(1, XDATA, add(CFA_XSP16, literal(-7)))
        CFI V1 load(1, XDATA, add(CFA_XSP16, literal(-8)))
        CFI V0 load(1, XDATA, add(CFA_XSP16, literal(-9)))
        CFI VB load(1, XDATA, add(CFA_XSP16, literal(-10)))
        CFI R6 load(1, XDATA, add(CFA_XSP16, literal(-11)))
        CFI CFA_SP SP+0
        CFI CFA_XSP16 add(XSP16, 11)
        ; Saved register size: 11
        ; Auto size: 0
        MOV     A,R1
        MOV     R6,A
//  313   SampleApp_TaskID = task_id;
        MOV     DPTR,#SampleApp_TaskID
        MOVX    @DPTR,A
//  314   SampleApp_NwkState = DEV_INIT;
        MOV     DPTR,#SampleApp_NwkState
        MOV     A,#0x1
        MOVX    @DPTR,A
//  315   SampleApp_TransID = 0;
        MOV     DPTR,#SampleApp_TransID
        CLR     A
        MOVX    @DPTR,A
//  316   MT_UartInit(); //初始化UART
        ; Setup parameters for call to function MT_UartInit
        LCALL   ??MT_UartInit?relay
//  317   MT_UartRegisterTaskID(task_id);// 登记任务号
        ; Setup parameters for call to function MT_UartRegisterTaskID
        MOV     A,R6
        MOV     R1,A
        LCALL   ??MT_UartRegisterTaskID?relay
//  318   HalUARTWrite(0, "System is started.\n\n", 20); // （串口 0 ，'字符’,字符个数）
        ; Setup parameters for call to function HalUARTWrite
        MOV     R4,#0x14
        MOV     R5,#0x0
        MOV     R2,#`?<Constant "System is started.\\n\\n">` & 0xff
        MOV     R3,#(`?<Constant "System is started.\\n\\n">` >> 8) & 0xff
        MOV     R1,#0x0
        LCALL   ??HalUARTWrite?relay
//  319 
//  320 
//  321   //路由表初始化
//  322   for(short i=0;i<3;++i)
        MOV     R2,#0x0
        MOV     R3,#0x0
//  323   {
//  324     Nei_Table[i] += 65534;
??SampleApp_Init_0:
        MOV     A,R2
        MOV     R0,A
        MOV     A,R3
        LCALL   ?Subroutine7 & 0xFFFF
??CrossCallReturnLabel_100:
        ADD     A,#-0x2
        MOVX    @DPTR,A
        INC     DPTR
        MOVX    A,@DPTR
        ADDC    A,#-0x1
        MOVX    @DPTR,A
//  325     ACTIVE[i] += LIFE_TIME;  //邻居活跃度初始化
        MOV     DPTR,#LIFE_TIME
        MOVX    A,@DPTR
        MOV     R4,A
        RLC     A
        SUBB    A,0xE0 /* A   */
        MOV     R5,A
        LCALL   ?Subroutine12 & 0xFFFF
//  326   }
??CrossCallReturnLabel_23:
        MOVX    A,@DPTR
        ADD     A,R4
        MOVX    @DPTR,A
        INC     DPTR
        MOVX    A,@DPTR
        ADDC    A,R5
        LCALL   ?Subroutine26 & 0xFFFF
??CrossCallReturnLabel_46:
        SUBB    A,#0x3
        LCALL   ?Subroutine19 & 0xFFFF
??CrossCallReturnLabel_150:
        JC      ??SampleApp_Init_0
//  327 
//  328 
//  329   uint16 Source_DATA_info = Power_of_2(Device_ID);
        ; Setup parameters for call to function Power_of_2
        LCALL   ?Subroutine34 & 0xFFFF
??CrossCallReturnLabel_57:
        MOV     ?V0 + 0,R2
        MOV     ?V0 + 1,R3
        MOV     R4,?V0 + 0
        MOV     R5,?V0 + 1
//  330   //给码字槽赋初值(除了sink节点)
//  331   for(short i=0;i<6;++i)
        MOV     R2,#0x0
        MOV     R3,#0x0
//  332   {
//  333     DATA_SLOT[i].data = SOURCE_DATA;    //给码字槽赋初值
??SampleApp_Init_1:
        MOV     ?V0 + 0,R2
        MOV     ?V0 + 1,R3
        MOV     A,#0x2
        MOV     R0,#?V0 + 0
        LCALL   ?S_SHL
        LCALL   ?Subroutine59 & 0xFFFF
//  334     DATA_SLOT[i].Degree_ID = Source_DATA_info; //给码字赋节点信息
//  335 //    
//  336   }
??CrossCallReturnLabel_91:
        MOV     DPTR,#SOURCE_DATA
        MOVX    A,@DPTR
        MOV     DPL,R0
        MOV     DPH,R1
        LCALL   ?Subroutine48 & 0xFFFF
??CrossCallReturnLabel_96:
        MOV     A,R4
        MOVX    @DPTR,A
        INC     DPTR
        MOV     A,R5
        LCALL   ?Subroutine26 & 0xFFFF
??CrossCallReturnLabel_47:
        SUBB    A,#0x6
        LCALL   ?Subroutine19 & 0xFFFF
??CrossCallReturnLabel_151:
        JC      ??SampleApp_Init_1
//  337 
//  338 //  uint8 X = 1;
//  339 //  uint8 Y = 4;
//  340 //  printf(" %d\n",X|Y);
//  341  
//  342   
//  343   
//  344   
//  345   
//  346   
//  347   
//  348   
//  349   
//  350   
//  351   
//  352 
//  353   // Device hardware initialization can be added here or in main() (Zmain.c).
//  354   // If the hardware is application specific - add it here.
//  355   // If the hardware is other parts of the device add it in main().
//  356 
//  357  #if defined ( BUILD_ALL_DEVICES )
//  358   // The "Demo" target is setup to have BUILD_ALL_DEVICES and HOLD_AUTO_START
//  359   // We are looking at a jumper (defined in SampleAppHw.c) to be jumpered
//  360   // together - if they are - we will start up a coordinator. Otherwise,
//  361   // the device will start as a router.
//  362   if ( readCoordinatorJumper() )
//  363     zgDeviceLogicalType = ZG_DEVICETYPE_COORDINATOR;
//  364   else
//  365     zgDeviceLogicalType = ZG_DEVICETYPE_ROUTER;
//  366 #endif // BUILD_ALL_DEVICES
//  367 
//  368 #if defined ( HOLD_AUTO_START )
//  369   // HOLD_AUTO_START is a compile option that will surpress ZDApp
//  370   //  from starting the device and wait for the application to
//  371   //  start the device.
//  372   ZDOInitDevice(0);
//  373 #endif
//  374 
//  375 
//  376 
//  377   //WeBee点对点通讯定义
//  378   Point_To_Point_DstAddr.addrMode = (afAddrMode_t)Addr16Bit; //点播模式
        MOV     DPTR,#Point_To_Point_DstAddr + 8
        MOV     A,#0x2
        MOVX    @DPTR,A
//  379   Point_To_Point_DstAddr.endPoint = SAMPLEAPP_ENDPOINT;
        INC     DPTR
        MOV     A,#0x14
        MOVX    @DPTR,A
//  380   Point_To_Point_DstAddr.addr.shortAddr = 0xB6AE; //发给协调器
        MOV     DPTR,#Point_To_Point_DstAddr
        MOV     A,#-0x52
        MOVX    @DPTR,A
        INC     DPTR
        MOV     A,#-0x4a
        MOVX    @DPTR,A
//  381 
//  382 
//  383 
//  384 
//  385 
//  386 
//  387   // Setup for the periodic message's destination address
//  388   // Broadcast to everyone     广播方式定义
//  389   SampleApp_Periodic_DstAddr.addrMode = (afAddrMode_t)AddrBroadcast;
        MOV     DPTR,#SampleApp_Periodic_DstAddr + 8
        MOV     A,#0xf
        MOVX    @DPTR,A
//  390   SampleApp_Periodic_DstAddr.endPoint = SAMPLEAPP_ENDPOINT;
        INC     DPTR
        MOV     A,#0x14
        MOVX    @DPTR,A
//  391   SampleApp_Periodic_DstAddr.addr.shortAddr = 0xFFFF;//发送给所有设备,睡眠中的节点由父节点暂存直到超时
        MOV     DPTR,#SampleApp_Periodic_DstAddr
        MOV     A,#-0x1
        MOVX    @DPTR,A
        INC     DPTR
        MOVX    @DPTR,A
//  392   //0xFFFD 发送给非睡眠状态的所有设备
//  393   //0xFFFC 发送给所有路由器以及协调器
//  394 
//  395 
//  396 
//  397 
//  398   //组播Group1设置
//  399   // Setup for the flash command's destination address - Group 1
//  400   SampleApp_Flash_DstAddr.addrMode = (afAddrMode_t)afAddrGroup;
        MOV     DPTR,#SampleApp_Flash_DstAddr + 8
        MOV     A,#0x1
        MOVX    @DPTR,A
//  401   SampleApp_Flash_DstAddr.endPoint = SAMPLEAPP_ENDPOINT;  //endpoint 端点
        INC     DPTR
        MOV     A,#0x14
        MOVX    @DPTR,A
//  402   SampleApp_Flash_DstAddr.addr.shortAddr = SAMPLEAPP_FLASH_GROUP;
        MOV     DPTR,#SampleApp_Flash_DstAddr
        MOV     A,#0x2
        MOVX    @DPTR,A
        INC     DPTR
        CLR     A
        MOVX    @DPTR,A
//  403 
//  404 
//  405 
//  406 
//  407 
//  408   // Fill out the endpoint description.
//  409   SampleApp_epDesc.endPoint = SAMPLEAPP_ENDPOINT;
        MOV     DPTR,#SampleApp_epDesc
        MOV     A,#0x14
        MOVX    @DPTR,A
//  410   SampleApp_epDesc.task_id = &SampleApp_TaskID;
        INC     DPTR
        MOV     A,#SampleApp_TaskID & 0xff
        MOVX    @DPTR,A
        INC     DPTR
        MOV     A,#(SampleApp_TaskID >> 8) & 0xff
        MOVX    @DPTR,A
//  411   SampleApp_epDesc.simpleDesc
//  412             = (SimpleDescriptionFormat_t *)&SampleApp_SimpleDesc;
        INC     DPTR
        MOV     A,#SampleApp_SimpleDesc & 0xff
        MOVX    @DPTR,A
        INC     DPTR
        MOV     A,#(SampleApp_SimpleDesc >> 8) & 0xff
        MOVX    @DPTR,A
//  413   SampleApp_epDesc.latencyReq = noLatencyReqs;
        INC     DPTR
        CLR     A
        MOVX    @DPTR,A
//  414 
//  415   // Register the endpoint description with the AF
//  416   afRegister( &SampleApp_epDesc );
        ; Setup parameters for call to function afRegister
        MOV     R2,#SampleApp_epDesc & 0xff
        MOV     R3,#(SampleApp_epDesc >> 8) & 0xff
        LCALL   ??afRegister?relay
//  417 
//  418   // Register for all key events - This app will handle all key events
//  419   RegisterForKeys( SampleApp_TaskID );
        ; Setup parameters for call to function RegisterForKeys
        MOV     DPTR,#SampleApp_TaskID
        MOVX    A,@DPTR
        MOV     R1,A
        LCALL   ??RegisterForKeys?relay
//  420 
//  421 
//  422 
//  423   /***********设置 Group_ID*************/
//  424   // By default, all devices start out in Group 1
//  425   SampleApp_Group.ID = SAMPLEAPP_FLASH_GROUP; //0x0001
        MOV     DPTR,#SampleApp_Group
        MOV     A,#0x2
        MOVX    @DPTR,A
        INC     DPTR
        CLR     A
        MOVX    @DPTR,A
//  426   osal_memcpy( SampleApp_Group.name, "Group 1", 7  );
        ; Setup parameters for call to function osal_memcpy
        MOV     ?V0 + 0,#`?<Constant "Group 1">` & 0xff
        MOV     ?V0 + 1,#(`?<Constant "Group 1">` >> 8) & 0xff
        MOV     ?V0 + 2,A
        MOV     R0,#?V0 + 0
        LCALL   ?PUSH_XSTACK_I_THREE
        CFI CFA_XSP16 add(XSP16, 14)
        MOV     R4,#0x7
        MOV     R5,#0x0
        MOV     R2,#(SampleApp_Group + 2) & 0xff
        MOV     R3,#((SampleApp_Group + 2) >> 8) & 0xff
        LCALL   ??osal_memcpy?relay
        MOV     A,#0x3
        LCALL   ?DEALLOC_XSTACK8
        CFI CFA_XSP16 add(XSP16, 11)
//  427   aps_AddGroup( SAMPLEAPP_ENDPOINT, &SampleApp_Group );
        ; Setup parameters for call to function aps_AddGroup
        MOV     R2,#SampleApp_Group & 0xff
        MOV     R3,#(SampleApp_Group >> 8) & 0xff
        MOV     R1,#0x14
        LCALL   ??aps_AddGroup?relay
//  428 
//  429 
//  430 
//  431 #if defined ( LCD_SUPPORTED )
//  432   HalLcdWriteString( "SampleApp", HAL_LCD_LINE_1 );
        ; Setup parameters for call to function HalLcdWriteString
        MOV     R1,#0x1
        MOV     R2,#`?<Constant "SampleApp">` & 0xff
        MOV     R3,#(`?<Constant "SampleApp">` >> 8) & 0xff
        LCALL   ??HalLcdWriteString?relay
//  433 #endif
//  434 }
        MOV     R7,#0x3
        LJMP    ?BANKED_LEAVE_XDATA
        CFI EndBlock cfiBlock6

        RSEG BANKED_CODE:CODE:NOROOT(0)
?Subroutine48:
        CFI Block cfiCond7 Using cfiCommon0
        CFI NoFunction
        CFI Conditional ??CrossCallReturnLabel_96
        CFI R6 load(1, XDATA, add(CFA_XSP16, literal(-11)))
        CFI VB load(1, XDATA, add(CFA_XSP16, literal(-10)))
        CFI V0 load(1, XDATA, add(CFA_XSP16, literal(-9)))
        CFI V1 load(1, XDATA, add(CFA_XSP16, literal(-8)))
        CFI V2 load(1, XDATA, add(CFA_XSP16, literal(-7)))
        CFI R7 load(1, XDATA, add(CFA_XSP16, literal(-6)))
        CFI ?RET_LOW load(1, XDATA, add(CFA_XSP16, literal(-5)))
        CFI ?RET_HIGH load(1, XDATA, add(CFA_XSP16, literal(-4)))
        CFI ?BRET_EXT load(1, XDATA, add(CFA_XSP16, literal(-3)))
        CFI DPL0 load(1, XDATA, add(CFA_XSP16, literal(-2)))
        CFI DPH0 load(1, XDATA, add(CFA_XSP16, literal(-1)))
        CFI CFA_SP SP+0
        CFI CFA_XSP16 add(XSP16, 11)
        CFI Block cfiCond8 Using cfiCommon0
        CFI (cfiCond8) NoFunction
        CFI (cfiCond8) Conditional ??CrossCallReturnLabel_97, ??CrossCallReturnLabel_39
        CFI (cfiCond8) R6 load(1, XDATA, add(CFA_XSP16, literal(-20)))
        CFI (cfiCond8) VB load(1, XDATA, add(CFA_XSP16, literal(-19)))
        CFI (cfiCond8) V0 load(1, XDATA, add(CFA_XSP16, literal(-18)))
        CFI (cfiCond8) V1 load(1, XDATA, add(CFA_XSP16, literal(-17)))
        CFI (cfiCond8) V2 load(1, XDATA, add(CFA_XSP16, literal(-16)))
        CFI (cfiCond8) V3 load(1, XDATA, add(CFA_XSP16, literal(-15)))
        CFI (cfiCond8) V4 load(1, XDATA, add(CFA_XSP16, literal(-14)))
        CFI (cfiCond8) V5 load(1, XDATA, add(CFA_XSP16, literal(-13)))
        CFI (cfiCond8) V6 load(1, XDATA, add(CFA_XSP16, literal(-12)))
        CFI (cfiCond8) V7 load(1, XDATA, add(CFA_XSP16, literal(-11)))
        CFI (cfiCond8) V8 load(1, XDATA, add(CFA_XSP16, literal(-10)))
        CFI (cfiCond8) V9 load(1, XDATA, add(CFA_XSP16, literal(-9)))
        CFI (cfiCond8) V10 load(1, XDATA, add(CFA_XSP16, literal(-8)))
        CFI (cfiCond8) V11 load(1, XDATA, add(CFA_XSP16, literal(-7)))
        CFI (cfiCond8) R7 load(1, XDATA, add(CFA_XSP16, literal(-6)))
        CFI (cfiCond8) ?RET_LOW load(1, XDATA, add(CFA_XSP16, literal(-5)))
        CFI (cfiCond8) ?RET_HIGH load(1, XDATA, add(CFA_XSP16, literal(-4)))
        CFI (cfiCond8) ?BRET_EXT load(1, XDATA, add(CFA_XSP16, literal(-3)))
        CFI (cfiCond8) DPL0 load(1, XDATA, add(CFA_XSP16, literal(-2)))
        CFI (cfiCond8) DPH0 load(1, XDATA, add(CFA_XSP16, literal(-1)))
        CFI (cfiCond8) CFA_SP SP+0
        CFI (cfiCond8) CFA_XSP16 add(XSP16, 33)
        CFI Block cfiCond9 Using cfiCommon0
        CFI (cfiCond9) NoFunction
        CFI (cfiCond9) Conditional ??CrossCallReturnLabel_97, ??CrossCallReturnLabel_40
        CFI (cfiCond9) R6 load(1, XDATA, add(CFA_XSP16, literal(-20)))
        CFI (cfiCond9) VB load(1, XDATA, add(CFA_XSP16, literal(-19)))
        CFI (cfiCond9) V0 load(1, XDATA, add(CFA_XSP16, literal(-18)))
        CFI (cfiCond9) V1 load(1, XDATA, add(CFA_XSP16, literal(-17)))
        CFI (cfiCond9) V2 load(1, XDATA, add(CFA_XSP16, literal(-16)))
        CFI (cfiCond9) V3 load(1, XDATA, add(CFA_XSP16, literal(-15)))
        CFI (cfiCond9) V4 load(1, XDATA, add(CFA_XSP16, literal(-14)))
        CFI (cfiCond9) V5 load(1, XDATA, add(CFA_XSP16, literal(-13)))
        CFI (cfiCond9) V6 load(1, XDATA, add(CFA_XSP16, literal(-12)))
        CFI (cfiCond9) V7 load(1, XDATA, add(CFA_XSP16, literal(-11)))
        CFI (cfiCond9) V8 load(1, XDATA, add(CFA_XSP16, literal(-10)))
        CFI (cfiCond9) V9 load(1, XDATA, add(CFA_XSP16, literal(-9)))
        CFI (cfiCond9) V10 load(1, XDATA, add(CFA_XSP16, literal(-8)))
        CFI (cfiCond9) V11 load(1, XDATA, add(CFA_XSP16, literal(-7)))
        CFI (cfiCond9) R7 load(1, XDATA, add(CFA_XSP16, literal(-6)))
        CFI (cfiCond9) ?RET_LOW load(1, XDATA, add(CFA_XSP16, literal(-5)))
        CFI (cfiCond9) ?RET_HIGH load(1, XDATA, add(CFA_XSP16, literal(-4)))
        CFI (cfiCond9) ?BRET_EXT load(1, XDATA, add(CFA_XSP16, literal(-3)))
        CFI (cfiCond9) DPL0 load(1, XDATA, add(CFA_XSP16, literal(-2)))
        CFI (cfiCond9) DPH0 load(1, XDATA, add(CFA_XSP16, literal(-1)))
        CFI (cfiCond9) CFA_SP SP+0
        CFI (cfiCond9) CFA_XSP16 add(XSP16, 33)
        CFI Block cfiPicker10 Using cfiCommon1
        CFI (cfiPicker10) NoFunction
        CFI (cfiPicker10) Picker
        MOVX    @DPTR,A
        INC     DPTR
        CLR     A
        CFI EndBlock cfiCond7
        CFI EndBlock cfiCond8
        CFI EndBlock cfiCond9
        CFI EndBlock cfiPicker10
        REQUIRE ??Subroutine62_0
        ; // Fall through to label ??Subroutine62_0

        RSEG BANKED_CODE:CODE:NOROOT(0)
??Subroutine62_0:
        CFI Block cfiCond11 Using cfiCommon0
        CFI NoFunction
        CFI Conditional ??CrossCallReturnLabel_98
        CFI R6 load(1, XDATA, add(CFA_XSP16, literal(-12)))
        CFI VB load(1, XDATA, add(CFA_XSP16, literal(-11)))
        CFI V0 load(1, XDATA, add(CFA_XSP16, literal(-10)))
        CFI V1 load(1, XDATA, add(CFA_XSP16, literal(-9)))
        CFI V2 load(1, XDATA, add(CFA_XSP16, literal(-8)))
        CFI V3 load(1, XDATA, add(CFA_XSP16, literal(-7)))
        CFI R7 load(1, XDATA, add(CFA_XSP16, literal(-6)))
        CFI ?RET_LOW load(1, XDATA, add(CFA_XSP16, literal(-5)))
        CFI ?RET_HIGH load(1, XDATA, add(CFA_XSP16, literal(-4)))
        CFI ?BRET_EXT load(1, XDATA, add(CFA_XSP16, literal(-3)))
        CFI DPL0 load(1, XDATA, add(CFA_XSP16, literal(-2)))
        CFI DPH0 load(1, XDATA, add(CFA_XSP16, literal(-1)))
        CFI CFA_SP SP+0
        CFI CFA_XSP16 add(XSP16, 17)
        CFI Block cfiCond12 Using cfiCommon0
        CFI (cfiCond12) NoFunction
        CFI (cfiCond12) Conditional ??CrossCallReturnLabel_96
        CFI (cfiCond12) R6 load(1, XDATA, add(CFA_XSP16, literal(-11)))
        CFI (cfiCond12) VB load(1, XDATA, add(CFA_XSP16, literal(-10)))
        CFI (cfiCond12) V0 load(1, XDATA, add(CFA_XSP16, literal(-9)))
        CFI (cfiCond12) V1 load(1, XDATA, add(CFA_XSP16, literal(-8)))
        CFI (cfiCond12) V2 load(1, XDATA, add(CFA_XSP16, literal(-7)))
        CFI (cfiCond12) R7 load(1, XDATA, add(CFA_XSP16, literal(-6)))
        CFI (cfiCond12) ?RET_LOW load(1, XDATA, add(CFA_XSP16, literal(-5)))
        CFI (cfiCond12) ?RET_HIGH load(1, XDATA, add(CFA_XSP16, literal(-4)))
        CFI (cfiCond12) ?BRET_EXT load(1, XDATA, add(CFA_XSP16, literal(-3)))
        CFI (cfiCond12) DPL0 load(1, XDATA, add(CFA_XSP16, literal(-2)))
        CFI (cfiCond12) DPH0 load(1, XDATA, add(CFA_XSP16, literal(-1)))
        CFI (cfiCond12) CFA_SP SP+0
        CFI (cfiCond12) CFA_XSP16 add(XSP16, 11)
        CFI Block cfiCond13 Using cfiCommon0
        CFI (cfiCond13) NoFunction
        CFI (cfiCond13) Conditional ??CrossCallReturnLabel_97, ??CrossCallReturnLabel_39
        CFI (cfiCond13) R6 load(1, XDATA, add(CFA_XSP16, literal(-20)))
        CFI (cfiCond13) VB load(1, XDATA, add(CFA_XSP16, literal(-19)))
        CFI (cfiCond13) V0 load(1, XDATA, add(CFA_XSP16, literal(-18)))
        CFI (cfiCond13) V1 load(1, XDATA, add(CFA_XSP16, literal(-17)))
        CFI (cfiCond13) V2 load(1, XDATA, add(CFA_XSP16, literal(-16)))
        CFI (cfiCond13) V3 load(1, XDATA, add(CFA_XSP16, literal(-15)))
        CFI (cfiCond13) V4 load(1, XDATA, add(CFA_XSP16, literal(-14)))
        CFI (cfiCond13) V5 load(1, XDATA, add(CFA_XSP16, literal(-13)))
        CFI (cfiCond13) V6 load(1, XDATA, add(CFA_XSP16, literal(-12)))
        CFI (cfiCond13) V7 load(1, XDATA, add(CFA_XSP16, literal(-11)))
        CFI (cfiCond13) V8 load(1, XDATA, add(CFA_XSP16, literal(-10)))
        CFI (cfiCond13) V9 load(1, XDATA, add(CFA_XSP16, literal(-9)))
        CFI (cfiCond13) V10 load(1, XDATA, add(CFA_XSP16, literal(-8)))
        CFI (cfiCond13) V11 load(1, XDATA, add(CFA_XSP16, literal(-7)))
        CFI (cfiCond13) R7 load(1, XDATA, add(CFA_XSP16, literal(-6)))
        CFI (cfiCond13) ?RET_LOW load(1, XDATA, add(CFA_XSP16, literal(-5)))
        CFI (cfiCond13) ?RET_HIGH load(1, XDATA, add(CFA_XSP16, literal(-4)))
        CFI (cfiCond13) ?BRET_EXT load(1, XDATA, add(CFA_XSP16, literal(-3)))
        CFI (cfiCond13) DPL0 load(1, XDATA, add(CFA_XSP16, literal(-2)))
        CFI (cfiCond13) DPH0 load(1, XDATA, add(CFA_XSP16, literal(-1)))
        CFI (cfiCond13) CFA_SP SP+0
        CFI (cfiCond13) CFA_XSP16 add(XSP16, 33)
        CFI Block cfiCond14 Using cfiCommon0
        CFI (cfiCond14) NoFunction
        CFI (cfiCond14) Conditional ??CrossCallReturnLabel_97, ??CrossCallReturnLabel_40
        CFI (cfiCond14) R6 load(1, XDATA, add(CFA_XSP16, literal(-20)))
        CFI (cfiCond14) VB load(1, XDATA, add(CFA_XSP16, literal(-19)))
        CFI (cfiCond14) V0 load(1, XDATA, add(CFA_XSP16, literal(-18)))
        CFI (cfiCond14) V1 load(1, XDATA, add(CFA_XSP16, literal(-17)))
        CFI (cfiCond14) V2 load(1, XDATA, add(CFA_XSP16, literal(-16)))
        CFI (cfiCond14) V3 load(1, XDATA, add(CFA_XSP16, literal(-15)))
        CFI (cfiCond14) V4 load(1, XDATA, add(CFA_XSP16, literal(-14)))
        CFI (cfiCond14) V5 load(1, XDATA, add(CFA_XSP16, literal(-13)))
        CFI (cfiCond14) V6 load(1, XDATA, add(CFA_XSP16, literal(-12)))
        CFI (cfiCond14) V7 load(1, XDATA, add(CFA_XSP16, literal(-11)))
        CFI (cfiCond14) V8 load(1, XDATA, add(CFA_XSP16, literal(-10)))
        CFI (cfiCond14) V9 load(1, XDATA, add(CFA_XSP16, literal(-9)))
        CFI (cfiCond14) V10 load(1, XDATA, add(CFA_XSP16, literal(-8)))
        CFI (cfiCond14) V11 load(1, XDATA, add(CFA_XSP16, literal(-7)))
        CFI (cfiCond14) R7 load(1, XDATA, add(CFA_XSP16, literal(-6)))
        CFI (cfiCond14) ?RET_LOW load(1, XDATA, add(CFA_XSP16, literal(-5)))
        CFI (cfiCond14) ?RET_HIGH load(1, XDATA, add(CFA_XSP16, literal(-4)))
        CFI (cfiCond14) ?BRET_EXT load(1, XDATA, add(CFA_XSP16, literal(-3)))
        CFI (cfiCond14) DPL0 load(1, XDATA, add(CFA_XSP16, literal(-2)))
        CFI (cfiCond14) DPH0 load(1, XDATA, add(CFA_XSP16, literal(-1)))
        CFI (cfiCond14) CFA_SP SP+0
        CFI (cfiCond14) CFA_XSP16 add(XSP16, 33)
        CFI Block cfiPicker15 Using cfiCommon1
        CFI (cfiPicker15) NoFunction
        CFI (cfiPicker15) Picker
        MOVX    @DPTR,A
        MOV     DPL,R0
        MOV     DPH,R1
        INC     DPTR
        INC     DPTR
        RET
        CFI EndBlock cfiCond11
        CFI EndBlock cfiCond12
        CFI EndBlock cfiCond13
        CFI EndBlock cfiCond14
        CFI EndBlock cfiPicker15

        RSEG BANKED_CODE:CODE:NOROOT(0)
?Subroutine26:
        CFI Block cfiCond16 Using cfiCommon0
        CFI NoFunction
        CFI Conditional ??CrossCallReturnLabel_46
        CFI R6 load(1, XDATA, add(CFA_XSP16, literal(-11)))
        CFI VB load(1, XDATA, add(CFA_XSP16, literal(-10)))
        CFI V0 load(1, XDATA, add(CFA_XSP16, literal(-9)))
        CFI V1 load(1, XDATA, add(CFA_XSP16, literal(-8)))
        CFI V2 load(1, XDATA, add(CFA_XSP16, literal(-7)))
        CFI R7 load(1, XDATA, add(CFA_XSP16, literal(-6)))
        CFI ?RET_LOW load(1, XDATA, add(CFA_XSP16, literal(-5)))
        CFI ?RET_HIGH load(1, XDATA, add(CFA_XSP16, literal(-4)))
        CFI ?BRET_EXT load(1, XDATA, add(CFA_XSP16, literal(-3)))
        CFI DPL0 load(1, XDATA, add(CFA_XSP16, literal(-2)))
        CFI DPH0 load(1, XDATA, add(CFA_XSP16, literal(-1)))
        CFI CFA_SP SP+0
        CFI CFA_XSP16 add(XSP16, 11)
        CFI Block cfiCond17 Using cfiCommon0
        CFI (cfiCond17) NoFunction
        CFI (cfiCond17) Conditional ??CrossCallReturnLabel_47
        CFI (cfiCond17) R6 load(1, XDATA, add(CFA_XSP16, literal(-11)))
        CFI (cfiCond17) VB load(1, XDATA, add(CFA_XSP16, literal(-10)))
        CFI (cfiCond17) V0 load(1, XDATA, add(CFA_XSP16, literal(-9)))
        CFI (cfiCond17) V1 load(1, XDATA, add(CFA_XSP16, literal(-8)))
        CFI (cfiCond17) V2 load(1, XDATA, add(CFA_XSP16, literal(-7)))
        CFI (cfiCond17) R7 load(1, XDATA, add(CFA_XSP16, literal(-6)))
        CFI (cfiCond17) ?RET_LOW load(1, XDATA, add(CFA_XSP16, literal(-5)))
        CFI (cfiCond17) ?RET_HIGH load(1, XDATA, add(CFA_XSP16, literal(-4)))
        CFI (cfiCond17) ?BRET_EXT load(1, XDATA, add(CFA_XSP16, literal(-3)))
        CFI (cfiCond17) DPL0 load(1, XDATA, add(CFA_XSP16, literal(-2)))
        CFI (cfiCond17) DPH0 load(1, XDATA, add(CFA_XSP16, literal(-1)))
        CFI (cfiCond17) CFA_SP SP+0
        CFI (cfiCond17) CFA_XSP16 add(XSP16, 11)
        CFI Block cfiPicker18 Using cfiCommon1
        CFI (cfiPicker18) NoFunction
        CFI (cfiPicker18) Picker
        MOVX    @DPTR,A
        MOV     A,R2
        ADD     A,#0x1
        INC     R2
        MOV     A,R3
        ADDC    A,#0x0
        MOV     R3,A
        CLR     C
        MOV     A,R2
        RET
        CFI EndBlock cfiCond16
        CFI EndBlock cfiCond17
        CFI EndBlock cfiPicker18

        RSEG BANKED_CODE:CODE:NOROOT(0)
?Subroutine7:
        CFI Block cfiCond19 Using cfiCommon0
        CFI NoFunction
        CFI Conditional ??CrossCallReturnLabel_100
        CFI R6 load(1, XDATA, add(CFA_XSP16, literal(-11)))
        CFI VB load(1, XDATA, add(CFA_XSP16, literal(-10)))
        CFI V0 load(1, XDATA, add(CFA_XSP16, literal(-9)))
        CFI V1 load(1, XDATA, add(CFA_XSP16, literal(-8)))
        CFI V2 load(1, XDATA, add(CFA_XSP16, literal(-7)))
        CFI R7 load(1, XDATA, add(CFA_XSP16, literal(-6)))
        CFI ?RET_LOW load(1, XDATA, add(CFA_XSP16, literal(-5)))
        CFI ?RET_HIGH load(1, XDATA, add(CFA_XSP16, literal(-4)))
        CFI ?BRET_EXT load(1, XDATA, add(CFA_XSP16, literal(-3)))
        CFI DPL0 load(1, XDATA, add(CFA_XSP16, literal(-2)))
        CFI DPH0 load(1, XDATA, add(CFA_XSP16, literal(-1)))
        CFI CFA_SP SP+0
        CFI CFA_XSP16 add(XSP16, 11)
        CFI Block cfiCond20 Using cfiCommon0
        CFI (cfiCond20) NoFunction
        CFI (cfiCond20) Conditional ??CrossCallReturnLabel_101
        CFI (cfiCond20) R6 load(1, XDATA, add(CFA_XSP16, literal(-12)))
        CFI (cfiCond20) VB load(1, XDATA, add(CFA_XSP16, literal(-11)))
        CFI (cfiCond20) V0 load(1, XDATA, add(CFA_XSP16, literal(-10)))
        CFI (cfiCond20) V1 load(1, XDATA, add(CFA_XSP16, literal(-9)))
        CFI (cfiCond20) V2 load(1, XDATA, add(CFA_XSP16, literal(-8)))
        CFI (cfiCond20) V3 load(1, XDATA, add(CFA_XSP16, literal(-7)))
        CFI (cfiCond20) R7 load(1, XDATA, add(CFA_XSP16, literal(-6)))
        CFI (cfiCond20) ?RET_LOW load(1, XDATA, add(CFA_XSP16, literal(-5)))
        CFI (cfiCond20) ?RET_HIGH load(1, XDATA, add(CFA_XSP16, literal(-4)))
        CFI (cfiCond20) ?BRET_EXT load(1, XDATA, add(CFA_XSP16, literal(-3)))
        CFI (cfiCond20) DPL0 load(1, XDATA, add(CFA_XSP16, literal(-2)))
        CFI (cfiCond20) DPH0 load(1, XDATA, add(CFA_XSP16, literal(-1)))
        CFI (cfiCond20) CFA_SP SP+0
        CFI (cfiCond20) CFA_XSP16 add(XSP16, 17)
        CFI Block cfiPicker21 Using cfiCommon1
        CFI (cfiPicker21) NoFunction
        CFI (cfiPicker21) Picker
        MOV     R1,A
        MOV     A,R0
        CLR     C
        RLC     A
        MOV     R0,A
        MOV     A,R1
        CFI EndBlock cfiCond19
        CFI EndBlock cfiCond20
        CFI EndBlock cfiPicker21
        REQUIRE ??Subroutine63_0
        ; // Fall through to label ??Subroutine63_0

        RSEG BANKED_CODE:CODE:NOROOT(0)
??Subroutine63_0:
        CFI Block cfiCond22 Using cfiCommon0
        CFI NoFunction
        CFI Conditional ??CrossCallReturnLabel_99
        CFI R6 load(1, XDATA, add(CFA_XSP16, literal(-10)))
        CFI VB load(1, XDATA, add(CFA_XSP16, literal(-9)))
        CFI V0 load(1, XDATA, add(CFA_XSP16, literal(-8)))
        CFI V1 load(1, XDATA, add(CFA_XSP16, literal(-7)))
        CFI R7 load(1, XDATA, add(CFA_XSP16, literal(-6)))
        CFI ?RET_LOW load(1, XDATA, add(CFA_XSP16, literal(-5)))
        CFI ?RET_HIGH load(1, XDATA, add(CFA_XSP16, literal(-4)))
        CFI ?BRET_EXT load(1, XDATA, add(CFA_XSP16, literal(-3)))
        CFI DPL0 load(1, XDATA, add(CFA_XSP16, literal(-2)))
        CFI DPH0 load(1, XDATA, add(CFA_XSP16, literal(-1)))
        CFI CFA_SP SP+0
        CFI CFA_XSP16 add(XSP16, 10)
        CFI Block cfiCond23 Using cfiCommon0
        CFI (cfiCond23) NoFunction
        CFI (cfiCond23) Conditional ??CrossCallReturnLabel_100
        CFI (cfiCond23) R6 load(1, XDATA, add(CFA_XSP16, literal(-11)))
        CFI (cfiCond23) VB load(1, XDATA, add(CFA_XSP16, literal(-10)))
        CFI (cfiCond23) V0 load(1, XDATA, add(CFA_XSP16, literal(-9)))
        CFI (cfiCond23) V1 load(1, XDATA, add(CFA_XSP16, literal(-8)))
        CFI (cfiCond23) V2 load(1, XDATA, add(CFA_XSP16, literal(-7)))
        CFI (cfiCond23) R7 load(1, XDATA, add(CFA_XSP16, literal(-6)))
        CFI (cfiCond23) ?RET_LOW load(1, XDATA, add(CFA_XSP16, literal(-5)))
        CFI (cfiCond23) ?RET_HIGH load(1, XDATA, add(CFA_XSP16, literal(-4)))
        CFI (cfiCond23) ?BRET_EXT load(1, XDATA, add(CFA_XSP16, literal(-3)))
        CFI (cfiCond23) DPL0 load(1, XDATA, add(CFA_XSP16, literal(-2)))
        CFI (cfiCond23) DPH0 load(1, XDATA, add(CFA_XSP16, literal(-1)))
        CFI (cfiCond23) CFA_SP SP+0
        CFI (cfiCond23) CFA_XSP16 add(XSP16, 11)
        CFI Block cfiCond24 Using cfiCommon0
        CFI (cfiCond24) NoFunction
        CFI (cfiCond24) Conditional ??CrossCallReturnLabel_101
        CFI (cfiCond24) R6 load(1, XDATA, add(CFA_XSP16, literal(-12)))
        CFI (cfiCond24) VB load(1, XDATA, add(CFA_XSP16, literal(-11)))
        CFI (cfiCond24) V0 load(1, XDATA, add(CFA_XSP16, literal(-10)))
        CFI (cfiCond24) V1 load(1, XDATA, add(CFA_XSP16, literal(-9)))
        CFI (cfiCond24) V2 load(1, XDATA, add(CFA_XSP16, literal(-8)))
        CFI (cfiCond24) V3 load(1, XDATA, add(CFA_XSP16, literal(-7)))
        CFI (cfiCond24) R7 load(1, XDATA, add(CFA_XSP16, literal(-6)))
        CFI (cfiCond24) ?RET_LOW load(1, XDATA, add(CFA_XSP16, literal(-5)))
        CFI (cfiCond24) ?RET_HIGH load(1, XDATA, add(CFA_XSP16, literal(-4)))
        CFI (cfiCond24) ?BRET_EXT load(1, XDATA, add(CFA_XSP16, literal(-3)))
        CFI (cfiCond24) DPL0 load(1, XDATA, add(CFA_XSP16, literal(-2)))
        CFI (cfiCond24) DPH0 load(1, XDATA, add(CFA_XSP16, literal(-1)))
        CFI (cfiCond24) CFA_SP SP+0
        CFI (cfiCond24) CFA_XSP16 add(XSP16, 17)
        CFI Block cfiPicker25 Using cfiCommon1
        CFI (cfiPicker25) NoFunction
        CFI (cfiPicker25) Picker
        LCALL   ?Subroutine45 & 0xFFFF
??CrossCallReturnLabel_103:
        MOVX    A,@DPTR
        RET
        CFI EndBlock cfiCond22
        CFI EndBlock cfiCond23
        CFI EndBlock cfiCond24
        CFI EndBlock cfiPicker25
//  435 
//  436 /*********************************************************************
//  437  * @fn      SampleApp_ProcessEvent
//  438  *
//  439  *        ******************应用处理程序***************************
//  440  *
//  441  * @brief   Generic Application Task event processor.  This function
//  442  *          is called to process all events for the task.  Events
//  443  *          include timers, messages and any other user defined events.
//  444  *
//  445  * @param   task_id  - The OSAL assigned task ID.
//  446  * @param   events - events to process.  This is a bit map and can
//  447  *                   contain more than one event.
//  448  *
//  449  * @return  none
//  450  */

        RSEG BANKED_CODE:CODE:NOROOT(0)
//  451 uint16 SampleApp_ProcessEvent( uint8 task_id, uint16 events )
SampleApp_ProcessEvent:
        CFI Block cfiBlock26 Using cfiCommon0
        CFI Function SampleApp_ProcessEvent
        CODE
//  452 {
        FUNCALL SampleApp_ProcessEvent, osal_msg_receive
        LOCFRAME ISTACK, 0, STACK
        LOCFRAME PSTACK, 0, STACK
        LOCFRAME XSTACK, 12, STACK
        LOCFRAME IOVERLAY, 0, STATIC
        LOCFRAME DOVERLAY, 0, STATIC
        ARGFRAME ISTACK, 0, STACK
        ARGFRAME PSTACK, 0, STACK
        ARGFRAME XSTACK, 12, STACK
        ARGFRAME IOVERLAY, 0, STATIC
        ARGFRAME DOVERLAY, 0, STATIC
        FUNCALL SampleApp_ProcessEvent, osal_start_timerEx
        LOCFRAME ISTACK, 0, STACK
        LOCFRAME PSTACK, 0, STACK
        LOCFRAME XSTACK, 12, STACK
        LOCFRAME IOVERLAY, 0, STATIC
        LOCFRAME DOVERLAY, 0, STATIC
        ARGFRAME ISTACK, 0, STACK
        ARGFRAME PSTACK, 0, STACK
        ARGFRAME XSTACK, 12, STACK
        ARGFRAME IOVERLAY, 0, STATIC
        ARGFRAME DOVERLAY, 0, STATIC
        FUNCALL SampleApp_ProcessEvent, osal_msg_deallocate
        LOCFRAME ISTACK, 0, STACK
        LOCFRAME PSTACK, 0, STACK
        LOCFRAME XSTACK, 12, STACK
        LOCFRAME IOVERLAY, 0, STATIC
        LOCFRAME DOVERLAY, 0, STATIC
        ARGFRAME ISTACK, 0, STACK
        ARGFRAME PSTACK, 0, STACK
        ARGFRAME XSTACK, 12, STACK
        ARGFRAME IOVERLAY, 0, STATIC
        ARGFRAME DOVERLAY, 0, STATIC
        FUNCALL SampleApp_ProcessEvent, osal_msg_receive
        LOCFRAME ISTACK, 0, STACK
        LOCFRAME PSTACK, 0, STACK
        LOCFRAME XSTACK, 12, STACK
        LOCFRAME IOVERLAY, 0, STATIC
        LOCFRAME DOVERLAY, 0, STATIC
        ARGFRAME ISTACK, 0, STACK
        ARGFRAME PSTACK, 0, STACK
        ARGFRAME XSTACK, 12, STACK
        ARGFRAME IOVERLAY, 0, STATIC
        ARGFRAME DOVERLAY, 0, STATIC
        FUNCALL SampleApp_ProcessEvent, SampleApp_SerialCMD
        LOCFRAME ISTACK, 0, STACK
        LOCFRAME PSTACK, 0, STACK
        LOCFRAME XSTACK, 12, STACK
        LOCFRAME IOVERLAY, 0, STATIC
        LOCFRAME DOVERLAY, 0, STATIC
        ARGFRAME ISTACK, 0, STACK
        ARGFRAME PSTACK, 0, STACK
        ARGFRAME XSTACK, 12, STACK
        ARGFRAME IOVERLAY, 0, STATIC
        ARGFRAME DOVERLAY, 0, STATIC
        FUNCALL SampleApp_ProcessEvent, SampleApp_HandleKeys
        LOCFRAME ISTACK, 0, STACK
        LOCFRAME PSTACK, 0, STACK
        LOCFRAME XSTACK, 12, STACK
        LOCFRAME IOVERLAY, 0, STATIC
        LOCFRAME DOVERLAY, 0, STATIC
        ARGFRAME ISTACK, 0, STACK
        ARGFRAME PSTACK, 0, STACK
        ARGFRAME XSTACK, 12, STACK
        ARGFRAME IOVERLAY, 0, STATIC
        ARGFRAME DOVERLAY, 0, STATIC
        FUNCALL SampleApp_ProcessEvent, SampleApp_MessageMSGCB
        LOCFRAME ISTACK, 0, STACK
        LOCFRAME PSTACK, 0, STACK
        LOCFRAME XSTACK, 12, STACK
        LOCFRAME IOVERLAY, 0, STATIC
        LOCFRAME DOVERLAY, 0, STATIC
        ARGFRAME ISTACK, 0, STACK
        ARGFRAME PSTACK, 0, STACK
        ARGFRAME XSTACK, 12, STACK
        ARGFRAME IOVERLAY, 0, STATIC
        ARGFRAME DOVERLAY, 0, STATIC
        FUNCALL SampleApp_ProcessEvent, SampleApp_SendGroupMessage
        LOCFRAME ISTACK, 0, STACK
        LOCFRAME PSTACK, 0, STACK
        LOCFRAME XSTACK, 12, STACK
        LOCFRAME IOVERLAY, 0, STATIC
        LOCFRAME DOVERLAY, 0, STATIC
        ARGFRAME ISTACK, 0, STACK
        ARGFRAME PSTACK, 0, STACK
        ARGFRAME XSTACK, 12, STACK
        ARGFRAME IOVERLAY, 0, STATIC
        ARGFRAME DOVERLAY, 0, STATIC
        FUNCALL SampleApp_ProcessEvent, SampleApp_SendPointToPointMessage
        LOCFRAME ISTACK, 0, STACK
        LOCFRAME PSTACK, 0, STACK
        LOCFRAME XSTACK, 12, STACK
        LOCFRAME IOVERLAY, 0, STATIC
        LOCFRAME DOVERLAY, 0, STATIC
        ARGFRAME ISTACK, 0, STACK
        ARGFRAME PSTACK, 0, STACK
        ARGFRAME XSTACK, 12, STACK
        ARGFRAME IOVERLAY, 0, STATIC
        ARGFRAME DOVERLAY, 0, STATIC
        FUNCALL SampleApp_ProcessEvent, osal_rand
        LOCFRAME ISTACK, 0, STACK
        LOCFRAME PSTACK, 0, STACK
        LOCFRAME XSTACK, 12, STACK
        LOCFRAME IOVERLAY, 0, STATIC
        LOCFRAME DOVERLAY, 0, STATIC
        ARGFRAME ISTACK, 0, STACK
        ARGFRAME PSTACK, 0, STACK
        ARGFRAME XSTACK, 12, STACK
        ARGFRAME IOVERLAY, 0, STATIC
        ARGFRAME DOVERLAY, 0, STATIC
        FUNCALL SampleApp_ProcessEvent, osal_start_timerEx
        LOCFRAME ISTACK, 0, STACK
        LOCFRAME PSTACK, 0, STACK
        LOCFRAME XSTACK, 12, STACK
        LOCFRAME IOVERLAY, 0, STATIC
        LOCFRAME DOVERLAY, 0, STATIC
        ARGFRAME ISTACK, 0, STACK
        ARGFRAME PSTACK, 0, STACK
        ARGFRAME XSTACK, 12, STACK
        ARGFRAME IOVERLAY, 0, STATIC
        ARGFRAME DOVERLAY, 0, STATIC
        MOV     A,#-0xc
        LCALL   ?BANKED_ENTER_XDATA
        CFI DPH0 load(1, XDATA, add(CFA_XSP16, literal(-1)))
        CFI DPL0 load(1, XDATA, add(CFA_XSP16, literal(-2)))
        CFI ?BRET_EXT load(1, XDATA, add(CFA_XSP16, literal(-3)))
        CFI ?RET_HIGH load(1, XDATA, add(CFA_XSP16, literal(-4)))
        CFI ?RET_LOW load(1, XDATA, add(CFA_XSP16, literal(-5)))
        CFI R7 load(1, XDATA, add(CFA_XSP16, literal(-6)))
        CFI V3 load(1, XDATA, add(CFA_XSP16, literal(-7)))
        CFI V2 load(1, XDATA, add(CFA_XSP16, literal(-8)))
        CFI V1 load(1, XDATA, add(CFA_XSP16, literal(-9)))
        CFI V0 load(1, XDATA, add(CFA_XSP16, literal(-10)))
        CFI VB load(1, XDATA, add(CFA_XSP16, literal(-11)))
        CFI R6 load(1, XDATA, add(CFA_XSP16, literal(-12)))
        CFI CFA_SP SP+0
        CFI CFA_XSP16 add(XSP16, 12)
        ; Saved register size: 12
        ; Auto size: 0
        MOV     A,R2
        MOV     R6,A
        MOV     A,R3
        MOV     R7,A
//  453   afIncomingMSGPacket_t *MSGpkt;
//  454   (void)task_id;  // Intentionally unreferenced parameter
//  455 
//  456   if ( events & SYS_EVENT_MSG ) //系统信息发送事件
        ANL     A,#0x80
        JNZ     $+5
        LJMP    ??SampleApp_ProcessEvent_0 & 0xFFFF
//  457   {
//  458     MSGpkt = (afIncomingMSGPacket_t *)osal_msg_receive( SampleApp_TaskID );
        ; Setup parameters for call to function osal_msg_receive
        SJMP    ??SampleApp_ProcessEvent_1
//  459     while ( MSGpkt )
//  460     {
//  461       switch ( MSGpkt->hdr.event )
//  462       {
//  463         case CMD_SERIAL_MSG:    // 串口收到数据后由MT_UART层传递过的数据，用网蜂方法接收，编译时不定义MT相关内容
//  464             SampleApp_SerialCMD((mtOSALSerialData_t *)MSGpkt);
//  465             break;
//  466 
//  467         // Received when a key is pressed
//  468         case KEY_CHANGE: //按键事件及处理函数
//  469           //HalUARTWrite(0, "KEY ", 4);
//  470           SampleApp_HandleKeys( ((keyChange_t *)MSGpkt)->state, ((keyChange_t *)MSGpkt)->keys );
//  471           break;
//  472 
//  473         // Received when a messages is received (OTA) for this endpoint
//  474         // 接收处理函数
//  475         case AF_INCOMING_MSG_CMD:
//  476           SampleApp_MessageMSGCB( MSGpkt );
//  477           break;
//  478 
//  479         // Received whenever the device changes state in the network
//  480         case ZDO_STATE_CHANGE:  //网络状态改变，如未连接上网络
//  481           SampleApp_NwkState = (devStates_t)(MSGpkt->hdr.status);
??SampleApp_ProcessEvent_2:
        INC     DPTR
        MOVX    A,@DPTR
        MOV     DPTR,#SampleApp_NwkState
        MOVX    @DPTR,A
//  482           if ( (SampleApp_NwkState == DEV_ZB_COORD) //协调器
//  483               || (SampleApp_NwkState == DEV_ROUTER) //路由器
//  484               || (SampleApp_NwkState == DEV_END_DEVICE) ) //终端 都执行
        XRL     A,#0x9
        JZ      ??SampleApp_ProcessEvent_3
        MOVX    A,@DPTR
        XRL     A,#0x7
        JZ      ??SampleApp_ProcessEvent_3
        MOVX    A,@DPTR
        XRL     A,#0x6
        JNZ     ??SampleApp_ProcessEvent_4
//  485           {
//  486             // Start sending the periodic message in a regular interval.
//  487             osal_start_timerEx( SampleApp_TaskID,
//  488                               SAMPLEAPP_SEND_PERIODIC_MSG_EVT,
//  489                               SAMPLEAPP_SEND_PERIODIC_MSG_TIMEOUT );
??SampleApp_ProcessEvent_3:
        ; Setup parameters for call to function osal_start_timerEx
        MOV     R4,#-0x78
        MOV     R5,#0x13
        MOV     R2,#0x1
        MOV     R3,#0x0
        MOV     DPTR,#SampleApp_TaskID
        MOVX    A,@DPTR
        MOV     R1,A
        LCALL   ??osal_start_timerEx?relay
//  490           }
//  491           else
//  492           {
//  493             // Device is no longer in the network
//  494 //              HalUARTWrite(0,"网络断开",8);
//  495           }
//  496           break;
//  497 
//  498         default:
//  499           break;
//  500       }
//  501 
//  502       // Release the memory
//  503       osal_msg_deallocate( (uint8 *)MSGpkt );
??SampleApp_ProcessEvent_4:
        ; Setup parameters for call to function osal_msg_deallocate
        MOV     R2,?V0 + 0
        MOV     R3,?V0 + 1
        LCALL   ??osal_msg_deallocate?relay
//  504 
//  505       // Next - if one is available
//  506       MSGpkt = (afIncomingMSGPacket_t *)osal_msg_receive( SampleApp_TaskID );
        ; Setup parameters for call to function osal_msg_receive
??SampleApp_ProcessEvent_1:
        MOV     DPTR,#SampleApp_TaskID
        MOVX    A,@DPTR
        MOV     R1,A
        LCALL   ??osal_msg_receive?relay
        MOV     ?V0 + 0,R2
        MOV     ?V0 + 1,R3
        MOV     A,?V0 + 0
        ORL     A,?V0 + 1
        JZ      ??SampleApp_ProcessEvent_5
        MOV     DPL,?V0 + 0
        MOV     DPH,?V0 + 1
        MOVX    A,@DPTR
        DEC     A
        JZ      ??SampleApp_ProcessEvent_6
        ADD     A,#-0x19
        JZ      ??SampleApp_ProcessEvent_7
        ADD     A,#0x5a
        JZ      ??SampleApp_ProcessEvent_8
        ADD     A,#-0x11
        JZ      ??SampleApp_ProcessEvent_2
        SJMP    ??SampleApp_ProcessEvent_4
??SampleApp_ProcessEvent_6:
        ; Setup parameters for call to function SampleApp_SerialCMD
        MOV     R2,?V0 + 0
        MOV     R3,?V0 + 1
        LCALL   ??SampleApp_SerialCMD?relay
        SJMP    ??SampleApp_ProcessEvent_4
??SampleApp_ProcessEvent_8:
        ; Setup parameters for call to function SampleApp_HandleKeys
        INC     DPTR
        INC     DPTR
        INC     DPTR
        MOVX    A,@DPTR
        MOV     R2,A
        MOV     DPL,?V0 + 0
        MOV     DPH,?V0 + 1
        INC     DPTR
        INC     DPTR
        MOVX    A,@DPTR
        MOV     R1,A
        LCALL   ??SampleApp_HandleKeys?relay
        SJMP    ??SampleApp_ProcessEvent_4
??SampleApp_ProcessEvent_7:
        ; Setup parameters for call to function SampleApp_MessageMSGCB
        MOV     R2,?V0 + 0
        MOV     R3,?V0 + 1
        LCALL   ??SampleApp_MessageMSGCB?relay
        SJMP    ??SampleApp_ProcessEvent_4
//  507     }
//  508 
//  509     // return unprocessed events
//  510     return (events ^ SYS_EVENT_MSG);
??SampleApp_ProcessEvent_5:
        MOV     A,R6
        MOV     R2,A
        MOV     A,R7
        XRL     A,#0x80
??SampleApp_ProcessEvent_9:
        MOV     R3,A
        SJMP    ??SampleApp_ProcessEvent_10
//  511   }
//  512 
//  513   // Send a message out - This event is generated by a timer
//  514   //  (setup in SampleApp_Init()).
//  515   if ( events & SAMPLEAPP_SEND_PERIODIC_MSG_EVT )  //*****周期性发送函数*****
??SampleApp_ProcessEvent_0:
        MOV     A,R6
        MOV     C,0xE0 /* A   */.0
        JNC     ??SampleApp_ProcessEvent_11
//  516   {
//  517 
//  518 
//  519 /***********************************周期性发送函数****************************************/
//  520 
//  521     /*Send the periodic message*/
//  522     //SampleApp_SendPeriodicMessage(); //用户周期性广播发送函数
//  523 
//  524     if(_TURN == 0){
        MOV     DPTR,#_TURN
        MOVX    A,@DPTR
        JNZ     ??SampleApp_ProcessEvent_12
//  525       /*Group*/
//  526       SampleApp_SendGroupMessage(); //组播通讯程序
        ; Setup parameters for call to function SampleApp_SendGroupMessage
        LCALL   ??SampleApp_SendGroupMessage?relay
//  527       _TURN = 1;
        MOV     DPTR,#_TURN
        MOV     A,#0x1
        SJMP    ??SampleApp_ProcessEvent_13
//  528     }
//  529 
//  530     else{
//  531       /*Point_to_Point*/
//  532       SampleApp_SendPointToPointMessage(); //点对点发送函数
??SampleApp_ProcessEvent_12:
        ; Setup parameters for call to function SampleApp_SendPointToPointMessage
        LCALL   ??SampleApp_SendPointToPointMessage?relay
//  533       _TURN = 0;
        MOV     DPTR,#_TURN
        CLR     A
??SampleApp_ProcessEvent_13:
        MOVX    @DPTR,A
//  534     }
//  535 
//  536 /**********************************周期性发送函数*****************************************/
//  537 
//  538 
//  539 
//  540 
//  541     // Setup to send message again in normal period (+ a little jitter)
//  542     osal_start_timerEx( SampleApp_TaskID, SAMPLEAPP_SEND_PERIODIC_MSG_EVT,
//  543                        (SAMPLEAPP_SEND_PERIODIC_MSG_TIMEOUT + (osal_rand() & 0x00FF)) );
        ; Setup parameters for call to function osal_rand
        LCALL   ??osal_rand?relay
        ; Setup parameters for call to function osal_start_timerEx
        MOV     A,R2
        ADD     A,#-0x78
        MOV     R4,A
        CLR     A
        ADDC    A,#0x13
        MOV     R5,A
        MOV     R2,#0x1
        MOV     R3,#0x0
        MOV     DPTR,#SampleApp_TaskID
        MOVX    A,@DPTR
        MOV     R1,A
        LCALL   ??osal_start_timerEx?relay
//  544 
//  545     // return unprocessed events
//  546     return (events ^ SAMPLEAPP_SEND_PERIODIC_MSG_EVT);
        MOV     A,R6
        XRL     A,#0x1
        MOV     R2,A
        MOV     A,R7
        SJMP    ??SampleApp_ProcessEvent_9
//  547 
//  548   }
//  549 
//  550   // Discard unknown events
//  551   return 0;
??SampleApp_ProcessEvent_11:
        MOV     R2,#0x0
        MOV     R3,#0x0
        CFI EndBlock cfiBlock26
??SampleApp_ProcessEvent_10:
        REQUIRE ?Subroutine1
        ; // Fall through to label ?Subroutine1
//  552 }

        RSEG BANKED_CODE:CODE:NOROOT(0)
?Subroutine1:
        CFI Block cfiBlock27 Using cfiCommon0
        CFI NoFunction
        CFI CFA_SP SP+0
        CFI CFA_XSP16 add(XSP16, 12)
        CFI VB load(1, XDATA, add(CFA_XSP16, literal(-11)))
        CFI DPL0 load(1, XDATA, add(CFA_XSP16, literal(-2)))
        CFI DPH0 load(1, XDATA, add(CFA_XSP16, literal(-1)))
        CFI R6 load(1, XDATA, add(CFA_XSP16, literal(-12)))
        CFI R7 load(1, XDATA, add(CFA_XSP16, literal(-6)))
        CFI V0 load(1, XDATA, add(CFA_XSP16, literal(-10)))
        CFI V1 load(1, XDATA, add(CFA_XSP16, literal(-9)))
        CFI V2 load(1, XDATA, add(CFA_XSP16, literal(-8)))
        CFI V3 load(1, XDATA, add(CFA_XSP16, literal(-7)))
        CFI ?BRET_EXT load(1, XDATA, add(CFA_XSP16, literal(-3)))
        CFI ?RET_HIGH load(1, XDATA, add(CFA_XSP16, literal(-4)))
        CFI ?RET_LOW load(1, XDATA, add(CFA_XSP16, literal(-5)))
        MOV     R7,#0x4
        LJMP    ?BANKED_LEAVE_XDATA
        CFI EndBlock cfiBlock27
//  553 
//  554 
//  555 
//  556 
//  557 
//  558 
//  559 
//  560 /********************************************************
//  561                     组播 发送函数
//  562 *********************************************************/

        RSEG BANKED_CODE:CODE:NOROOT(0)
//  563 void SampleApp_SendGroupMessage( void )
SampleApp_SendGroupMessage:
        CFI Block cfiBlock28 Using cfiCommon0
        CFI Function SampleApp_SendGroupMessage
        CODE
//  564 {
        FUNCALL SampleApp_SendGroupMessage, AF_DataRequest
        LOCFRAME ISTACK, 0, STACK
        LOCFRAME PSTACK, 0, STACK
        LOCFRAME XSTACK, 19, STACK
        LOCFRAME IOVERLAY, 0, STATIC
        LOCFRAME DOVERLAY, 0, STATIC
        ARGFRAME ISTACK, 0, STACK
        ARGFRAME PSTACK, 0, STACK
        ARGFRAME XSTACK, 19, STACK
        ARGFRAME IOVERLAY, 0, STATIC
        ARGFRAME DOVERLAY, 0, STATIC
        MOV     A,#-0xa
        LCALL   ?BANKED_ENTER_XDATA
        CFI DPH0 load(1, XDATA, add(CFA_XSP16, literal(-1)))
        CFI DPL0 load(1, XDATA, add(CFA_XSP16, literal(-2)))
        CFI ?BRET_EXT load(1, XDATA, add(CFA_XSP16, literal(-3)))
        CFI ?RET_HIGH load(1, XDATA, add(CFA_XSP16, literal(-4)))
        CFI ?RET_LOW load(1, XDATA, add(CFA_XSP16, literal(-5)))
        CFI R7 load(1, XDATA, add(CFA_XSP16, literal(-6)))
        CFI V1 load(1, XDATA, add(CFA_XSP16, literal(-7)))
        CFI V0 load(1, XDATA, add(CFA_XSP16, literal(-8)))
        CFI VB load(1, XDATA, add(CFA_XSP16, literal(-9)))
        CFI R6 load(1, XDATA, add(CFA_XSP16, literal(-10)))
        CFI CFA_SP SP+0
        CFI CFA_XSP16 add(XSP16, 10)
        ; Saved register size: 10
        ; Auto size: 0
//  565   //uint8 data[10]={'G','R','O','U','P',' ','1',' ','r','4'};// 自定义数据
//  566   if ( AF_DataRequest( & SampleApp_Flash_DstAddr,
//  567                       &SampleApp_epDesc,
//  568                       SAMPLEAPP_FLASH_CLUSTERID,
//  569                       1,
//  570                       (uint8*)&SampleAppPeriodicCounter, //要发送的内容
//  571                       &SampleApp_TransID,
//  572                       AF_DISCV_ROUTE,
//  573                       AF_DEFAULT_RADIUS ) == afStatus_SUCCESS )
        ; Setup parameters for call to function AF_DataRequest
        MOV     ?V0 + 0,#0x1e
        MOV     R0,#?V0 + 0
        LCALL   ?PUSH_XSTACK_I_ONE
        CFI CFA_XSP16 add(XSP16, 11)
        MOV     ?V0 + 0,#SampleApp_TransID & 0xff
        MOV     ?V0 + 1,#(SampleApp_TransID >> 8) & 0xff
        MOV     R0,#?V0 + 0
        LCALL   ?PUSH_XSTACK_I_TWO
        CFI CFA_XSP16 add(XSP16, 13)
        MOV     ?V0 + 0,#SampleAppPeriodicCounter & 0xff
        MOV     ?V0 + 1,#(SampleAppPeriodicCounter >> 8) & 0xff
        MOV     R0,#?V0 + 0
        LCALL   ?PUSH_XSTACK_I_TWO
        CFI CFA_XSP16 add(XSP16, 15)
        MOV     ?V0 + 0,#0x1
        MOV     ?V0 + 1,#0x0
        MOV     R0,#?V0 + 0
        LCALL   ?PUSH_XSTACK_I_TWO
        CFI CFA_XSP16 add(XSP16, 17)
        MOV     ?V0 + 0,#0x2
        MOV     R0,#?V0 + 0
        LCALL   ?PUSH_XSTACK_I_TWO
        CFI CFA_XSP16 add(XSP16, 19)
        MOV     R1,#0x20
        MOV     R4,#SampleApp_epDesc & 0xff
        MOV     R5,#(SampleApp_epDesc >> 8) & 0xff
        MOV     R2,#SampleApp_Flash_DstAddr & 0xff
        MOV     R3,#(SampleApp_Flash_DstAddr >> 8) & 0xff
        LCALL   ??Subroutine65_0 & 0xFFFF
??CrossCallReturnLabel_113:
        LJMP    ?Subroutine0 & 0xFFFF
        CFI EndBlock cfiBlock28
//  574   {
//  575   }
//  576   else
//  577   {
//  578     // Error occurred in request to send.
//  579   }
//  580 }
//  581 
//  582 
//  583 /*********************************************************************
//  584  * @fn      SampleApp_SendPeriodicMessage
//  585  *
//  586  * @brief   Send the periodic message.
//  587  *
//  588  * @param   none
//  589  *
//  590  * @return  none
//  591  *
//  592  *********************************************************
//  593                     周期性广播 发送函数
//  594  **********************************************************/

        RSEG BANKED_CODE:CODE:NOROOT(0)
//  595 void SampleApp_SendPeriodicMessage( void )
SampleApp_SendPeriodicMessage:
        CFI Block cfiBlock29 Using cfiCommon0
        CFI Function SampleApp_SendPeriodicMessage
        CODE
//  596 {
        FUNCALL SampleApp_SendPeriodicMessage, AF_DataRequest
        LOCFRAME ISTACK, 0, STACK
        LOCFRAME PSTACK, 0, STACK
        LOCFRAME XSTACK, 19, STACK
        LOCFRAME IOVERLAY, 0, STATIC
        LOCFRAME DOVERLAY, 0, STATIC
        ARGFRAME ISTACK, 0, STACK
        ARGFRAME PSTACK, 0, STACK
        ARGFRAME XSTACK, 19, STACK
        ARGFRAME IOVERLAY, 0, STATIC
        ARGFRAME DOVERLAY, 0, STATIC
        FUNCALL SampleApp_SendPeriodicMessage, HalLedBlink
        LOCFRAME ISTACK, 0, STACK
        LOCFRAME PSTACK, 0, STACK
        LOCFRAME XSTACK, 10, STACK
        LOCFRAME IOVERLAY, 0, STATIC
        LOCFRAME DOVERLAY, 0, STATIC
        ARGFRAME ISTACK, 0, STACK
        ARGFRAME PSTACK, 0, STACK
        ARGFRAME XSTACK, 10, STACK
        ARGFRAME IOVERLAY, 0, STATIC
        ARGFRAME DOVERLAY, 0, STATIC
        MOV     A,#-0xa
        LCALL   ?BANKED_ENTER_XDATA
        CFI DPH0 load(1, XDATA, add(CFA_XSP16, literal(-1)))
        CFI DPL0 load(1, XDATA, add(CFA_XSP16, literal(-2)))
        CFI ?BRET_EXT load(1, XDATA, add(CFA_XSP16, literal(-3)))
        CFI ?RET_HIGH load(1, XDATA, add(CFA_XSP16, literal(-4)))
        CFI ?RET_LOW load(1, XDATA, add(CFA_XSP16, literal(-5)))
        CFI R7 load(1, XDATA, add(CFA_XSP16, literal(-6)))
        CFI V1 load(1, XDATA, add(CFA_XSP16, literal(-7)))
        CFI V0 load(1, XDATA, add(CFA_XSP16, literal(-8)))
        CFI VB load(1, XDATA, add(CFA_XSP16, literal(-9)))
        CFI R6 load(1, XDATA, add(CFA_XSP16, literal(-10)))
        CFI CFA_SP SP+0
        CFI CFA_XSP16 add(XSP16, 10)
        ; Saved register size: 10
        ; Auto size: 0
//  597   unsigned int flashTime=1000;
//  598   if ( AF_DataRequest( &SampleApp_Periodic_DstAddr, &SampleApp_epDesc,
//  599                        SAMPLEAPP_PERIODIC_CLUSTERID,
//  600                        1,  //数据长度
//  601                        (uint8*)&SampleAppPeriodicCounter, //要发送的内容
//  602                        &SampleApp_TransID,
//  603                        AF_DISCV_ROUTE,
//  604                        AF_DEFAULT_RADIUS ) == afStatus_SUCCESS )
        ; Setup parameters for call to function AF_DataRequest
        MOV     ?V0 + 0,#0x1e
        MOV     R0,#?V0 + 0
        LCALL   ?PUSH_XSTACK_I_ONE
        CFI CFA_XSP16 add(XSP16, 11)
        MOV     ?V0 + 0,#SampleApp_TransID & 0xff
        MOV     ?V0 + 1,#(SampleApp_TransID >> 8) & 0xff
        MOV     R0,#?V0 + 0
        LCALL   ?PUSH_XSTACK_I_TWO
        CFI CFA_XSP16 add(XSP16, 13)
        MOV     ?V0 + 0,#SampleAppPeriodicCounter & 0xff
        MOV     ?V0 + 1,#(SampleAppPeriodicCounter >> 8) & 0xff
        MOV     R0,#?V0 + 0
        LCALL   ?PUSH_XSTACK_I_TWO
        CFI CFA_XSP16 add(XSP16, 15)
        MOV     ?V0 + 0,#0x1
        MOV     ?V0 + 1,#0x0
        MOV     R0,#?V0 + 0
        LCALL   ?PUSH_XSTACK_I_TWO
        CFI CFA_XSP16 add(XSP16, 17)
        MOV     R0,#?V0 + 0
        LCALL   ?PUSH_XSTACK_I_TWO
        CFI CFA_XSP16 add(XSP16, 19)
        MOV     R1,#0x20
        MOV     R4,#SampleApp_epDesc & 0xff
        MOV     R5,#(SampleApp_epDesc >> 8) & 0xff
        MOV     R2,#SampleApp_Periodic_DstAddr & 0xff
        MOV     R3,#(SampleApp_Periodic_DstAddr >> 8) & 0xff
        LCALL   ??Subroutine65_0 & 0xFFFF
??CrossCallReturnLabel_114:
        LCALL   ?DEALLOC_XSTACK8
        CFI CFA_XSP16 add(XSP16, 10)
        MOV     A,R1
        JNZ     ??SampleApp_SendPeriodicMessage_0
//  605   {
//  606     HalLedBlink( HAL_LED_1, 1, 60, (flashTime / 3) );
        ; Setup parameters for call to function HalLedBlink
        MOV     R4,#0x4d
        MOV     R5,#0x1
        MOV     R3,#0x3c
        MOV     R2,#0x1
        MOV     R1,#0x1
        LCALL   ??HalLedBlink?relay
//  607   }
//  608   else
//  609   {
//  610     // Error occurred in request to send.
//  611   }
//  612 }
??SampleApp_SendPeriodicMessage_0:
        LJMP    ??Subroutine76_0 & 0xFFFF
        CFI EndBlock cfiBlock29
//  613 
//  614 
//  615 /*********************************************************************
//  616  * @fn      SampleApp_SendFlashMessage
//  617  *
//  618  * @brief   Send the flash message to group 1.
//  619  *
//  620  * @param   flashTime - in milliseconds
//  621  *
//  622  * @return  none
//  623  */

        RSEG BANKED_CODE:CODE:NOROOT(0)
//  624 void SampleApp_SendFlashMessage( uint16 flashTime )
SampleApp_SendFlashMessage:
        CFI Block cfiBlock30 Using cfiCommon0
        CFI Function SampleApp_SendFlashMessage
        CODE
//  625 {
        FUNCALL SampleApp_SendFlashMessage, AF_DataRequest
        LOCFRAME ISTACK, 0, STACK
        LOCFRAME PSTACK, 0, STACK
        LOCFRAME XSTACK, 22, STACK
        LOCFRAME IOVERLAY, 0, STATIC
        LOCFRAME DOVERLAY, 0, STATIC
        ARGFRAME ISTACK, 0, STACK
        ARGFRAME PSTACK, 0, STACK
        ARGFRAME XSTACK, 22, STACK
        ARGFRAME IOVERLAY, 0, STATIC
        ARGFRAME DOVERLAY, 0, STATIC
        MOV     A,#-0xa
        LCALL   ?BANKED_ENTER_XDATA
        CFI DPH0 load(1, XDATA, add(CFA_XSP16, literal(-1)))
        CFI DPL0 load(1, XDATA, add(CFA_XSP16, literal(-2)))
        CFI ?BRET_EXT load(1, XDATA, add(CFA_XSP16, literal(-3)))
        CFI ?RET_HIGH load(1, XDATA, add(CFA_XSP16, literal(-4)))
        CFI ?RET_LOW load(1, XDATA, add(CFA_XSP16, literal(-5)))
        CFI R7 load(1, XDATA, add(CFA_XSP16, literal(-6)))
        CFI V1 load(1, XDATA, add(CFA_XSP16, literal(-7)))
        CFI V0 load(1, XDATA, add(CFA_XSP16, literal(-8)))
        CFI VB load(1, XDATA, add(CFA_XSP16, literal(-9)))
        CFI R6 load(1, XDATA, add(CFA_XSP16, literal(-10)))
        CFI CFA_SP SP+0
        CFI CFA_XSP16 add(XSP16, 10)
        ; Saved register size: 10
        ; Auto size: 3
        MOV     A,#-0x3
        LCALL   ?ALLOC_XSTACK8
        CFI CFA_XSP16 add(XSP16, 13)
//  626   uint8 buffer[3];
//  627   buffer[0] = (uint8)(SampleAppFlashCounter++);
        MOV     DPTR,#SampleAppFlashCounter
        MOVX    A,@DPTR
        MOV     DPL,?XSP + 0
        MOV     DPH,?XSP + 1
        MOVX    @DPTR,A
        MOV     DPTR,#SampleAppFlashCounter
        MOVX    A,@DPTR
        INC     A
        MOVX    @DPTR,A
//  628   buffer[1] = LO_UINT16( flashTime );
        MOV     A,#0x1
        LCALL   ?XSTACK_DISP0_8
        MOV     A,R2
        MOVX    @DPTR,A
//  629   buffer[2] = HI_UINT16( flashTime );
        MOV     A,#0x2
        LCALL   ?XSTACK_DISP0_8
        MOV     A,R3
        LCALL   ??Subroutine70_0 & 0xFFFF
//  630 
//  631   if ( AF_DataRequest( &SampleApp_Flash_DstAddr, &SampleApp_epDesc,
//  632                        SAMPLEAPP_FLASH_CLUSTERID,
//  633                        3,
//  634                        buffer,
//  635                        &SampleApp_TransID,
//  636                        AF_DISCV_ROUTE,
//  637                        AF_DEFAULT_RADIUS ) == afStatus_SUCCESS )
??CrossCallReturnLabel_141:
        LCALL   ?PUSH_XSTACK_I_ONE
        CFI CFA_XSP16 add(XSP16, 14)
        MOV     ?V0 + 0,#SampleApp_TransID & 0xff
        MOV     ?V0 + 1,#(SampleApp_TransID >> 8) & 0xff
        MOV     R0,#?V0 + 0
        LCALL   ?PUSH_XSTACK_I_TWO
        CFI CFA_XSP16 add(XSP16, 16)
        MOV     A,#0x3
        LCALL   ?XSTACK_DISP0_8
        MOV     ?V0 + 0,DPL
        MOV     ?V0 + 1,DPH
        MOV     R0,#?V0 + 0
        LCALL   ?PUSH_XSTACK_I_TWO
        CFI CFA_XSP16 add(XSP16, 18)
        MOV     ?V0 + 0,#0x3
        MOV     ?V0 + 1,#0x0
        MOV     R0,#?V0 + 0
        LCALL   ?PUSH_XSTACK_I_TWO
        CFI CFA_XSP16 add(XSP16, 20)
        MOV     ?V0 + 0,#0x2
        MOV     R0,#?V0 + 0
        LCALL   ?PUSH_XSTACK_I_TWO
        CFI CFA_XSP16 add(XSP16, 22)
        MOV     R1,#0x20
        MOV     R4,#SampleApp_epDesc & 0xff
        MOV     R5,#(SampleApp_epDesc >> 8) & 0xff
        MOV     R2,#SampleApp_Flash_DstAddr & 0xff
        MOV     R3,#(SampleApp_Flash_DstAddr >> 8) & 0xff
        LCALL   ??Subroutine65_0 & 0xFFFF
??CrossCallReturnLabel_115:
        LCALL   ?DEALLOC_XSTACK8
        CFI CFA_XSP16 add(XSP16, 13)
//  638   {
//  639   }
//  640   else
//  641   {
//  642     // Error occurred in request to send.
//  643   }
//  644 }
        MOV     A,#0x3
        LJMP    ?Subroutine0 & 0xFFFF
        CFI EndBlock cfiBlock30
//  645 
//  646 
//  647 
//  648 
//  649 /*********************************************************************
//  650  * Event Generation Functions
//  651  */
//  652 /*********************************************************************
//  653  * @fn      SampleApp_HandleKeys 按键处理函数
//  654  *
//  655  * @brief   Handles all key events for this device.
//  656  *
//  657  * @param   shift - true if in shift/alt.
//  658  * @param   keys - bit field for key events. Valid entries:
//  659  *                 HAL_KEY_SW_2
//  660  *                 HAL_KEY_SW_1
//  661  *
//  662  * @return  none
//  663  */

        RSEG BANKED_CODE:CODE:NOROOT(0)
//  664 void SampleApp_HandleKeys( uint8 shift, uint8 keys )
SampleApp_HandleKeys:
        CFI Block cfiBlock31 Using cfiCommon0
        CFI Function SampleApp_HandleKeys
        CODE
//  665 {
        FUNCALL SampleApp_HandleKeys, aps_FindGroup
        LOCFRAME ISTACK, 0, STACK
        LOCFRAME PSTACK, 0, STACK
        LOCFRAME XSTACK, 10, STACK
        LOCFRAME IOVERLAY, 0, STATIC
        LOCFRAME DOVERLAY, 0, STATIC
        ARGFRAME ISTACK, 0, STACK
        ARGFRAME PSTACK, 0, STACK
        ARGFRAME XSTACK, 10, STACK
        ARGFRAME IOVERLAY, 0, STATIC
        ARGFRAME DOVERLAY, 0, STATIC
        FUNCALL SampleApp_HandleKeys, aps_RemoveGroup
        LOCFRAME ISTACK, 0, STACK
        LOCFRAME PSTACK, 0, STACK
        LOCFRAME XSTACK, 10, STACK
        LOCFRAME IOVERLAY, 0, STATIC
        LOCFRAME DOVERLAY, 0, STATIC
        ARGFRAME ISTACK, 0, STACK
        ARGFRAME PSTACK, 0, STACK
        ARGFRAME XSTACK, 10, STACK
        ARGFRAME IOVERLAY, 0, STATIC
        ARGFRAME DOVERLAY, 0, STATIC
        FUNCALL SampleApp_HandleKeys, aps_AddGroup
        LOCFRAME ISTACK, 0, STACK
        LOCFRAME PSTACK, 0, STACK
        LOCFRAME XSTACK, 10, STACK
        LOCFRAME IOVERLAY, 0, STATIC
        LOCFRAME DOVERLAY, 0, STATIC
        ARGFRAME ISTACK, 0, STACK
        ARGFRAME PSTACK, 0, STACK
        ARGFRAME XSTACK, 10, STACK
        ARGFRAME IOVERLAY, 0, STATIC
        ARGFRAME DOVERLAY, 0, STATIC
        FUNCALL SampleApp_HandleKeys, HalUARTWrite
        LOCFRAME ISTACK, 0, STACK
        LOCFRAME PSTACK, 0, STACK
        LOCFRAME XSTACK, 10, STACK
        LOCFRAME IOVERLAY, 0, STATIC
        LOCFRAME DOVERLAY, 0, STATIC
        ARGFRAME ISTACK, 0, STACK
        ARGFRAME PSTACK, 0, STACK
        ARGFRAME XSTACK, 10, STACK
        ARGFRAME IOVERLAY, 0, STATIC
        ARGFRAME DOVERLAY, 0, STATIC
        FUNCALL SampleApp_HandleKeys, Show_Bit
        LOCFRAME ISTACK, 0, STACK
        LOCFRAME PSTACK, 0, STACK
        LOCFRAME XSTACK, 10, STACK
        LOCFRAME IOVERLAY, 0, STATIC
        LOCFRAME DOVERLAY, 0, STATIC
        ARGFRAME ISTACK, 0, STACK
        ARGFRAME PSTACK, 0, STACK
        ARGFRAME XSTACK, 10, STACK
        ARGFRAME IOVERLAY, 0, STATIC
        ARGFRAME DOVERLAY, 0, STATIC
        FUNCALL SampleApp_HandleKeys, HalUARTWrite
        LOCFRAME ISTACK, 0, STACK
        LOCFRAME PSTACK, 0, STACK
        LOCFRAME XSTACK, 10, STACK
        LOCFRAME IOVERLAY, 0, STATIC
        LOCFRAME DOVERLAY, 0, STATIC
        ARGFRAME ISTACK, 0, STACK
        ARGFRAME PSTACK, 0, STACK
        ARGFRAME XSTACK, 10, STACK
        ARGFRAME IOVERLAY, 0, STATIC
        ARGFRAME DOVERLAY, 0, STATIC
        FUNCALL SampleApp_HandleKeys, Power_of_2
        LOCFRAME ISTACK, 0, STACK
        LOCFRAME PSTACK, 0, STACK
        LOCFRAME XSTACK, 10, STACK
        LOCFRAME IOVERLAY, 0, STATIC
        LOCFRAME DOVERLAY, 0, STATIC
        ARGFRAME ISTACK, 0, STACK
        ARGFRAME PSTACK, 0, STACK
        ARGFRAME XSTACK, 10, STACK
        ARGFRAME IOVERLAY, 0, STATIC
        ARGFRAME DOVERLAY, 0, STATIC
        FUNCALL SampleApp_HandleKeys, Show_Bit
        LOCFRAME ISTACK, 0, STACK
        LOCFRAME PSTACK, 0, STACK
        LOCFRAME XSTACK, 10, STACK
        LOCFRAME IOVERLAY, 0, STATIC
        LOCFRAME DOVERLAY, 0, STATIC
        ARGFRAME ISTACK, 0, STACK
        ARGFRAME PSTACK, 0, STACK
        ARGFRAME XSTACK, 10, STACK
        ARGFRAME IOVERLAY, 0, STATIC
        ARGFRAME DOVERLAY, 0, STATIC
        FUNCALL SampleApp_HandleKeys, HalUARTWrite
        LOCFRAME ISTACK, 0, STACK
        LOCFRAME PSTACK, 0, STACK
        LOCFRAME XSTACK, 10, STACK
        LOCFRAME IOVERLAY, 0, STATIC
        LOCFRAME DOVERLAY, 0, STATIC
        ARGFRAME ISTACK, 0, STACK
        ARGFRAME PSTACK, 0, STACK
        ARGFRAME XSTACK, 10, STACK
        ARGFRAME IOVERLAY, 0, STATIC
        ARGFRAME DOVERLAY, 0, STATIC
        FUNCALL SampleApp_HandleKeys, Show_Num
        LOCFRAME ISTACK, 0, STACK
        LOCFRAME PSTACK, 0, STACK
        LOCFRAME XSTACK, 10, STACK
        LOCFRAME IOVERLAY, 0, STATIC
        LOCFRAME DOVERLAY, 0, STATIC
        ARGFRAME ISTACK, 0, STACK
        ARGFRAME PSTACK, 0, STACK
        ARGFRAME XSTACK, 10, STACK
        ARGFRAME IOVERLAY, 0, STATIC
        ARGFRAME DOVERLAY, 0, STATIC
        FUNCALL SampleApp_HandleKeys, HalUARTWrite
        LOCFRAME ISTACK, 0, STACK
        LOCFRAME PSTACK, 0, STACK
        LOCFRAME XSTACK, 10, STACK
        LOCFRAME IOVERLAY, 0, STATIC
        LOCFRAME DOVERLAY, 0, STATIC
        ARGFRAME ISTACK, 0, STACK
        ARGFRAME PSTACK, 0, STACK
        ARGFRAME XSTACK, 10, STACK
        ARGFRAME IOVERLAY, 0, STATIC
        ARGFRAME DOVERLAY, 0, STATIC
        FUNCALL SampleApp_HandleKeys, Show_Bit
        LOCFRAME ISTACK, 0, STACK
        LOCFRAME PSTACK, 0, STACK
        LOCFRAME XSTACK, 10, STACK
        LOCFRAME IOVERLAY, 0, STATIC
        LOCFRAME DOVERLAY, 0, STATIC
        ARGFRAME ISTACK, 0, STACK
        ARGFRAME PSTACK, 0, STACK
        ARGFRAME XSTACK, 10, STACK
        ARGFRAME IOVERLAY, 0, STATIC
        ARGFRAME DOVERLAY, 0, STATIC
        FUNCALL SampleApp_HandleKeys, HalUARTWrite
        LOCFRAME ISTACK, 0, STACK
        LOCFRAME PSTACK, 0, STACK
        LOCFRAME XSTACK, 10, STACK
        LOCFRAME IOVERLAY, 0, STATIC
        LOCFRAME DOVERLAY, 0, STATIC
        ARGFRAME ISTACK, 0, STACK
        ARGFRAME PSTACK, 0, STACK
        ARGFRAME XSTACK, 10, STACK
        ARGFRAME IOVERLAY, 0, STATIC
        ARGFRAME DOVERLAY, 0, STATIC
        FUNCALL SampleApp_HandleKeys, Show_Bit
        LOCFRAME ISTACK, 0, STACK
        LOCFRAME PSTACK, 0, STACK
        LOCFRAME XSTACK, 10, STACK
        LOCFRAME IOVERLAY, 0, STATIC
        LOCFRAME DOVERLAY, 0, STATIC
        ARGFRAME ISTACK, 0, STACK
        ARGFRAME PSTACK, 0, STACK
        ARGFRAME XSTACK, 10, STACK
        ARGFRAME IOVERLAY, 0, STATIC
        ARGFRAME DOVERLAY, 0, STATIC
        FUNCALL SampleApp_HandleKeys, HalUARTWrite
        LOCFRAME ISTACK, 0, STACK
        LOCFRAME PSTACK, 0, STACK
        LOCFRAME XSTACK, 10, STACK
        LOCFRAME IOVERLAY, 0, STATIC
        LOCFRAME DOVERLAY, 0, STATIC
        ARGFRAME ISTACK, 0, STACK
        ARGFRAME PSTACK, 0, STACK
        ARGFRAME XSTACK, 10, STACK
        ARGFRAME IOVERLAY, 0, STATIC
        ARGFRAME DOVERLAY, 0, STATIC
        FUNCALL SampleApp_HandleKeys, HalUARTWrite
        LOCFRAME ISTACK, 0, STACK
        LOCFRAME PSTACK, 0, STACK
        LOCFRAME XSTACK, 10, STACK
        LOCFRAME IOVERLAY, 0, STATIC
        LOCFRAME DOVERLAY, 0, STATIC
        ARGFRAME ISTACK, 0, STACK
        ARGFRAME PSTACK, 0, STACK
        ARGFRAME XSTACK, 10, STACK
        ARGFRAME IOVERLAY, 0, STATIC
        ARGFRAME DOVERLAY, 0, STATIC
        FUNCALL SampleApp_HandleKeys, Show_Num
        LOCFRAME ISTACK, 0, STACK
        LOCFRAME PSTACK, 0, STACK
        LOCFRAME XSTACK, 10, STACK
        LOCFRAME IOVERLAY, 0, STATIC
        LOCFRAME DOVERLAY, 0, STATIC
        ARGFRAME ISTACK, 0, STACK
        ARGFRAME PSTACK, 0, STACK
        ARGFRAME XSTACK, 10, STACK
        ARGFRAME IOVERLAY, 0, STATIC
        ARGFRAME DOVERLAY, 0, STATIC
        FUNCALL SampleApp_HandleKeys, HalUARTWrite
        LOCFRAME ISTACK, 0, STACK
        LOCFRAME PSTACK, 0, STACK
        LOCFRAME XSTACK, 10, STACK
        LOCFRAME IOVERLAY, 0, STATIC
        LOCFRAME DOVERLAY, 0, STATIC
        ARGFRAME ISTACK, 0, STACK
        ARGFRAME PSTACK, 0, STACK
        ARGFRAME XSTACK, 10, STACK
        ARGFRAME IOVERLAY, 0, STATIC
        ARGFRAME DOVERLAY, 0, STATIC
        MOV     A,#-0xa
        LCALL   ?BANKED_ENTER_XDATA
        CFI DPH0 load(1, XDATA, add(CFA_XSP16, literal(-1)))
        CFI DPL0 load(1, XDATA, add(CFA_XSP16, literal(-2)))
        CFI ?BRET_EXT load(1, XDATA, add(CFA_XSP16, literal(-3)))
        CFI ?RET_HIGH load(1, XDATA, add(CFA_XSP16, literal(-4)))
        CFI ?RET_LOW load(1, XDATA, add(CFA_XSP16, literal(-5)))
        CFI R7 load(1, XDATA, add(CFA_XSP16, literal(-6)))
        CFI V1 load(1, XDATA, add(CFA_XSP16, literal(-7)))
        CFI V0 load(1, XDATA, add(CFA_XSP16, literal(-8)))
        CFI VB load(1, XDATA, add(CFA_XSP16, literal(-9)))
        CFI R6 load(1, XDATA, add(CFA_XSP16, literal(-10)))
        CFI CFA_SP SP+0
        CFI CFA_XSP16 add(XSP16, 10)
        ; Saved register size: 10
        ; Auto size: 0
        MOV     A,R2
        MOV     R7,A
//  666   (void)shift;  // Intentionally unreferenced parameter
//  667 
//  668   if ( keys & HAL_KEY_SW_1 )
//  669   {
//  670     /* This key sends the Flash Command is sent to Group 1.
//  671     * This device will not receive the Flash Command from this
//  672     * device (even if it belongs to group 1).
//  673     */
//  674     //SampleApp_SendFlashMessage( SAMPLEAPP_FLASH_DURATION );
//  675   }
//  676 
//  677   if ( keys & HAL_KEY_SW_2 )
        MOV     C,0xE0 /* A   */.1
        JNC     ??SampleApp_HandleKeys_0
//  678   {
//  679     /* The Flashr Command is sent to Group 1.
//  680     * This key toggles this device in and out of group 1.
//  681     * If this device doesn't belong to group 1, this application
//  682     * will not receive the Flash command sent to group 1.
//  683     */
//  684     aps_Group_t *grp;
//  685     grp = aps_FindGroup( SAMPLEAPP_ENDPOINT, SAMPLEAPP_FLASH_GROUP );
//  686     if ( grp )
        ; Setup parameters for call to function aps_FindGroup
        MOV     R2,#0x2
        MOV     R3,#0x0
        MOV     R1,#0x14
        LCALL   ??aps_FindGroup?relay
        MOV     ?V0 + 1,R3
        MOV     A,R2
        ORL     A,?V0 + 1
        JZ      ??SampleApp_HandleKeys_1
//  687     {
//  688       // Remove from the group
//  689       aps_RemoveGroup( SAMPLEAPP_ENDPOINT, SAMPLEAPP_FLASH_GROUP );
        ; Setup parameters for call to function aps_RemoveGroup
        MOV     R2,#0x2
        MOV     R3,#0x0
        MOV     R1,#0x14
        LCALL   ??aps_RemoveGroup?relay
        SJMP    ??SampleApp_HandleKeys_0
//  690     }
//  691     else
//  692     {
//  693       // Add to the flash group
//  694       aps_AddGroup( SAMPLEAPP_ENDPOINT, &SampleApp_Group );
??SampleApp_HandleKeys_1:
        ; Setup parameters for call to function aps_AddGroup
        MOV     R2,#SampleApp_Group & 0xff
        MOV     R3,#(SampleApp_Group >> 8) & 0xff
        MOV     R1,#0x14
        LCALL   ??aps_AddGroup?relay
//  695     }
//  696   }
//  697   //判断按键S2按下，发送数据到串口
//  698   if ( keys & HAL_KEY_SW_6 )
??SampleApp_HandleKeys_0:
        MOV     A,R7
        MOV     C,0xE0 /* A   */.5
        JC      $+5
        LJMP    ??CrossCallReturnLabel_66 & 0xFFFF
//  699   {
//  700 //    int self_addr_10 = NLME_GetShortAddr();
//  701 //    int neig_addr_10;
//  702 //    uchar Self_ADDR[4]; //16进制地址格式
//  703 //    uchar Neig_ADDR[4];
//  704 //    uchar Num[2];
//  705 
//  706     //串口输出自身地址
//  707 //    HalUARTWrite(0,"自身地址为: 0x",strlen("自身地址为: 0x"));
//  708 //    if(self_addr_10 == 0)
//  709 //    {
//  710 //      HalUARTWrite(0,"0000",4);
//  711 //      HalUARTWrite(0,"\n",1);
//  712 //    }
//  713 //    else
//  714 //    {
//  715 //      sprintf((char*)Self_ADDR, "%X", self_addr_10); //10进制整型转换成16进制字符串
//  716 //
//  717 //      for (int i=0;i<4;++i)
//  718 //      {
//  719 //        HalUARTWrite(0,&Self_ADDR[i],1);
//  720 //      }
//  721 //      HalUARTWrite(0,"\n",1);
//  722 //    }
//  723 
//  724     //串口输出源数据
//  725     HalUARTWrite(0,"\nsource_data: ",14);
        ; Setup parameters for call to function HalUARTWrite
        MOV     R4,#0xe
        MOV     R5,#0x0
        MOV     R2,#`?<Constant "\\nsource_data: ">` & 0xff
        MOV     R3,#(`?<Constant "\\nsource_data: ">` >> 8) & 0xff
        LCALL   ??Subroutine71_0 & 0xFFFF
//  726     Show_Bit(SOURCE_DATA,8);
??CrossCallReturnLabel_145:
        MOV     DPTR,#SOURCE_DATA
        LCALL   ?Subroutine30 & 0xFFFF
//  727     HalUARTWrite(0," ",1);
??CrossCallReturnLabel_52:
        MOV     R1,#0x0
        LCALL   ??HalUARTWrite?relay
//  728     Show_Bit(Power_of_2(Device_ID),16);
        ; Setup parameters for call to function Show_Bit
        ; Setup parameters for call to function Power_of_2
        LCALL   ?Subroutine34 & 0xFFFF
??CrossCallReturnLabel_58:
        MOV     A,#0x10
        MOV     R1,A
        LCALL   ?Subroutine39 & 0xFFFF
//  729     HalUARTWrite(0,"\n",1);
//  730 //
//  731     for(int8 p=1;p<6;++p)
??CrossCallReturnLabel_64:
        MOV     R6,#0x1
//  732     {
//  733       Show_Num(p);
??SampleApp_HandleKeys_2:
        ; Setup parameters for call to function Show_Num
        MOV     A,R6
        LCALL   ?Subroutine35 & 0xFFFF
//  734       HalUARTWrite(0,":",1);
//  735       Show_Bit(DATA_SLOT[p].data, 8);
??CrossCallReturnLabel_60:
        MOV     A,R6
        MOV     ?V0 + 0,A
        RLC     A
        SUBB    A,0xE0 /* A   */
        MOV     ?V0 + 1,A
        MOV     A,#0x2
        MOV     R0,#?V0 + 0
        LCALL   ?S_SHL
        MOV     A,#DATA_SLOT & 0xff
        ADD     A,?V0 + 0
        MOV     ?V0 + 0,A
        MOV     A,#(DATA_SLOT >> 8) & 0xff
        ADDC    A,?V0 + 1
        MOV     ?V0 + 1,A
        ; Setup parameters for call to function Show_Bit
        MOV     R1,#0x8
        MOV     DPL,?V0 + 0
        MOV     DPH,A
        LCALL   ?Subroutine31 & 0xFFFF
//  736       HalUARTWrite(0," info:",6);
??CrossCallReturnLabel_54:
        ; Setup parameters for call to function HalUARTWrite
        MOV     R4,#0x6
        MOV     R5,#0x0
        MOV     R2,#`?<Constant " info:">` & 0xff
        MOV     R3,#(`?<Constant " info:">` >> 8) & 0xff
        MOV     R1,#0x0
        LCALL   ??HalUARTWrite?relay
//  737       Show_Bit(DATA_SLOT[p].Degree_ID, 4);
        ; Setup parameters for call to function Show_Bit
        MOV     R1,#0x4
        MOV     DPL,?V0 + 0
        MOV     DPH,?V0 + 1
        INC     DPTR
        INC     DPTR
        LCALL   ?Subroutine31 & 0xFFFF
//  738       HalUARTWrite(0,"\n",1);
??CrossCallReturnLabel_55:
        ; Setup parameters for call to function HalUARTWrite
        MOV     R4,#0x1
        MOV     R5,#0x0
        MOV     R2,#`?<Constant "\\n">` & 0xff
        MOV     R3,#(`?<Constant "\\n">` >> 8) & 0xff
        MOV     R1,#0x0
        LCALL   ??HalUARTWrite?relay
//  739     }
        INC     R6
        MOV     A,R6
        CLR     C
        SUBB    A,#0x6
        MOV     C,0xD0 /* PSW */.2
        XRL     A,PSW
        RLC     A
        JC      ??SampleApp_HandleKeys_2
//  740     
//  741     //显示邻居个数
//  742     uint8 nei_N = 0;
        MOV     ?V0 + 0,#0x0
//  743     for(uchar num_nei=0;num_nei<3;++num_nei)
        MOV     R2,#0x0
//  744     {
//  745       if(Nei_Table[num_nei] != (int16)65534)
??SampleApp_HandleKeys_3:
        MOV     A,R2
        CLR     C
        RLC     A
        MOV     R0,A
        CLR     A
        LCALL   ??Subroutine63_0 & 0xFFFF
??CrossCallReturnLabel_99:
        XRL     A,#0xfe
        JNZ     ??SampleApp_HandleKeys_4
        INC     DPTR
        MOVX    A,@DPTR
        CPL     A
??SampleApp_HandleKeys_4:
        JZ      ??SampleApp_HandleKeys_5
//  746         nei_N++;
        INC     ?V0 + 0
//  747     }
??SampleApp_HandleKeys_5:
        INC     R2
        MOV     A,R2
        CLR     C
        SUBB    A,#0x3
        JC      ??SampleApp_HandleKeys_3
//  748     HalUARTWrite(0,"nei_num:",8);
        ; Setup parameters for call to function HalUARTWrite
        MOV     R4,#0x8
        MOV     R5,#0x0
        MOV     R2,#`?<Constant "nei_num:">` & 0xff
        MOV     R3,#(`?<Constant "nei_num:">` >> 8) & 0xff
        MOV     R1,#0x0
        LCALL   ??HalUARTWrite?relay
//  749     Show_Num(nei_N);
        ; Setup parameters for call to function Show_Num
        MOV     R2,?V0 + 0
        MOV     R3,#0x0
        LCALL   ?Subroutine40 & 0xFFFF
//  750     HalUARTWrite(0,"\n",1);
//  751     
//  752     //串口输出所有邻居地址
//  753 //    for(int i=0;i<3;++i)
//  754 //    {
//  755 //      neig_addr_10 = Nei_Table[i];
//  756 //
//  757 //      sprintf((char*)Num, "%d", i+1);
//  758 //      sprintf((char*)Neig_ADDR, "%X", neig_addr_10);
//  759 //      HalUARTWrite(0,"邻居",strlen("邻居"));
//  760 //      for (int j=0;j<2;++j)
//  761 //      {
//  762 //        HalUARTWrite(0,&Num[j],1);
//  763 //      }
//  764 //
//  765 //      HalUARTWrite(0,": 0x",strlen(": 0x"));
//  766 //
//  767 //      if(neig_addr_10 == 0)
//  768 //      {
//  769 //        HalUARTWrite(0,"0000",4);
//  770 //      }
//  771 //      else
//  772 //      {
//  773 //        for (int j=0;j<4;++j)
//  774 //        {
//  775 //          HalUARTWrite(0,&Neig_ADDR[j],1);
//  776 //        }
//  777 //      }
//  778 //      HalUARTWrite(0,"\n",1);
//  779 //    }
//  780 
//  781 //    HalLedBlink( HAL_LED_3, 2,50, 500 ); //LED3 闪烁提示
//  782   }
//  783 }
??CrossCallReturnLabel_66:
        LJMP    ??Subroutine76_0 & 0xFFFF
        CFI EndBlock cfiBlock31

        RSEG BANKED_CODE:CODE:NOROOT(0)
?Subroutine34:
        CFI Block cfiCond32 Using cfiCommon0
        CFI NoFunction
        CFI Conditional ??CrossCallReturnLabel_57
        CFI R6 load(1, XDATA, add(CFA_XSP16, literal(-11)))
        CFI VB load(1, XDATA, add(CFA_XSP16, literal(-10)))
        CFI V0 load(1, XDATA, add(CFA_XSP16, literal(-9)))
        CFI V1 load(1, XDATA, add(CFA_XSP16, literal(-8)))
        CFI V2 load(1, XDATA, add(CFA_XSP16, literal(-7)))
        CFI R7 load(1, XDATA, add(CFA_XSP16, literal(-6)))
        CFI ?RET_LOW load(1, XDATA, add(CFA_XSP16, literal(-5)))
        CFI ?RET_HIGH load(1, XDATA, add(CFA_XSP16, literal(-4)))
        CFI ?BRET_EXT load(1, XDATA, add(CFA_XSP16, literal(-3)))
        CFI DPL0 load(1, XDATA, add(CFA_XSP16, literal(-2)))
        CFI DPH0 load(1, XDATA, add(CFA_XSP16, literal(-1)))
        CFI CFA_SP SP+0
        CFI CFA_XSP16 add(XSP16, 11)
        CFI Block cfiCond33 Using cfiCommon0
        CFI (cfiCond33) NoFunction
        CFI (cfiCond33) Conditional ??CrossCallReturnLabel_58
        CFI (cfiCond33) R6 load(1, XDATA, add(CFA_XSP16, literal(-10)))
        CFI (cfiCond33) VB load(1, XDATA, add(CFA_XSP16, literal(-9)))
        CFI (cfiCond33) V0 load(1, XDATA, add(CFA_XSP16, literal(-8)))
        CFI (cfiCond33) V1 load(1, XDATA, add(CFA_XSP16, literal(-7)))
        CFI (cfiCond33) R7 load(1, XDATA, add(CFA_XSP16, literal(-6)))
        CFI (cfiCond33) ?RET_LOW load(1, XDATA, add(CFA_XSP16, literal(-5)))
        CFI (cfiCond33) ?RET_HIGH load(1, XDATA, add(CFA_XSP16, literal(-4)))
        CFI (cfiCond33) ?BRET_EXT load(1, XDATA, add(CFA_XSP16, literal(-3)))
        CFI (cfiCond33) DPL0 load(1, XDATA, add(CFA_XSP16, literal(-2)))
        CFI (cfiCond33) DPH0 load(1, XDATA, add(CFA_XSP16, literal(-1)))
        CFI (cfiCond33) CFA_SP SP+0
        CFI (cfiCond33) CFA_XSP16 add(XSP16, 10)
        CFI Block cfiCond34 Using cfiCommon0
        CFI (cfiCond34) NoFunction
        CFI (cfiCond34) Conditional ??CrossCallReturnLabel_59
        CFI (cfiCond34) R6 load(1, XDATA, add(CFA_XSP16, literal(-20)))
        CFI (cfiCond34) VB load(1, XDATA, add(CFA_XSP16, literal(-19)))
        CFI (cfiCond34) V0 load(1, XDATA, add(CFA_XSP16, literal(-18)))
        CFI (cfiCond34) V1 load(1, XDATA, add(CFA_XSP16, literal(-17)))
        CFI (cfiCond34) V2 load(1, XDATA, add(CFA_XSP16, literal(-16)))
        CFI (cfiCond34) V3 load(1, XDATA, add(CFA_XSP16, literal(-15)))
        CFI (cfiCond34) V4 load(1, XDATA, add(CFA_XSP16, literal(-14)))
        CFI (cfiCond34) V5 load(1, XDATA, add(CFA_XSP16, literal(-13)))
        CFI (cfiCond34) V6 load(1, XDATA, add(CFA_XSP16, literal(-12)))
        CFI (cfiCond34) V7 load(1, XDATA, add(CFA_XSP16, literal(-11)))
        CFI (cfiCond34) V8 load(1, XDATA, add(CFA_XSP16, literal(-10)))
        CFI (cfiCond34) V9 load(1, XDATA, add(CFA_XSP16, literal(-9)))
        CFI (cfiCond34) V10 load(1, XDATA, add(CFA_XSP16, literal(-8)))
        CFI (cfiCond34) V11 load(1, XDATA, add(CFA_XSP16, literal(-7)))
        CFI (cfiCond34) R7 load(1, XDATA, add(CFA_XSP16, literal(-6)))
        CFI (cfiCond34) ?RET_LOW load(1, XDATA, add(CFA_XSP16, literal(-5)))
        CFI (cfiCond34) ?RET_HIGH load(1, XDATA, add(CFA_XSP16, literal(-4)))
        CFI (cfiCond34) ?BRET_EXT load(1, XDATA, add(CFA_XSP16, literal(-3)))
        CFI (cfiCond34) DPL0 load(1, XDATA, add(CFA_XSP16, literal(-2)))
        CFI (cfiCond34) DPH0 load(1, XDATA, add(CFA_XSP16, literal(-1)))
        CFI (cfiCond34) CFA_SP SP+0
        CFI (cfiCond34) CFA_XSP16 add(XSP16, 33)
        CFI Block cfiPicker35 Using cfiCommon1
        CFI (cfiPicker35) NoFunction
        CFI (cfiPicker35) Picker
        MOV     DPTR,#Device_ID
        MOVX    A,@DPTR
        MOV     R1,A
        LCALL   ??Power_of_2?relay
        RET
        CFI EndBlock cfiCond32
        CFI EndBlock cfiCond33
        CFI EndBlock cfiCond34
        CFI EndBlock cfiPicker35
//  784 
//  785 
//  786 
//  787 
//  788 
//  789 /*自行定义的 处理串口发来数据包 的函数*/

        RSEG BANKED_CODE:CODE:NOROOT(0)
//  790 void SampleApp_SerialCMD(mtOSALSerialData_t *cmdMsg)
SampleApp_SerialCMD:
        CFI Block cfiBlock36 Using cfiCommon0
        CFI Function SampleApp_SerialCMD
        CODE
//  791 {
        FUNCALL SampleApp_SerialCMD, HalUARTWrite
        LOCFRAME ISTACK, 0, STACK
        LOCFRAME PSTACK, 0, STACK
        LOCFRAME XSTACK, 12, STACK
        LOCFRAME IOVERLAY, 0, STATIC
        LOCFRAME DOVERLAY, 0, STATIC
        ARGFRAME ISTACK, 0, STACK
        ARGFRAME PSTACK, 0, STACK
        ARGFRAME XSTACK, 12, STACK
        ARGFRAME IOVERLAY, 0, STATIC
        ARGFRAME DOVERLAY, 0, STATIC
        FUNCALL SampleApp_SerialCMD, HalUARTWrite
        LOCFRAME ISTACK, 0, STACK
        LOCFRAME PSTACK, 0, STACK
        LOCFRAME XSTACK, 12, STACK
        LOCFRAME IOVERLAY, 0, STATIC
        LOCFRAME DOVERLAY, 0, STATIC
        ARGFRAME ISTACK, 0, STACK
        ARGFRAME PSTACK, 0, STACK
        ARGFRAME XSTACK, 12, STACK
        ARGFRAME IOVERLAY, 0, STATIC
        ARGFRAME DOVERLAY, 0, STATIC
        FUNCALL SampleApp_SerialCMD, HalUARTWrite
        LOCFRAME ISTACK, 0, STACK
        LOCFRAME PSTACK, 0, STACK
        LOCFRAME XSTACK, 12, STACK
        LOCFRAME IOVERLAY, 0, STATIC
        LOCFRAME DOVERLAY, 0, STATIC
        ARGFRAME ISTACK, 0, STACK
        ARGFRAME PSTACK, 0, STACK
        ARGFRAME XSTACK, 12, STACK
        ARGFRAME IOVERLAY, 0, STATIC
        ARGFRAME DOVERLAY, 0, STATIC
        FUNCALL SampleApp_SerialCMD, Show_Num
        LOCFRAME ISTACK, 0, STACK
        LOCFRAME PSTACK, 0, STACK
        LOCFRAME XSTACK, 12, STACK
        LOCFRAME IOVERLAY, 0, STATIC
        LOCFRAME DOVERLAY, 0, STATIC
        ARGFRAME ISTACK, 0, STACK
        ARGFRAME PSTACK, 0, STACK
        ARGFRAME XSTACK, 12, STACK
        ARGFRAME IOVERLAY, 0, STATIC
        ARGFRAME DOVERLAY, 0, STATIC
        FUNCALL SampleApp_SerialCMD, HalUARTWrite
        LOCFRAME ISTACK, 0, STACK
        LOCFRAME PSTACK, 0, STACK
        LOCFRAME XSTACK, 12, STACK
        LOCFRAME IOVERLAY, 0, STATIC
        LOCFRAME DOVERLAY, 0, STATIC
        ARGFRAME ISTACK, 0, STACK
        ARGFRAME PSTACK, 0, STACK
        ARGFRAME XSTACK, 12, STACK
        ARGFRAME IOVERLAY, 0, STATIC
        ARGFRAME DOVERLAY, 0, STATIC
        FUNCALL SampleApp_SerialCMD, Show_Bit
        LOCFRAME ISTACK, 0, STACK
        LOCFRAME PSTACK, 0, STACK
        LOCFRAME XSTACK, 12, STACK
        LOCFRAME IOVERLAY, 0, STATIC
        LOCFRAME DOVERLAY, 0, STATIC
        ARGFRAME ISTACK, 0, STACK
        ARGFRAME PSTACK, 0, STACK
        ARGFRAME XSTACK, 12, STACK
        ARGFRAME IOVERLAY, 0, STATIC
        ARGFRAME DOVERLAY, 0, STATIC
        FUNCALL SampleApp_SerialCMD, HalUARTWrite
        LOCFRAME ISTACK, 0, STACK
        LOCFRAME PSTACK, 0, STACK
        LOCFRAME XSTACK, 12, STACK
        LOCFRAME IOVERLAY, 0, STATIC
        LOCFRAME DOVERLAY, 0, STATIC
        ARGFRAME ISTACK, 0, STACK
        ARGFRAME PSTACK, 0, STACK
        ARGFRAME XSTACK, 12, STACK
        ARGFRAME IOVERLAY, 0, STATIC
        ARGFRAME DOVERLAY, 0, STATIC
        FUNCALL SampleApp_SerialCMD, Show_Bit
        LOCFRAME ISTACK, 0, STACK
        LOCFRAME PSTACK, 0, STACK
        LOCFRAME XSTACK, 12, STACK
        LOCFRAME IOVERLAY, 0, STATIC
        LOCFRAME DOVERLAY, 0, STATIC
        ARGFRAME ISTACK, 0, STACK
        ARGFRAME PSTACK, 0, STACK
        ARGFRAME XSTACK, 12, STACK
        ARGFRAME IOVERLAY, 0, STATIC
        ARGFRAME DOVERLAY, 0, STATIC
        FUNCALL SampleApp_SerialCMD, HalUARTWrite
        LOCFRAME ISTACK, 0, STACK
        LOCFRAME PSTACK, 0, STACK
        LOCFRAME XSTACK, 12, STACK
        LOCFRAME IOVERLAY, 0, STATIC
        LOCFRAME DOVERLAY, 0, STATIC
        ARGFRAME ISTACK, 0, STACK
        ARGFRAME PSTACK, 0, STACK
        ARGFRAME XSTACK, 12, STACK
        ARGFRAME IOVERLAY, 0, STATIC
        ARGFRAME DOVERLAY, 0, STATIC
        FUNCALL SampleApp_SerialCMD, Show_Num
        LOCFRAME ISTACK, 0, STACK
        LOCFRAME PSTACK, 0, STACK
        LOCFRAME XSTACK, 12, STACK
        LOCFRAME IOVERLAY, 0, STATIC
        LOCFRAME DOVERLAY, 0, STATIC
        ARGFRAME ISTACK, 0, STACK
        ARGFRAME PSTACK, 0, STACK
        ARGFRAME XSTACK, 12, STACK
        ARGFRAME IOVERLAY, 0, STATIC
        ARGFRAME DOVERLAY, 0, STATIC
        FUNCALL SampleApp_SerialCMD, HalUARTWrite
        LOCFRAME ISTACK, 0, STACK
        LOCFRAME PSTACK, 0, STACK
        LOCFRAME XSTACK, 12, STACK
        LOCFRAME IOVERLAY, 0, STATIC
        LOCFRAME DOVERLAY, 0, STATIC
        ARGFRAME ISTACK, 0, STACK
        ARGFRAME PSTACK, 0, STACK
        ARGFRAME XSTACK, 12, STACK
        ARGFRAME IOVERLAY, 0, STATIC
        ARGFRAME DOVERLAY, 0, STATIC
        MOV     A,#-0xc
        LCALL   ?BANKED_ENTER_XDATA
        CFI DPH0 load(1, XDATA, add(CFA_XSP16, literal(-1)))
        CFI DPL0 load(1, XDATA, add(CFA_XSP16, literal(-2)))
        CFI ?BRET_EXT load(1, XDATA, add(CFA_XSP16, literal(-3)))
        CFI ?RET_HIGH load(1, XDATA, add(CFA_XSP16, literal(-4)))
        CFI ?RET_LOW load(1, XDATA, add(CFA_XSP16, literal(-5)))
        CFI R7 load(1, XDATA, add(CFA_XSP16, literal(-6)))
        CFI V3 load(1, XDATA, add(CFA_XSP16, literal(-7)))
        CFI V2 load(1, XDATA, add(CFA_XSP16, literal(-8)))
        CFI V1 load(1, XDATA, add(CFA_XSP16, literal(-9)))
        CFI V0 load(1, XDATA, add(CFA_XSP16, literal(-10)))
        CFI VB load(1, XDATA, add(CFA_XSP16, literal(-11)))
        CFI R6 load(1, XDATA, add(CFA_XSP16, literal(-12)))
        CFI CFA_SP SP+0
        CFI CFA_XSP16 add(XSP16, 12)
        ; Saved register size: 12
        ; Auto size: 0
//  792     uint8 i,len,*str=NULL; //len 有用数据长度
//  793     str=cmdMsg->msg; //指向数据开头
        MOV     DPL,R2
        MOV     DPH,R3
        INC     DPTR
        INC     DPTR
        MOVX    A,@DPTR
        MOV     ?V0 + 0,A
        INC     DPTR
        MOVX    A,@DPTR
        MOV     ?V0 + 1,A
//  794     len=*str; //msg 里的第 1 个字节代表后面的数据长度
        MOV     DPL,?V0 + 0
        MOV     DPH,A
        MOVX    A,@DPTR
        MOV     R6,A
//  795     /********打印出串口接收到的数据，用于提示*********/
//  796     HalUARTWrite(0,">> ", 3);
        ; Setup parameters for call to function HalUARTWrite
        MOV     R4,#0x3
        MOV     R5,#0x0
        MOV     R2,#`?<Constant ">> ">` & 0xff
        MOV     R3,#(`?<Constant ">> ">` >> 8) & 0xff
        MOV     R1,#0x0
        LCALL   ??HalUARTWrite?relay
//  797     for(i=1;i<=len;i++)
        MOV     R7,#0x1
        SJMP    ??SampleApp_SerialCMD_0
//  798     {
//  799       HalUARTWrite(0,str+i,1);
??SampleApp_SerialCMD_1:
        ; Setup parameters for call to function HalUARTWrite
        MOV     ?V0 + 2,R7
        MOV     A,?V0 + 0
        ADD     A,?V0 + 2
        MOV     R2,A
        MOV     A,?V0 + 1
        LCALL   ?Subroutine11 & 0xFFFF
//  800     }
??CrossCallReturnLabel_22:
        INC     R7
??SampleApp_SerialCMD_0:
        MOV     A,R6
        CLR     C
        SUBB    A,R7
        MOV     R4,#0x1
        MOV     R5,#0x0
        JNC     ??SampleApp_SerialCMD_1
//  801 
//  802     HalUARTWrite(0,"\n",1 );//换行
        ; Setup parameters for call to function HalUARTWrite
        MOV     R2,#`?<Constant "\\n">` & 0xff
        MOV     R3,#(`?<Constant "\\n">` >> 8) & 0xff
        MOV     R1,#0x0
        LCALL   ??HalUARTWrite?relay
//  803 
//  804     if ( len == 2 && *(str+1) == 'k' && *(str+2) == '1')
        MOV     A,#0x2
        XRL     A,R6
        JNZ     ??SampleApp_SerialCMD_2
        MOV     DPL,?V0 + 0
        MOV     DPH,?V0 + 1
        INC     DPTR
        MOVX    A,@DPTR
        XRL     A,#0x6b
        JNZ     ??SampleApp_SerialCMD_2
        MOV     DPL,?V0 + 0
        MOV     DPH,?V0 + 1
        INC     DPTR
        INC     DPTR
        MOVX    A,@DPTR
        XRL     A,#0x31
        JNZ     ??SampleApp_SerialCMD_2
//  805     {
//  806 
//  807       
//  808       for(int8 p=0;p<1;++p)
        MOV     ?V0 + 0,#0x0
//  809       {
//  810         Show_Num(p);
??SampleApp_SerialCMD_3:
        ; Setup parameters for call to function Show_Num
        MOV     A,?V0 + 0
        LCALL   ?Subroutine35 & 0xFFFF
//  811         HalUARTWrite(0,":",1);
//  812         Show_Bit(DATA_SLOT[p].data, 8);
??CrossCallReturnLabel_61:
        MOV     A,?V0 + 0
        MOV     ?V0 + 2,A
        RLC     A
        SUBB    A,0xE0 /* A   */
        MOV     ?V0 + 3,A
        MOV     A,#0x2
        MOV     R0,#?V0 + 2
        LCALL   ?S_SHL
        MOV     A,#DATA_SLOT & 0xff
        ADD     A,?V0 + 2
        MOV     R6,A
        MOV     A,#(DATA_SLOT >> 8) & 0xff
        ADDC    A,?V0 + 3
        MOV     R7,A
        ; Setup parameters for call to function Show_Bit
        MOV     R1,#0x8
        MOV     DPL,R6
        MOV     DPH,R7
        LCALL   ?Subroutine31 & 0xFFFF
//  813         HalUARTWrite(0," >",2);
??CrossCallReturnLabel_56:
        ; Setup parameters for call to function HalUARTWrite
        MOV     R4,#0x2
        MOV     R5,#0x0
        MOV     R2,#`?<Constant " >">` & 0xff
        MOV     R3,#(`?<Constant " >">` >> 8) & 0xff
        MOV     R1,#0x0
        LCALL   ??HalUARTWrite?relay
//  814         Show_Bit(256, 16);
        ; Setup parameters for call to function Show_Bit
        MOV     R1,#0x10
        MOV     R2,#0x0
        MOV     R3,#0x1
        LCALL   ??Subroutine68_0 & 0xFFFF
//  815         HalUARTWrite(0," ",1);
??CrossCallReturnLabel_126:
        MOV     R1,#0x0
        LCALL   ??HalUARTWrite?relay
//  816         Show_Num(DATA_SLOT[p].Degree_ID);
        ; Setup parameters for call to function Show_Num
        MOV     DPL,R6
        MOV     DPH,R7
        INC     DPTR
        INC     DPTR
        LCALL   ??Subroutine67_0 & 0xFFFF
//  817         HalUARTWrite(0,"\n",1);
//  818       }
??CrossCallReturnLabel_119:
        LCALL   ?Subroutine40 & 0xFFFF
??CrossCallReturnLabel_67:
        INC     ?V0 + 0
        MOV     A,?V0 + 0
        CLR     C
        SUBB    A,#0x1
        MOV     C,0xD0 /* PSW */.2
        XRL     A,PSW
        RLC     A
        JC      ??SampleApp_SerialCMD_3
//  819     }
//  820 
//  821     //模拟异或操作
//  822 //    int8 A[] = {'1','0','0','0','0','0','0','1'};
//  823 //    unsigned char One = '1',Zero = '0';
//  824 //    for (i=0;i<8;++i)
//  825 //    {
//  826 //      if(A[i]-*(str+i+1))
//  827 //      {
//  828 //        HalUARTWrite(0,&One,1);
//  829 //        *(str+1+i) = One;
//  830 //      }
//  831 //      else
//  832 //      {
//  833 //        HalUARTWrite(0,&Zero,1);
//  834 //        *(str+1+i) = Zero;
//  835 //      }
//  836 //
//  837 //    }
//  838 //
//  839 
//  840 }
??SampleApp_SerialCMD_2:
        LJMP    ?Subroutine1 & 0xFFFF
        CFI EndBlock cfiBlock36

        RSEG BANKED_CODE:CODE:NOROOT(0)
?Subroutine40:
        CFI Block cfiCond37 Using cfiCommon0
        CFI NoFunction
        CFI Conditional ??CrossCallReturnLabel_66
        CFI R6 load(1, XDATA, add(CFA_XSP16, literal(-10)))
        CFI VB load(1, XDATA, add(CFA_XSP16, literal(-9)))
        CFI V0 load(1, XDATA, add(CFA_XSP16, literal(-8)))
        CFI V1 load(1, XDATA, add(CFA_XSP16, literal(-7)))
        CFI R7 load(1, XDATA, add(CFA_XSP16, literal(-6)))
        CFI ?RET_LOW load(1, XDATA, add(CFA_XSP16, literal(-5)))
        CFI ?RET_HIGH load(1, XDATA, add(CFA_XSP16, literal(-4)))
        CFI ?BRET_EXT load(1, XDATA, add(CFA_XSP16, literal(-3)))
        CFI DPL0 load(1, XDATA, add(CFA_XSP16, literal(-2)))
        CFI DPH0 load(1, XDATA, add(CFA_XSP16, literal(-1)))
        CFI CFA_SP SP+0
        CFI CFA_XSP16 add(XSP16, 10)
        CFI Block cfiCond38 Using cfiCommon0
        CFI (cfiCond38) NoFunction
        CFI (cfiCond38) Conditional ??CrossCallReturnLabel_67
        CFI (cfiCond38) R6 load(1, XDATA, add(CFA_XSP16, literal(-12)))
        CFI (cfiCond38) VB load(1, XDATA, add(CFA_XSP16, literal(-11)))
        CFI (cfiCond38) V0 load(1, XDATA, add(CFA_XSP16, literal(-10)))
        CFI (cfiCond38) V1 load(1, XDATA, add(CFA_XSP16, literal(-9)))
        CFI (cfiCond38) V2 load(1, XDATA, add(CFA_XSP16, literal(-8)))
        CFI (cfiCond38) V3 load(1, XDATA, add(CFA_XSP16, literal(-7)))
        CFI (cfiCond38) R7 load(1, XDATA, add(CFA_XSP16, literal(-6)))
        CFI (cfiCond38) ?RET_LOW load(1, XDATA, add(CFA_XSP16, literal(-5)))
        CFI (cfiCond38) ?RET_HIGH load(1, XDATA, add(CFA_XSP16, literal(-4)))
        CFI (cfiCond38) ?BRET_EXT load(1, XDATA, add(CFA_XSP16, literal(-3)))
        CFI (cfiCond38) DPL0 load(1, XDATA, add(CFA_XSP16, literal(-2)))
        CFI (cfiCond38) DPH0 load(1, XDATA, add(CFA_XSP16, literal(-1)))
        CFI (cfiCond38) CFA_SP SP+0
        CFI (cfiCond38) CFA_XSP16 add(XSP16, 12)
        CFI Block cfiPicker39 Using cfiCommon1
        CFI (cfiPicker39) NoFunction
        CFI (cfiPicker39) Picker
        LCALL   ??Show_Num?relay
        ; Setup parameters for call to function HalUARTWrite
        ; Setup parameters for call to function HalUARTWrite
        MOV     R4,#0x1
        MOV     R5,#0x0
        MOV     R2,#`?<Constant "\\n">` & 0xff
        MOV     R3,#(`?<Constant "\\n">` >> 8) & 0xff
        MOV     R1,#0x0
        LCALL   ??HalUARTWrite?relay
        RET
        CFI EndBlock cfiCond37
        CFI EndBlock cfiCond38
        CFI EndBlock cfiPicker39

        RSEG BANKED_CODE:CODE:NOROOT(0)
?Subroutine35:
        CFI Block cfiCond40 Using cfiCommon0
        CFI NoFunction
        CFI Conditional ??CrossCallReturnLabel_60
        CFI R6 load(1, XDATA, add(CFA_XSP16, literal(-10)))
        CFI VB load(1, XDATA, add(CFA_XSP16, literal(-9)))
        CFI V0 load(1, XDATA, add(CFA_XSP16, literal(-8)))
        CFI V1 load(1, XDATA, add(CFA_XSP16, literal(-7)))
        CFI R7 load(1, XDATA, add(CFA_XSP16, literal(-6)))
        CFI ?RET_LOW load(1, XDATA, add(CFA_XSP16, literal(-5)))
        CFI ?RET_HIGH load(1, XDATA, add(CFA_XSP16, literal(-4)))
        CFI ?BRET_EXT load(1, XDATA, add(CFA_XSP16, literal(-3)))
        CFI DPL0 load(1, XDATA, add(CFA_XSP16, literal(-2)))
        CFI DPH0 load(1, XDATA, add(CFA_XSP16, literal(-1)))
        CFI CFA_SP SP+0
        CFI CFA_XSP16 add(XSP16, 10)
        CFI Block cfiCond41 Using cfiCommon0
        CFI (cfiCond41) NoFunction
        CFI (cfiCond41) Conditional ??CrossCallReturnLabel_61
        CFI (cfiCond41) R6 load(1, XDATA, add(CFA_XSP16, literal(-12)))
        CFI (cfiCond41) VB load(1, XDATA, add(CFA_XSP16, literal(-11)))
        CFI (cfiCond41) V0 load(1, XDATA, add(CFA_XSP16, literal(-10)))
        CFI (cfiCond41) V1 load(1, XDATA, add(CFA_XSP16, literal(-9)))
        CFI (cfiCond41) V2 load(1, XDATA, add(CFA_XSP16, literal(-8)))
        CFI (cfiCond41) V3 load(1, XDATA, add(CFA_XSP16, literal(-7)))
        CFI (cfiCond41) R7 load(1, XDATA, add(CFA_XSP16, literal(-6)))
        CFI (cfiCond41) ?RET_LOW load(1, XDATA, add(CFA_XSP16, literal(-5)))
        CFI (cfiCond41) ?RET_HIGH load(1, XDATA, add(CFA_XSP16, literal(-4)))
        CFI (cfiCond41) ?BRET_EXT load(1, XDATA, add(CFA_XSP16, literal(-3)))
        CFI (cfiCond41) DPL0 load(1, XDATA, add(CFA_XSP16, literal(-2)))
        CFI (cfiCond41) DPH0 load(1, XDATA, add(CFA_XSP16, literal(-1)))
        CFI (cfiCond41) CFA_SP SP+0
        CFI (cfiCond41) CFA_XSP16 add(XSP16, 12)
        CFI Block cfiPicker42 Using cfiCommon1
        CFI (cfiPicker42) NoFunction
        CFI (cfiPicker42) Picker
        MOV     R2,A
        RLC     A
        SUBB    A,0xE0 /* A   */
        MOV     R3,A
        LCALL   ??Show_Num?relay
        ; Setup parameters for call to function HalUARTWrite
        ; Setup parameters for call to function HalUARTWrite
        MOV     R4,#0x1
        MOV     R5,#0x0
        MOV     R2,#`?<Constant ":">` & 0xff
        MOV     R3,#(`?<Constant ":">` >> 8) & 0xff
        MOV     R1,#0x0
        LCALL   ??HalUARTWrite?relay
        RET
        CFI EndBlock cfiCond40
        CFI EndBlock cfiCond41
        CFI EndBlock cfiPicker42

        RSEG BANKED_CODE:CODE:NOROOT(0)
?Subroutine31:
        CFI Block cfiCond43 Using cfiCommon0
        CFI NoFunction
        CFI Conditional ??CrossCallReturnLabel_54
        CFI R6 load(1, XDATA, add(CFA_XSP16, literal(-10)))
        CFI VB load(1, XDATA, add(CFA_XSP16, literal(-9)))
        CFI V0 load(1, XDATA, add(CFA_XSP16, literal(-8)))
        CFI V1 load(1, XDATA, add(CFA_XSP16, literal(-7)))
        CFI R7 load(1, XDATA, add(CFA_XSP16, literal(-6)))
        CFI ?RET_LOW load(1, XDATA, add(CFA_XSP16, literal(-5)))
        CFI ?RET_HIGH load(1, XDATA, add(CFA_XSP16, literal(-4)))
        CFI ?BRET_EXT load(1, XDATA, add(CFA_XSP16, literal(-3)))
        CFI DPL0 load(1, XDATA, add(CFA_XSP16, literal(-2)))
        CFI DPH0 load(1, XDATA, add(CFA_XSP16, literal(-1)))
        CFI CFA_SP SP+0
        CFI CFA_XSP16 add(XSP16, 10)
        CFI Block cfiCond44 Using cfiCommon0
        CFI (cfiCond44) NoFunction
        CFI (cfiCond44) Conditional ??CrossCallReturnLabel_55
        CFI (cfiCond44) R6 load(1, XDATA, add(CFA_XSP16, literal(-10)))
        CFI (cfiCond44) VB load(1, XDATA, add(CFA_XSP16, literal(-9)))
        CFI (cfiCond44) V0 load(1, XDATA, add(CFA_XSP16, literal(-8)))
        CFI (cfiCond44) V1 load(1, XDATA, add(CFA_XSP16, literal(-7)))
        CFI (cfiCond44) R7 load(1, XDATA, add(CFA_XSP16, literal(-6)))
        CFI (cfiCond44) ?RET_LOW load(1, XDATA, add(CFA_XSP16, literal(-5)))
        CFI (cfiCond44) ?RET_HIGH load(1, XDATA, add(CFA_XSP16, literal(-4)))
        CFI (cfiCond44) ?BRET_EXT load(1, XDATA, add(CFA_XSP16, literal(-3)))
        CFI (cfiCond44) DPL0 load(1, XDATA, add(CFA_XSP16, literal(-2)))
        CFI (cfiCond44) DPH0 load(1, XDATA, add(CFA_XSP16, literal(-1)))
        CFI (cfiCond44) CFA_SP SP+0
        CFI (cfiCond44) CFA_XSP16 add(XSP16, 10)
        CFI Block cfiCond45 Using cfiCommon0
        CFI (cfiCond45) NoFunction
        CFI (cfiCond45) Conditional ??CrossCallReturnLabel_56
        CFI (cfiCond45) R6 load(1, XDATA, add(CFA_XSP16, literal(-12)))
        CFI (cfiCond45) VB load(1, XDATA, add(CFA_XSP16, literal(-11)))
        CFI (cfiCond45) V0 load(1, XDATA, add(CFA_XSP16, literal(-10)))
        CFI (cfiCond45) V1 load(1, XDATA, add(CFA_XSP16, literal(-9)))
        CFI (cfiCond45) V2 load(1, XDATA, add(CFA_XSP16, literal(-8)))
        CFI (cfiCond45) V3 load(1, XDATA, add(CFA_XSP16, literal(-7)))
        CFI (cfiCond45) R7 load(1, XDATA, add(CFA_XSP16, literal(-6)))
        CFI (cfiCond45) ?RET_LOW load(1, XDATA, add(CFA_XSP16, literal(-5)))
        CFI (cfiCond45) ?RET_HIGH load(1, XDATA, add(CFA_XSP16, literal(-4)))
        CFI (cfiCond45) ?BRET_EXT load(1, XDATA, add(CFA_XSP16, literal(-3)))
        CFI (cfiCond45) DPL0 load(1, XDATA, add(CFA_XSP16, literal(-2)))
        CFI (cfiCond45) DPH0 load(1, XDATA, add(CFA_XSP16, literal(-1)))
        CFI (cfiCond45) CFA_SP SP+0
        CFI (cfiCond45) CFA_XSP16 add(XSP16, 12)
        CFI Block cfiPicker46 Using cfiCommon1
        CFI (cfiPicker46) NoFunction
        CFI (cfiPicker46) Picker
        MOVX    A,@DPTR
        MOV     R2,A
        INC     DPTR
        MOVX    A,@DPTR
        MOV     R3,A
        LCALL   ??Show_Bit?relay
        RET
        CFI EndBlock cfiCond43
        CFI EndBlock cfiCond44
        CFI EndBlock cfiCond45
        CFI EndBlock cfiPicker46

        RSEG BANKED_CODE:CODE:NOROOT(0)
?Subroutine11:
        CFI Block cfiCond47 Using cfiCommon0
        CFI NoFunction
        CFI Conditional ??CrossCallReturnLabel_21
        CFI R6 load(1, XDATA, add(CFA_XSP16, literal(-13)))
        CFI VB load(1, XDATA, add(CFA_XSP16, literal(-12)))
        CFI V0 load(1, XDATA, add(CFA_XSP16, literal(-11)))
        CFI V1 load(1, XDATA, add(CFA_XSP16, literal(-10)))
        CFI V2 load(1, XDATA, add(CFA_XSP16, literal(-9)))
        CFI V3 load(1, XDATA, add(CFA_XSP16, literal(-8)))
        CFI V4 load(1, XDATA, add(CFA_XSP16, literal(-7)))
        CFI R7 load(1, XDATA, add(CFA_XSP16, literal(-6)))
        CFI ?RET_LOW load(1, XDATA, add(CFA_XSP16, literal(-5)))
        CFI ?RET_HIGH load(1, XDATA, add(CFA_XSP16, literal(-4)))
        CFI ?BRET_EXT load(1, XDATA, add(CFA_XSP16, literal(-3)))
        CFI DPL0 load(1, XDATA, add(CFA_XSP16, literal(-2)))
        CFI DPH0 load(1, XDATA, add(CFA_XSP16, literal(-1)))
        CFI CFA_SP SP+0
        CFI CFA_XSP16 add(XSP16, 15)
        CFI Block cfiCond48 Using cfiCommon0
        CFI (cfiCond48) NoFunction
        CFI (cfiCond48) Conditional ??CrossCallReturnLabel_22
        CFI (cfiCond48) R6 load(1, XDATA, add(CFA_XSP16, literal(-12)))
        CFI (cfiCond48) VB load(1, XDATA, add(CFA_XSP16, literal(-11)))
        CFI (cfiCond48) V0 load(1, XDATA, add(CFA_XSP16, literal(-10)))
        CFI (cfiCond48) V1 load(1, XDATA, add(CFA_XSP16, literal(-9)))
        CFI (cfiCond48) V2 load(1, XDATA, add(CFA_XSP16, literal(-8)))
        CFI (cfiCond48) V3 load(1, XDATA, add(CFA_XSP16, literal(-7)))
        CFI (cfiCond48) R7 load(1, XDATA, add(CFA_XSP16, literal(-6)))
        CFI (cfiCond48) ?RET_LOW load(1, XDATA, add(CFA_XSP16, literal(-5)))
        CFI (cfiCond48) ?RET_HIGH load(1, XDATA, add(CFA_XSP16, literal(-4)))
        CFI (cfiCond48) ?BRET_EXT load(1, XDATA, add(CFA_XSP16, literal(-3)))
        CFI (cfiCond48) DPL0 load(1, XDATA, add(CFA_XSP16, literal(-2)))
        CFI (cfiCond48) DPH0 load(1, XDATA, add(CFA_XSP16, literal(-1)))
        CFI (cfiCond48) CFA_SP SP+0
        CFI (cfiCond48) CFA_XSP16 add(XSP16, 12)
        CFI Block cfiPicker49 Using cfiCommon1
        CFI (cfiPicker49) NoFunction
        CFI (cfiPicker49) Picker
        ADDC    A,#0x0
        MOV     R3,A
        MOV     R1,#0x0
        LCALL   ??HalUARTWrite?relay
        RET
        CFI EndBlock cfiCond47
        CFI EndBlock cfiCond48
        CFI EndBlock cfiPicker49
//  841 
//  842 
//  843 
//  844 
//  845 
//  846 
//  847 
//  848 /*********************************************************************
//  849  * LOCAL FUNCTIONS
//  850  */
//  851 
//  852 /*********************************************************************
//  853  * @fn      SampleApp_MessageMSGCB  接收函数
//  854  *
//  855  *          处理接收到的数据,可能是从其他设备收到的数据.
//  856  *
//  857  * @brief   Data message processor callback.  This function processes
//  858  *          any incoming data - probably from other devices.  So, based
//  859  *          on cluster ID, perform the intended action.
//  860  * @param   none
//  861  *
//  862  * @return  none
//  863  */

        RSEG BANKED_CODE:CODE:NOROOT(0)
//  864 void SampleApp_MessageMSGCB( afIncomingMSGPacket_t *pkt )
SampleApp_MessageMSGCB:
        CFI Block cfiBlock50 Using cfiCommon0
        CFI Function SampleApp_MessageMSGCB
        CODE
//  865 {
        FUNCALL SampleApp_MessageMSGCB, Power_of_2
        LOCFRAME ISTACK, 0, STACK
        LOCFRAME PSTACK, 0, STACK
        LOCFRAME XSTACK, 33, STACK
        LOCFRAME IOVERLAY, 0, STATIC
        LOCFRAME DOVERLAY, 0, STATIC
        ARGFRAME ISTACK, 0, STACK
        ARGFRAME PSTACK, 0, STACK
        ARGFRAME XSTACK, 33, STACK
        ARGFRAME IOVERLAY, 0, STATIC
        ARGFRAME DOVERLAY, 0, STATIC
        FUNCALL SampleApp_MessageMSGCB, HalUARTWrite
        LOCFRAME ISTACK, 0, STACK
        LOCFRAME PSTACK, 0, STACK
        LOCFRAME XSTACK, 33, STACK
        LOCFRAME IOVERLAY, 0, STATIC
        LOCFRAME DOVERLAY, 0, STATIC
        ARGFRAME ISTACK, 0, STACK
        ARGFRAME PSTACK, 0, STACK
        ARGFRAME XSTACK, 33, STACK
        ARGFRAME IOVERLAY, 0, STATIC
        ARGFRAME DOVERLAY, 0, STATIC
        FUNCALL SampleApp_MessageMSGCB, Onboard_soft_reset
        LOCFRAME ISTACK, 0, STACK
        LOCFRAME PSTACK, 0, STACK
        LOCFRAME XSTACK, 33, STACK
        LOCFRAME IOVERLAY, 0, STATIC
        LOCFRAME DOVERLAY, 0, STATIC
        ARGFRAME ISTACK, 0, STACK
        ARGFRAME PSTACK, 0, STACK
        ARGFRAME XSTACK, 33, STACK
        ARGFRAME IOVERLAY, 0, STATIC
        ARGFRAME DOVERLAY, 0, STATIC
        FUNCALL SampleApp_MessageMSGCB, AF_DataRequest
        LOCFRAME ISTACK, 0, STACK
        LOCFRAME PSTACK, 0, STACK
        LOCFRAME XSTACK, 42, STACK
        LOCFRAME IOVERLAY, 0, STATIC
        LOCFRAME DOVERLAY, 0, STATIC
        ARGFRAME ISTACK, 0, STACK
        ARGFRAME PSTACK, 0, STACK
        ARGFRAME XSTACK, 42, STACK
        ARGFRAME IOVERLAY, 0, STATIC
        ARGFRAME DOVERLAY, 0, STATIC
        FUNCALL SampleApp_MessageMSGCB, HalLedBlink
        LOCFRAME ISTACK, 0, STACK
        LOCFRAME PSTACK, 0, STACK
        LOCFRAME XSTACK, 33, STACK
        LOCFRAME IOVERLAY, 0, STATIC
        LOCFRAME DOVERLAY, 0, STATIC
        ARGFRAME ISTACK, 0, STACK
        ARGFRAME PSTACK, 0, STACK
        ARGFRAME XSTACK, 33, STACK
        ARGFRAME IOVERLAY, 0, STATIC
        ARGFRAME DOVERLAY, 0, STATIC
        FUNCALL SampleApp_MessageMSGCB, HalUARTWrite
        LOCFRAME ISTACK, 0, STACK
        LOCFRAME PSTACK, 0, STACK
        LOCFRAME XSTACK, 33, STACK
        LOCFRAME IOVERLAY, 0, STATIC
        LOCFRAME DOVERLAY, 0, STATIC
        ARGFRAME ISTACK, 0, STACK
        ARGFRAME PSTACK, 0, STACK
        ARGFRAME XSTACK, 33, STACK
        ARGFRAME IOVERLAY, 0, STATIC
        ARGFRAME DOVERLAY, 0, STATIC
        FUNCALL SampleApp_MessageMSGCB, osal_getClock
        LOCFRAME ISTACK, 0, STACK
        LOCFRAME PSTACK, 0, STACK
        LOCFRAME XSTACK, 33, STACK
        LOCFRAME IOVERLAY, 0, STATIC
        LOCFRAME DOVERLAY, 0, STATIC
        ARGFRAME ISTACK, 0, STACK
        ARGFRAME PSTACK, 0, STACK
        ARGFRAME XSTACK, 33, STACK
        ARGFRAME IOVERLAY, 0, STATIC
        ARGFRAME DOVERLAY, 0, STATIC
        FUNCALL SampleApp_MessageMSGCB, srand
        LOCFRAME ISTACK, 0, STACK
        LOCFRAME PSTACK, 0, STACK
        LOCFRAME XSTACK, 33, STACK
        LOCFRAME IOVERLAY, 0, STATIC
        LOCFRAME DOVERLAY, 0, STATIC
        ARGFRAME ISTACK, 0, STACK
        ARGFRAME PSTACK, 0, STACK
        ARGFRAME XSTACK, 33, STACK
        ARGFRAME IOVERLAY, 0, STATIC
        ARGFRAME DOVERLAY, 0, STATIC
        FUNCALL SampleApp_MessageMSGCB, rand
        LOCFRAME ISTACK, 0, STACK
        LOCFRAME PSTACK, 0, STACK
        LOCFRAME XSTACK, 33, STACK
        LOCFRAME IOVERLAY, 0, STATIC
        LOCFRAME DOVERLAY, 0, STATIC
        ARGFRAME ISTACK, 0, STACK
        ARGFRAME PSTACK, 0, STACK
        ARGFRAME XSTACK, 33, STACK
        ARGFRAME IOVERLAY, 0, STATIC
        ARGFRAME DOVERLAY, 0, STATIC
        FUNCALL SampleApp_MessageMSGCB, AF_DataRequest
        LOCFRAME ISTACK, 0, STACK
        LOCFRAME PSTACK, 0, STACK
        LOCFRAME XSTACK, 42, STACK
        LOCFRAME IOVERLAY, 0, STATIC
        LOCFRAME DOVERLAY, 0, STATIC
        ARGFRAME ISTACK, 0, STACK
        ARGFRAME PSTACK, 0, STACK
        ARGFRAME XSTACK, 42, STACK
        ARGFRAME IOVERLAY, 0, STATIC
        ARGFRAME DOVERLAY, 0, STATIC
        FUNCALL SampleApp_MessageMSGCB, HalLedBlink
        LOCFRAME ISTACK, 0, STACK
        LOCFRAME PSTACK, 0, STACK
        LOCFRAME XSTACK, 33, STACK
        LOCFRAME IOVERLAY, 0, STATIC
        LOCFRAME DOVERLAY, 0, STATIC
        ARGFRAME ISTACK, 0, STACK
        ARGFRAME PSTACK, 0, STACK
        ARGFRAME XSTACK, 33, STACK
        ARGFRAME IOVERLAY, 0, STATIC
        ARGFRAME DOVERLAY, 0, STATIC
        FUNCALL SampleApp_MessageMSGCB, HalUARTWrite
        LOCFRAME ISTACK, 0, STACK
        LOCFRAME PSTACK, 0, STACK
        LOCFRAME XSTACK, 33, STACK
        LOCFRAME IOVERLAY, 0, STATIC
        LOCFRAME DOVERLAY, 0, STATIC
        ARGFRAME ISTACK, 0, STACK
        ARGFRAME PSTACK, 0, STACK
        ARGFRAME XSTACK, 33, STACK
        ARGFRAME IOVERLAY, 0, STATIC
        ARGFRAME DOVERLAY, 0, STATIC
        FUNCALL SampleApp_MessageMSGCB, HalUARTWrite
        LOCFRAME ISTACK, 0, STACK
        LOCFRAME PSTACK, 0, STACK
        LOCFRAME XSTACK, 33, STACK
        LOCFRAME IOVERLAY, 0, STATIC
        LOCFRAME DOVERLAY, 0, STATIC
        ARGFRAME ISTACK, 0, STACK
        ARGFRAME PSTACK, 0, STACK
        ARGFRAME XSTACK, 33, STACK
        ARGFRAME IOVERLAY, 0, STATIC
        ARGFRAME DOVERLAY, 0, STATIC
        FUNCALL SampleApp_MessageMSGCB, Show_Bit
        LOCFRAME ISTACK, 0, STACK
        LOCFRAME PSTACK, 0, STACK
        LOCFRAME XSTACK, 33, STACK
        LOCFRAME IOVERLAY, 0, STATIC
        LOCFRAME DOVERLAY, 0, STATIC
        ARGFRAME ISTACK, 0, STACK
        ARGFRAME PSTACK, 0, STACK
        ARGFRAME XSTACK, 33, STACK
        ARGFRAME IOVERLAY, 0, STATIC
        ARGFRAME DOVERLAY, 0, STATIC
        FUNCALL SampleApp_MessageMSGCB, HalUARTWrite
        LOCFRAME ISTACK, 0, STACK
        LOCFRAME PSTACK, 0, STACK
        LOCFRAME XSTACK, 33, STACK
        LOCFRAME IOVERLAY, 0, STATIC
        LOCFRAME DOVERLAY, 0, STATIC
        ARGFRAME ISTACK, 0, STACK
        ARGFRAME PSTACK, 0, STACK
        ARGFRAME XSTACK, 33, STACK
        ARGFRAME IOVERLAY, 0, STATIC
        ARGFRAME DOVERLAY, 0, STATIC
        FUNCALL SampleApp_MessageMSGCB, Show_Bit
        LOCFRAME ISTACK, 0, STACK
        LOCFRAME PSTACK, 0, STACK
        LOCFRAME XSTACK, 33, STACK
        LOCFRAME IOVERLAY, 0, STATIC
        LOCFRAME DOVERLAY, 0, STATIC
        ARGFRAME ISTACK, 0, STACK
        ARGFRAME PSTACK, 0, STACK
        ARGFRAME XSTACK, 33, STACK
        ARGFRAME IOVERLAY, 0, STATIC
        ARGFRAME DOVERLAY, 0, STATIC
        FUNCALL SampleApp_MessageMSGCB, HalUARTWrite
        LOCFRAME ISTACK, 0, STACK
        LOCFRAME PSTACK, 0, STACK
        LOCFRAME XSTACK, 33, STACK
        LOCFRAME IOVERLAY, 0, STATIC
        LOCFRAME DOVERLAY, 0, STATIC
        ARGFRAME ISTACK, 0, STACK
        ARGFRAME PSTACK, 0, STACK
        ARGFRAME XSTACK, 33, STACK
        ARGFRAME IOVERLAY, 0, STATIC
        ARGFRAME DOVERLAY, 0, STATIC
        FUNCALL SampleApp_MessageMSGCB, HalUARTWrite
        LOCFRAME ISTACK, 0, STACK
        LOCFRAME PSTACK, 0, STACK
        LOCFRAME XSTACK, 33, STACK
        LOCFRAME IOVERLAY, 0, STATIC
        LOCFRAME DOVERLAY, 0, STATIC
        ARGFRAME ISTACK, 0, STACK
        ARGFRAME PSTACK, 0, STACK
        ARGFRAME XSTACK, 33, STACK
        ARGFRAME IOVERLAY, 0, STATIC
        ARGFRAME DOVERLAY, 0, STATIC
        FUNCALL SampleApp_MessageMSGCB, HalUARTWrite
        LOCFRAME ISTACK, 0, STACK
        LOCFRAME PSTACK, 0, STACK
        LOCFRAME XSTACK, 33, STACK
        LOCFRAME IOVERLAY, 0, STATIC
        LOCFRAME DOVERLAY, 0, STATIC
        ARGFRAME ISTACK, 0, STACK
        ARGFRAME PSTACK, 0, STACK
        ARGFRAME XSTACK, 33, STACK
        ARGFRAME IOVERLAY, 0, STATIC
        ARGFRAME DOVERLAY, 0, STATIC
        FUNCALL SampleApp_MessageMSGCB, Power_of_2
        LOCFRAME ISTACK, 0, STACK
        LOCFRAME PSTACK, 0, STACK
        LOCFRAME XSTACK, 33, STACK
        LOCFRAME IOVERLAY, 0, STATIC
        LOCFRAME DOVERLAY, 0, STATIC
        ARGFRAME ISTACK, 0, STACK
        ARGFRAME PSTACK, 0, STACK
        ARGFRAME XSTACK, 33, STACK
        ARGFRAME IOVERLAY, 0, STATIC
        ARGFRAME DOVERLAY, 0, STATIC
        FUNCALL SampleApp_MessageMSGCB, HalUARTWrite
        LOCFRAME ISTACK, 0, STACK
        LOCFRAME PSTACK, 0, STACK
        LOCFRAME XSTACK, 33, STACK
        LOCFRAME IOVERLAY, 0, STATIC
        LOCFRAME DOVERLAY, 0, STATIC
        ARGFRAME ISTACK, 0, STACK
        ARGFRAME PSTACK, 0, STACK
        ARGFRAME XSTACK, 33, STACK
        ARGFRAME IOVERLAY, 0, STATIC
        ARGFRAME DOVERLAY, 0, STATIC
        FUNCALL SampleApp_MessageMSGCB, HalUARTWrite
        LOCFRAME ISTACK, 0, STACK
        LOCFRAME PSTACK, 0, STACK
        LOCFRAME XSTACK, 33, STACK
        LOCFRAME IOVERLAY, 0, STATIC
        LOCFRAME DOVERLAY, 0, STATIC
        ARGFRAME ISTACK, 0, STACK
        ARGFRAME PSTACK, 0, STACK
        ARGFRAME XSTACK, 33, STACK
        ARGFRAME IOVERLAY, 0, STATIC
        ARGFRAME DOVERLAY, 0, STATIC
        FUNCALL SampleApp_MessageMSGCB, HalUARTWrite
        LOCFRAME ISTACK, 0, STACK
        LOCFRAME PSTACK, 0, STACK
        LOCFRAME XSTACK, 33, STACK
        LOCFRAME IOVERLAY, 0, STATIC
        LOCFRAME DOVERLAY, 0, STATIC
        ARGFRAME ISTACK, 0, STACK
        ARGFRAME PSTACK, 0, STACK
        ARGFRAME XSTACK, 33, STACK
        ARGFRAME IOVERLAY, 0, STATIC
        ARGFRAME DOVERLAY, 0, STATIC
        FUNCALL SampleApp_MessageMSGCB, HalUARTWrite
        LOCFRAME ISTACK, 0, STACK
        LOCFRAME PSTACK, 0, STACK
        LOCFRAME XSTACK, 33, STACK
        LOCFRAME IOVERLAY, 0, STATIC
        LOCFRAME DOVERLAY, 0, STATIC
        ARGFRAME ISTACK, 0, STACK
        ARGFRAME PSTACK, 0, STACK
        ARGFRAME XSTACK, 33, STACK
        ARGFRAME IOVERLAY, 0, STATIC
        ARGFRAME DOVERLAY, 0, STATIC
        FUNCALL SampleApp_MessageMSGCB, HalUARTWrite
        LOCFRAME ISTACK, 0, STACK
        LOCFRAME PSTACK, 0, STACK
        LOCFRAME XSTACK, 33, STACK
        LOCFRAME IOVERLAY, 0, STATIC
        LOCFRAME DOVERLAY, 0, STATIC
        ARGFRAME ISTACK, 0, STACK
        ARGFRAME PSTACK, 0, STACK
        ARGFRAME XSTACK, 33, STACK
        ARGFRAME IOVERLAY, 0, STATIC
        ARGFRAME DOVERLAY, 0, STATIC
        FUNCALL SampleApp_MessageMSGCB, HalUARTWrite
        LOCFRAME ISTACK, 0, STACK
        LOCFRAME PSTACK, 0, STACK
        LOCFRAME XSTACK, 33, STACK
        LOCFRAME IOVERLAY, 0, STATIC
        LOCFRAME DOVERLAY, 0, STATIC
        ARGFRAME ISTACK, 0, STACK
        ARGFRAME PSTACK, 0, STACK
        ARGFRAME XSTACK, 33, STACK
        ARGFRAME IOVERLAY, 0, STATIC
        ARGFRAME DOVERLAY, 0, STATIC
        FUNCALL SampleApp_MessageMSGCB, Show_Bit
        LOCFRAME ISTACK, 0, STACK
        LOCFRAME PSTACK, 0, STACK
        LOCFRAME XSTACK, 33, STACK
        LOCFRAME IOVERLAY, 0, STATIC
        LOCFRAME DOVERLAY, 0, STATIC
        ARGFRAME ISTACK, 0, STACK
        ARGFRAME PSTACK, 0, STACK
        ARGFRAME XSTACK, 33, STACK
        ARGFRAME IOVERLAY, 0, STATIC
        ARGFRAME DOVERLAY, 0, STATIC
        FUNCALL SampleApp_MessageMSGCB, HalUARTWrite
        LOCFRAME ISTACK, 0, STACK
        LOCFRAME PSTACK, 0, STACK
        LOCFRAME XSTACK, 33, STACK
        LOCFRAME IOVERLAY, 0, STATIC
        LOCFRAME DOVERLAY, 0, STATIC
        ARGFRAME ISTACK, 0, STACK
        ARGFRAME PSTACK, 0, STACK
        ARGFRAME XSTACK, 33, STACK
        ARGFRAME IOVERLAY, 0, STATIC
        ARGFRAME DOVERLAY, 0, STATIC
        FUNCALL SampleApp_MessageMSGCB, Show_Num
        LOCFRAME ISTACK, 0, STACK
        LOCFRAME PSTACK, 0, STACK
        LOCFRAME XSTACK, 33, STACK
        LOCFRAME IOVERLAY, 0, STATIC
        LOCFRAME DOVERLAY, 0, STATIC
        ARGFRAME ISTACK, 0, STACK
        ARGFRAME PSTACK, 0, STACK
        ARGFRAME XSTACK, 33, STACK
        ARGFRAME IOVERLAY, 0, STATIC
        ARGFRAME DOVERLAY, 0, STATIC
        FUNCALL SampleApp_MessageMSGCB, HalUARTWrite
        LOCFRAME ISTACK, 0, STACK
        LOCFRAME PSTACK, 0, STACK
        LOCFRAME XSTACK, 33, STACK
        LOCFRAME IOVERLAY, 0, STATIC
        LOCFRAME DOVERLAY, 0, STATIC
        ARGFRAME ISTACK, 0, STACK
        ARGFRAME PSTACK, 0, STACK
        ARGFRAME XSTACK, 33, STACK
        ARGFRAME IOVERLAY, 0, STATIC
        ARGFRAME DOVERLAY, 0, STATIC
        FUNCALL SampleApp_MessageMSGCB, Show_Bit
        LOCFRAME ISTACK, 0, STACK
        LOCFRAME PSTACK, 0, STACK
        LOCFRAME XSTACK, 33, STACK
        LOCFRAME IOVERLAY, 0, STATIC
        LOCFRAME DOVERLAY, 0, STATIC
        ARGFRAME ISTACK, 0, STACK
        ARGFRAME PSTACK, 0, STACK
        ARGFRAME XSTACK, 33, STACK
        ARGFRAME IOVERLAY, 0, STATIC
        ARGFRAME DOVERLAY, 0, STATIC
        FUNCALL SampleApp_MessageMSGCB, HalUARTWrite
        LOCFRAME ISTACK, 0, STACK
        LOCFRAME PSTACK, 0, STACK
        LOCFRAME XSTACK, 33, STACK
        LOCFRAME IOVERLAY, 0, STATIC
        LOCFRAME DOVERLAY, 0, STATIC
        ARGFRAME ISTACK, 0, STACK
        ARGFRAME PSTACK, 0, STACK
        ARGFRAME XSTACK, 33, STACK
        ARGFRAME IOVERLAY, 0, STATIC
        ARGFRAME DOVERLAY, 0, STATIC
        FUNCALL SampleApp_MessageMSGCB, Show_Num
        LOCFRAME ISTACK, 0, STACK
        LOCFRAME PSTACK, 0, STACK
        LOCFRAME XSTACK, 33, STACK
        LOCFRAME IOVERLAY, 0, STATIC
        LOCFRAME DOVERLAY, 0, STATIC
        ARGFRAME ISTACK, 0, STACK
        ARGFRAME PSTACK, 0, STACK
        ARGFRAME XSTACK, 33, STACK
        ARGFRAME IOVERLAY, 0, STATIC
        ARGFRAME DOVERLAY, 0, STATIC
        FUNCALL SampleApp_MessageMSGCB, HalUARTWrite
        LOCFRAME ISTACK, 0, STACK
        LOCFRAME PSTACK, 0, STACK
        LOCFRAME XSTACK, 33, STACK
        LOCFRAME IOVERLAY, 0, STATIC
        LOCFRAME DOVERLAY, 0, STATIC
        ARGFRAME ISTACK, 0, STACK
        ARGFRAME PSTACK, 0, STACK
        ARGFRAME XSTACK, 33, STACK
        ARGFRAME IOVERLAY, 0, STATIC
        ARGFRAME DOVERLAY, 0, STATIC
        FUNCALL SampleApp_MessageMSGCB, Show_Bit
        LOCFRAME ISTACK, 0, STACK
        LOCFRAME PSTACK, 0, STACK
        LOCFRAME XSTACK, 33, STACK
        LOCFRAME IOVERLAY, 0, STATIC
        LOCFRAME DOVERLAY, 0, STATIC
        ARGFRAME ISTACK, 0, STACK
        ARGFRAME PSTACK, 0, STACK
        ARGFRAME XSTACK, 33, STACK
        ARGFRAME IOVERLAY, 0, STATIC
        ARGFRAME DOVERLAY, 0, STATIC
        FUNCALL SampleApp_MessageMSGCB, HalUARTWrite
        LOCFRAME ISTACK, 0, STACK
        LOCFRAME PSTACK, 0, STACK
        LOCFRAME XSTACK, 33, STACK
        LOCFRAME IOVERLAY, 0, STATIC
        LOCFRAME DOVERLAY, 0, STATIC
        ARGFRAME ISTACK, 0, STACK
        ARGFRAME PSTACK, 0, STACK
        ARGFRAME XSTACK, 33, STACK
        ARGFRAME IOVERLAY, 0, STATIC
        ARGFRAME DOVERLAY, 0, STATIC
        FUNCALL SampleApp_MessageMSGCB, Show_Num
        LOCFRAME ISTACK, 0, STACK
        LOCFRAME PSTACK, 0, STACK
        LOCFRAME XSTACK, 33, STACK
        LOCFRAME IOVERLAY, 0, STATIC
        LOCFRAME DOVERLAY, 0, STATIC
        ARGFRAME ISTACK, 0, STACK
        ARGFRAME PSTACK, 0, STACK
        ARGFRAME XSTACK, 33, STACK
        ARGFRAME IOVERLAY, 0, STATIC
        ARGFRAME DOVERLAY, 0, STATIC
        FUNCALL SampleApp_MessageMSGCB, HalUARTWrite
        LOCFRAME ISTACK, 0, STACK
        LOCFRAME PSTACK, 0, STACK
        LOCFRAME XSTACK, 33, STACK
        LOCFRAME IOVERLAY, 0, STATIC
        LOCFRAME DOVERLAY, 0, STATIC
        ARGFRAME ISTACK, 0, STACK
        ARGFRAME PSTACK, 0, STACK
        ARGFRAME XSTACK, 33, STACK
        ARGFRAME IOVERLAY, 0, STATIC
        ARGFRAME DOVERLAY, 0, STATIC
        FUNCALL SampleApp_MessageMSGCB, HalUARTWrite
        LOCFRAME ISTACK, 0, STACK
        LOCFRAME PSTACK, 0, STACK
        LOCFRAME XSTACK, 33, STACK
        LOCFRAME IOVERLAY, 0, STATIC
        LOCFRAME DOVERLAY, 0, STATIC
        ARGFRAME ISTACK, 0, STACK
        ARGFRAME PSTACK, 0, STACK
        ARGFRAME XSTACK, 33, STACK
        ARGFRAME IOVERLAY, 0, STATIC
        ARGFRAME DOVERLAY, 0, STATIC
        FUNCALL SampleApp_MessageMSGCB, HalUARTWrite
        LOCFRAME ISTACK, 0, STACK
        LOCFRAME PSTACK, 0, STACK
        LOCFRAME XSTACK, 33, STACK
        LOCFRAME IOVERLAY, 0, STATIC
        LOCFRAME DOVERLAY, 0, STATIC
        ARGFRAME ISTACK, 0, STACK
        ARGFRAME PSTACK, 0, STACK
        ARGFRAME XSTACK, 33, STACK
        ARGFRAME IOVERLAY, 0, STATIC
        ARGFRAME DOVERLAY, 0, STATIC
        FUNCALL SampleApp_MessageMSGCB, Show_Num
        LOCFRAME ISTACK, 0, STACK
        LOCFRAME PSTACK, 0, STACK
        LOCFRAME XSTACK, 33, STACK
        LOCFRAME IOVERLAY, 0, STATIC
        LOCFRAME DOVERLAY, 0, STATIC
        ARGFRAME ISTACK, 0, STACK
        ARGFRAME PSTACK, 0, STACK
        ARGFRAME XSTACK, 33, STACK
        ARGFRAME IOVERLAY, 0, STATIC
        ARGFRAME DOVERLAY, 0, STATIC
        FUNCALL SampleApp_MessageMSGCB, HalUARTWrite
        LOCFRAME ISTACK, 0, STACK
        LOCFRAME PSTACK, 0, STACK
        LOCFRAME XSTACK, 33, STACK
        LOCFRAME IOVERLAY, 0, STATIC
        LOCFRAME DOVERLAY, 0, STATIC
        ARGFRAME ISTACK, 0, STACK
        ARGFRAME PSTACK, 0, STACK
        ARGFRAME XSTACK, 33, STACK
        ARGFRAME IOVERLAY, 0, STATIC
        ARGFRAME DOVERLAY, 0, STATIC
        FUNCALL SampleApp_MessageMSGCB, AF_DataRequest
        LOCFRAME ISTACK, 0, STACK
        LOCFRAME PSTACK, 0, STACK
        LOCFRAME XSTACK, 42, STACK
        LOCFRAME IOVERLAY, 0, STATIC
        LOCFRAME DOVERLAY, 0, STATIC
        ARGFRAME ISTACK, 0, STACK
        ARGFRAME PSTACK, 0, STACK
        ARGFRAME XSTACK, 42, STACK
        ARGFRAME IOVERLAY, 0, STATIC
        ARGFRAME DOVERLAY, 0, STATIC
        FUNCALL SampleApp_MessageMSGCB, HalUARTWrite
        LOCFRAME ISTACK, 0, STACK
        LOCFRAME PSTACK, 0, STACK
        LOCFRAME XSTACK, 33, STACK
        LOCFRAME IOVERLAY, 0, STATIC
        LOCFRAME DOVERLAY, 0, STATIC
        ARGFRAME ISTACK, 0, STACK
        ARGFRAME PSTACK, 0, STACK
        ARGFRAME XSTACK, 33, STACK
        ARGFRAME IOVERLAY, 0, STATIC
        ARGFRAME DOVERLAY, 0, STATIC
        FUNCALL SampleApp_MessageMSGCB, osal_getClock
        LOCFRAME ISTACK, 0, STACK
        LOCFRAME PSTACK, 0, STACK
        LOCFRAME XSTACK, 33, STACK
        LOCFRAME IOVERLAY, 0, STATIC
        LOCFRAME DOVERLAY, 0, STATIC
        ARGFRAME ISTACK, 0, STACK
        ARGFRAME PSTACK, 0, STACK
        ARGFRAME XSTACK, 33, STACK
        ARGFRAME IOVERLAY, 0, STATIC
        ARGFRAME DOVERLAY, 0, STATIC
        FUNCALL SampleApp_MessageMSGCB, srand
        LOCFRAME ISTACK, 0, STACK
        LOCFRAME PSTACK, 0, STACK
        LOCFRAME XSTACK, 33, STACK
        LOCFRAME IOVERLAY, 0, STATIC
        LOCFRAME DOVERLAY, 0, STATIC
        ARGFRAME ISTACK, 0, STACK
        ARGFRAME PSTACK, 0, STACK
        ARGFRAME XSTACK, 33, STACK
        ARGFRAME IOVERLAY, 0, STATIC
        ARGFRAME DOVERLAY, 0, STATIC
        FUNCALL SampleApp_MessageMSGCB, rand
        LOCFRAME ISTACK, 0, STACK
        LOCFRAME PSTACK, 0, STACK
        LOCFRAME XSTACK, 33, STACK
        LOCFRAME IOVERLAY, 0, STATIC
        LOCFRAME DOVERLAY, 0, STATIC
        ARGFRAME ISTACK, 0, STACK
        ARGFRAME PSTACK, 0, STACK
        ARGFRAME XSTACK, 33, STACK
        ARGFRAME IOVERLAY, 0, STATIC
        ARGFRAME DOVERLAY, 0, STATIC
        FUNCALL SampleApp_MessageMSGCB, AF_DataRequest
        LOCFRAME ISTACK, 0, STACK
        LOCFRAME PSTACK, 0, STACK
        LOCFRAME XSTACK, 42, STACK
        LOCFRAME IOVERLAY, 0, STATIC
        LOCFRAME DOVERLAY, 0, STATIC
        ARGFRAME ISTACK, 0, STACK
        ARGFRAME PSTACK, 0, STACK
        ARGFRAME XSTACK, 42, STACK
        ARGFRAME IOVERLAY, 0, STATIC
        ARGFRAME DOVERLAY, 0, STATIC
        FUNCALL SampleApp_MessageMSGCB, HalUARTWrite
        LOCFRAME ISTACK, 0, STACK
        LOCFRAME PSTACK, 0, STACK
        LOCFRAME XSTACK, 33, STACK
        LOCFRAME IOVERLAY, 0, STATIC
        LOCFRAME DOVERLAY, 0, STATIC
        ARGFRAME ISTACK, 0, STACK
        ARGFRAME PSTACK, 0, STACK
        ARGFRAME XSTACK, 33, STACK
        ARGFRAME IOVERLAY, 0, STATIC
        ARGFRAME DOVERLAY, 0, STATIC
        FUNCALL SampleApp_MessageMSGCB, Show_Bit
        LOCFRAME ISTACK, 0, STACK
        LOCFRAME PSTACK, 0, STACK
        LOCFRAME XSTACK, 33, STACK
        LOCFRAME IOVERLAY, 0, STATIC
        LOCFRAME DOVERLAY, 0, STATIC
        ARGFRAME ISTACK, 0, STACK
        ARGFRAME PSTACK, 0, STACK
        ARGFRAME XSTACK, 33, STACK
        ARGFRAME IOVERLAY, 0, STATIC
        ARGFRAME DOVERLAY, 0, STATIC
        FUNCALL SampleApp_MessageMSGCB, HalUARTWrite
        LOCFRAME ISTACK, 0, STACK
        LOCFRAME PSTACK, 0, STACK
        LOCFRAME XSTACK, 33, STACK
        LOCFRAME IOVERLAY, 0, STATIC
        LOCFRAME DOVERLAY, 0, STATIC
        ARGFRAME ISTACK, 0, STACK
        ARGFRAME PSTACK, 0, STACK
        ARGFRAME XSTACK, 33, STACK
        ARGFRAME IOVERLAY, 0, STATIC
        ARGFRAME DOVERLAY, 0, STATIC
        FUNCALL SampleApp_MessageMSGCB, Show_Bit
        LOCFRAME ISTACK, 0, STACK
        LOCFRAME PSTACK, 0, STACK
        LOCFRAME XSTACK, 33, STACK
        LOCFRAME IOVERLAY, 0, STATIC
        LOCFRAME DOVERLAY, 0, STATIC
        ARGFRAME ISTACK, 0, STACK
        ARGFRAME PSTACK, 0, STACK
        ARGFRAME XSTACK, 33, STACK
        ARGFRAME IOVERLAY, 0, STATIC
        ARGFRAME DOVERLAY, 0, STATIC
        FUNCALL SampleApp_MessageMSGCB, HalUARTWrite
        LOCFRAME ISTACK, 0, STACK
        LOCFRAME PSTACK, 0, STACK
        LOCFRAME XSTACK, 33, STACK
        LOCFRAME IOVERLAY, 0, STATIC
        LOCFRAME DOVERLAY, 0, STATIC
        ARGFRAME ISTACK, 0, STACK
        ARGFRAME PSTACK, 0, STACK
        ARGFRAME XSTACK, 33, STACK
        ARGFRAME IOVERLAY, 0, STATIC
        ARGFRAME DOVERLAY, 0, STATIC
        FUNCALL SampleApp_MessageMSGCB, HalUARTWrite
        LOCFRAME ISTACK, 0, STACK
        LOCFRAME PSTACK, 0, STACK
        LOCFRAME XSTACK, 33, STACK
        LOCFRAME IOVERLAY, 0, STATIC
        LOCFRAME DOVERLAY, 0, STATIC
        ARGFRAME ISTACK, 0, STACK
        ARGFRAME PSTACK, 0, STACK
        ARGFRAME XSTACK, 33, STACK
        ARGFRAME IOVERLAY, 0, STATIC
        ARGFRAME DOVERLAY, 0, STATIC
        FUNCALL SampleApp_MessageMSGCB, Power_of_2
        LOCFRAME ISTACK, 0, STACK
        LOCFRAME PSTACK, 0, STACK
        LOCFRAME XSTACK, 33, STACK
        LOCFRAME IOVERLAY, 0, STATIC
        LOCFRAME DOVERLAY, 0, STATIC
        ARGFRAME ISTACK, 0, STACK
        ARGFRAME PSTACK, 0, STACK
        ARGFRAME XSTACK, 33, STACK
        ARGFRAME IOVERLAY, 0, STATIC
        ARGFRAME DOVERLAY, 0, STATIC
        FUNCALL SampleApp_MessageMSGCB, HalUARTWrite
        LOCFRAME ISTACK, 0, STACK
        LOCFRAME PSTACK, 0, STACK
        LOCFRAME XSTACK, 33, STACK
        LOCFRAME IOVERLAY, 0, STATIC
        LOCFRAME DOVERLAY, 0, STATIC
        ARGFRAME ISTACK, 0, STACK
        ARGFRAME PSTACK, 0, STACK
        ARGFRAME XSTACK, 33, STACK
        ARGFRAME IOVERLAY, 0, STATIC
        ARGFRAME DOVERLAY, 0, STATIC
        FUNCALL SampleApp_MessageMSGCB, HalUARTWrite
        LOCFRAME ISTACK, 0, STACK
        LOCFRAME PSTACK, 0, STACK
        LOCFRAME XSTACK, 33, STACK
        LOCFRAME IOVERLAY, 0, STATIC
        LOCFRAME DOVERLAY, 0, STATIC
        ARGFRAME ISTACK, 0, STACK
        ARGFRAME PSTACK, 0, STACK
        ARGFRAME XSTACK, 33, STACK
        ARGFRAME IOVERLAY, 0, STATIC
        ARGFRAME DOVERLAY, 0, STATIC
        FUNCALL SampleApp_MessageMSGCB, HalUARTWrite
        LOCFRAME ISTACK, 0, STACK
        LOCFRAME PSTACK, 0, STACK
        LOCFRAME XSTACK, 33, STACK
        LOCFRAME IOVERLAY, 0, STATIC
        LOCFRAME DOVERLAY, 0, STATIC
        ARGFRAME ISTACK, 0, STACK
        ARGFRAME PSTACK, 0, STACK
        ARGFRAME XSTACK, 33, STACK
        ARGFRAME IOVERLAY, 0, STATIC
        ARGFRAME DOVERLAY, 0, STATIC
        FUNCALL SampleApp_MessageMSGCB, HalUARTWrite
        LOCFRAME ISTACK, 0, STACK
        LOCFRAME PSTACK, 0, STACK
        LOCFRAME XSTACK, 33, STACK
        LOCFRAME IOVERLAY, 0, STATIC
        LOCFRAME DOVERLAY, 0, STATIC
        ARGFRAME ISTACK, 0, STACK
        ARGFRAME PSTACK, 0, STACK
        ARGFRAME XSTACK, 33, STACK
        ARGFRAME IOVERLAY, 0, STATIC
        ARGFRAME DOVERLAY, 0, STATIC
        FUNCALL SampleApp_MessageMSGCB, HalUARTWrite
        LOCFRAME ISTACK, 0, STACK
        LOCFRAME PSTACK, 0, STACK
        LOCFRAME XSTACK, 33, STACK
        LOCFRAME IOVERLAY, 0, STATIC
        LOCFRAME DOVERLAY, 0, STATIC
        ARGFRAME ISTACK, 0, STACK
        ARGFRAME PSTACK, 0, STACK
        ARGFRAME XSTACK, 33, STACK
        ARGFRAME IOVERLAY, 0, STATIC
        ARGFRAME DOVERLAY, 0, STATIC
        FUNCALL SampleApp_MessageMSGCB, HalUARTWrite
        LOCFRAME ISTACK, 0, STACK
        LOCFRAME PSTACK, 0, STACK
        LOCFRAME XSTACK, 33, STACK
        LOCFRAME IOVERLAY, 0, STATIC
        LOCFRAME DOVERLAY, 0, STATIC
        ARGFRAME ISTACK, 0, STACK
        ARGFRAME PSTACK, 0, STACK
        ARGFRAME XSTACK, 33, STACK
        ARGFRAME IOVERLAY, 0, STATIC
        ARGFRAME DOVERLAY, 0, STATIC
        FUNCALL SampleApp_MessageMSGCB, Show_Bit
        LOCFRAME ISTACK, 0, STACK
        LOCFRAME PSTACK, 0, STACK
        LOCFRAME XSTACK, 33, STACK
        LOCFRAME IOVERLAY, 0, STATIC
        LOCFRAME DOVERLAY, 0, STATIC
        ARGFRAME ISTACK, 0, STACK
        ARGFRAME PSTACK, 0, STACK
        ARGFRAME XSTACK, 33, STACK
        ARGFRAME IOVERLAY, 0, STATIC
        ARGFRAME DOVERLAY, 0, STATIC
        FUNCALL SampleApp_MessageMSGCB, HalUARTWrite
        LOCFRAME ISTACK, 0, STACK
        LOCFRAME PSTACK, 0, STACK
        LOCFRAME XSTACK, 33, STACK
        LOCFRAME IOVERLAY, 0, STATIC
        LOCFRAME DOVERLAY, 0, STATIC
        ARGFRAME ISTACK, 0, STACK
        ARGFRAME PSTACK, 0, STACK
        ARGFRAME XSTACK, 33, STACK
        ARGFRAME IOVERLAY, 0, STATIC
        ARGFRAME DOVERLAY, 0, STATIC
        FUNCALL SampleApp_MessageMSGCB, Show_Num
        LOCFRAME ISTACK, 0, STACK
        LOCFRAME PSTACK, 0, STACK
        LOCFRAME XSTACK, 33, STACK
        LOCFRAME IOVERLAY, 0, STATIC
        LOCFRAME DOVERLAY, 0, STATIC
        ARGFRAME ISTACK, 0, STACK
        ARGFRAME PSTACK, 0, STACK
        ARGFRAME XSTACK, 33, STACK
        ARGFRAME IOVERLAY, 0, STATIC
        ARGFRAME DOVERLAY, 0, STATIC
        FUNCALL SampleApp_MessageMSGCB, HalUARTWrite
        LOCFRAME ISTACK, 0, STACK
        LOCFRAME PSTACK, 0, STACK
        LOCFRAME XSTACK, 33, STACK
        LOCFRAME IOVERLAY, 0, STATIC
        LOCFRAME DOVERLAY, 0, STATIC
        ARGFRAME ISTACK, 0, STACK
        ARGFRAME PSTACK, 0, STACK
        ARGFRAME XSTACK, 33, STACK
        ARGFRAME IOVERLAY, 0, STATIC
        ARGFRAME DOVERLAY, 0, STATIC
        FUNCALL SampleApp_MessageMSGCB, Show_Bit
        LOCFRAME ISTACK, 0, STACK
        LOCFRAME PSTACK, 0, STACK
        LOCFRAME XSTACK, 33, STACK
        LOCFRAME IOVERLAY, 0, STATIC
        LOCFRAME DOVERLAY, 0, STATIC
        ARGFRAME ISTACK, 0, STACK
        ARGFRAME PSTACK, 0, STACK
        ARGFRAME XSTACK, 33, STACK
        ARGFRAME IOVERLAY, 0, STATIC
        ARGFRAME DOVERLAY, 0, STATIC
        FUNCALL SampleApp_MessageMSGCB, HalUARTWrite
        LOCFRAME ISTACK, 0, STACK
        LOCFRAME PSTACK, 0, STACK
        LOCFRAME XSTACK, 33, STACK
        LOCFRAME IOVERLAY, 0, STATIC
        LOCFRAME DOVERLAY, 0, STATIC
        ARGFRAME ISTACK, 0, STACK
        ARGFRAME PSTACK, 0, STACK
        ARGFRAME XSTACK, 33, STACK
        ARGFRAME IOVERLAY, 0, STATIC
        ARGFRAME DOVERLAY, 0, STATIC
        FUNCALL SampleApp_MessageMSGCB, Show_Num
        LOCFRAME ISTACK, 0, STACK
        LOCFRAME PSTACK, 0, STACK
        LOCFRAME XSTACK, 33, STACK
        LOCFRAME IOVERLAY, 0, STATIC
        LOCFRAME DOVERLAY, 0, STATIC
        ARGFRAME ISTACK, 0, STACK
        ARGFRAME PSTACK, 0, STACK
        ARGFRAME XSTACK, 33, STACK
        ARGFRAME IOVERLAY, 0, STATIC
        ARGFRAME DOVERLAY, 0, STATIC
        FUNCALL SampleApp_MessageMSGCB, HalUARTWrite
        LOCFRAME ISTACK, 0, STACK
        LOCFRAME PSTACK, 0, STACK
        LOCFRAME XSTACK, 33, STACK
        LOCFRAME IOVERLAY, 0, STATIC
        LOCFRAME DOVERLAY, 0, STATIC
        ARGFRAME ISTACK, 0, STACK
        ARGFRAME PSTACK, 0, STACK
        ARGFRAME XSTACK, 33, STACK
        ARGFRAME IOVERLAY, 0, STATIC
        ARGFRAME DOVERLAY, 0, STATIC
        FUNCALL SampleApp_MessageMSGCB, Show_Bit
        LOCFRAME ISTACK, 0, STACK
        LOCFRAME PSTACK, 0, STACK
        LOCFRAME XSTACK, 33, STACK
        LOCFRAME IOVERLAY, 0, STATIC
        LOCFRAME DOVERLAY, 0, STATIC
        ARGFRAME ISTACK, 0, STACK
        ARGFRAME PSTACK, 0, STACK
        ARGFRAME XSTACK, 33, STACK
        ARGFRAME IOVERLAY, 0, STATIC
        ARGFRAME DOVERLAY, 0, STATIC
        FUNCALL SampleApp_MessageMSGCB, HalUARTWrite
        LOCFRAME ISTACK, 0, STACK
        LOCFRAME PSTACK, 0, STACK
        LOCFRAME XSTACK, 33, STACK
        LOCFRAME IOVERLAY, 0, STATIC
        LOCFRAME DOVERLAY, 0, STATIC
        ARGFRAME ISTACK, 0, STACK
        ARGFRAME PSTACK, 0, STACK
        ARGFRAME XSTACK, 33, STACK
        ARGFRAME IOVERLAY, 0, STATIC
        ARGFRAME DOVERLAY, 0, STATIC
        FUNCALL SampleApp_MessageMSGCB, Show_Num
        LOCFRAME ISTACK, 0, STACK
        LOCFRAME PSTACK, 0, STACK
        LOCFRAME XSTACK, 33, STACK
        LOCFRAME IOVERLAY, 0, STATIC
        LOCFRAME DOVERLAY, 0, STATIC
        ARGFRAME ISTACK, 0, STACK
        ARGFRAME PSTACK, 0, STACK
        ARGFRAME XSTACK, 33, STACK
        ARGFRAME IOVERLAY, 0, STATIC
        ARGFRAME DOVERLAY, 0, STATIC
        FUNCALL SampleApp_MessageMSGCB, HalUARTWrite
        LOCFRAME ISTACK, 0, STACK
        LOCFRAME PSTACK, 0, STACK
        LOCFRAME XSTACK, 33, STACK
        LOCFRAME IOVERLAY, 0, STATIC
        LOCFRAME DOVERLAY, 0, STATIC
        ARGFRAME ISTACK, 0, STACK
        ARGFRAME PSTACK, 0, STACK
        ARGFRAME XSTACK, 33, STACK
        ARGFRAME IOVERLAY, 0, STATIC
        ARGFRAME DOVERLAY, 0, STATIC
        FUNCALL SampleApp_MessageMSGCB, HalUARTWrite
        LOCFRAME ISTACK, 0, STACK
        LOCFRAME PSTACK, 0, STACK
        LOCFRAME XSTACK, 33, STACK
        LOCFRAME IOVERLAY, 0, STATIC
        LOCFRAME DOVERLAY, 0, STATIC
        ARGFRAME ISTACK, 0, STACK
        ARGFRAME PSTACK, 0, STACK
        ARGFRAME XSTACK, 33, STACK
        ARGFRAME IOVERLAY, 0, STATIC
        ARGFRAME DOVERLAY, 0, STATIC
        FUNCALL SampleApp_MessageMSGCB, HalUARTWrite
        LOCFRAME ISTACK, 0, STACK
        LOCFRAME PSTACK, 0, STACK
        LOCFRAME XSTACK, 33, STACK
        LOCFRAME IOVERLAY, 0, STATIC
        LOCFRAME DOVERLAY, 0, STATIC
        ARGFRAME ISTACK, 0, STACK
        ARGFRAME PSTACK, 0, STACK
        ARGFRAME XSTACK, 33, STACK
        ARGFRAME IOVERLAY, 0, STATIC
        ARGFRAME DOVERLAY, 0, STATIC
        FUNCALL SampleApp_MessageMSGCB, Show_Num
        LOCFRAME ISTACK, 0, STACK
        LOCFRAME PSTACK, 0, STACK
        LOCFRAME XSTACK, 33, STACK
        LOCFRAME IOVERLAY, 0, STATIC
        LOCFRAME DOVERLAY, 0, STATIC
        ARGFRAME ISTACK, 0, STACK
        ARGFRAME PSTACK, 0, STACK
        ARGFRAME XSTACK, 33, STACK
        ARGFRAME IOVERLAY, 0, STATIC
        ARGFRAME DOVERLAY, 0, STATIC
        FUNCALL SampleApp_MessageMSGCB, HalUARTWrite
        LOCFRAME ISTACK, 0, STACK
        LOCFRAME PSTACK, 0, STACK
        LOCFRAME XSTACK, 33, STACK
        LOCFRAME IOVERLAY, 0, STATIC
        LOCFRAME DOVERLAY, 0, STATIC
        ARGFRAME ISTACK, 0, STACK
        ARGFRAME PSTACK, 0, STACK
        ARGFRAME XSTACK, 33, STACK
        ARGFRAME IOVERLAY, 0, STATIC
        ARGFRAME DOVERLAY, 0, STATIC
        FUNCALL SampleApp_MessageMSGCB, HalLedBlink
        LOCFRAME ISTACK, 0, STACK
        LOCFRAME PSTACK, 0, STACK
        LOCFRAME XSTACK, 33, STACK
        LOCFRAME IOVERLAY, 0, STATIC
        LOCFRAME DOVERLAY, 0, STATIC
        ARGFRAME ISTACK, 0, STACK
        ARGFRAME PSTACK, 0, STACK
        ARGFRAME XSTACK, 33, STACK
        ARGFRAME IOVERLAY, 0, STATIC
        ARGFRAME DOVERLAY, 0, STATIC
        FUNCALL SampleApp_MessageMSGCB, Reset_down_neighbor
        LOCFRAME ISTACK, 0, STACK
        LOCFRAME PSTACK, 0, STACK
        LOCFRAME XSTACK, 33, STACK
        LOCFRAME IOVERLAY, 0, STATIC
        LOCFRAME DOVERLAY, 0, STATIC
        ARGFRAME ISTACK, 0, STACK
        ARGFRAME PSTACK, 0, STACK
        ARGFRAME XSTACK, 33, STACK
        ARGFRAME IOVERLAY, 0, STATIC
        ARGFRAME DOVERLAY, 0, STATIC
        FUNCALL SampleApp_MessageMSGCB, HalUARTWrite
        LOCFRAME ISTACK, 0, STACK
        LOCFRAME PSTACK, 0, STACK
        LOCFRAME XSTACK, 33, STACK
        LOCFRAME IOVERLAY, 0, STATIC
        LOCFRAME DOVERLAY, 0, STATIC
        ARGFRAME ISTACK, 0, STACK
        ARGFRAME PSTACK, 0, STACK
        ARGFRAME XSTACK, 33, STACK
        ARGFRAME IOVERLAY, 0, STATIC
        ARGFRAME DOVERLAY, 0, STATIC
        FUNCALL SampleApp_MessageMSGCB, HalUARTWrite
        LOCFRAME ISTACK, 0, STACK
        LOCFRAME PSTACK, 0, STACK
        LOCFRAME XSTACK, 33, STACK
        LOCFRAME IOVERLAY, 0, STATIC
        LOCFRAME DOVERLAY, 0, STATIC
        ARGFRAME ISTACK, 0, STACK
        ARGFRAME PSTACK, 0, STACK
        ARGFRAME XSTACK, 33, STACK
        ARGFRAME IOVERLAY, 0, STATIC
        ARGFRAME DOVERLAY, 0, STATIC
        FUNCALL SampleApp_MessageMSGCB, HalUARTWrite
        LOCFRAME ISTACK, 0, STACK
        LOCFRAME PSTACK, 0, STACK
        LOCFRAME XSTACK, 33, STACK
        LOCFRAME IOVERLAY, 0, STATIC
        LOCFRAME DOVERLAY, 0, STATIC
        ARGFRAME ISTACK, 0, STACK
        ARGFRAME PSTACK, 0, STACK
        ARGFRAME XSTACK, 33, STACK
        ARGFRAME IOVERLAY, 0, STATIC
        ARGFRAME DOVERLAY, 0, STATIC
        FUNCALL SampleApp_MessageMSGCB, HalUARTWrite
        LOCFRAME ISTACK, 0, STACK
        LOCFRAME PSTACK, 0, STACK
        LOCFRAME XSTACK, 33, STACK
        LOCFRAME IOVERLAY, 0, STATIC
        LOCFRAME DOVERLAY, 0, STATIC
        ARGFRAME ISTACK, 0, STACK
        ARGFRAME PSTACK, 0, STACK
        ARGFRAME XSTACK, 33, STACK
        ARGFRAME IOVERLAY, 0, STATIC
        ARGFRAME DOVERLAY, 0, STATIC
        FUNCALL SampleApp_MessageMSGCB, HalUARTWrite
        LOCFRAME ISTACK, 0, STACK
        LOCFRAME PSTACK, 0, STACK
        LOCFRAME XSTACK, 33, STACK
        LOCFRAME IOVERLAY, 0, STATIC
        LOCFRAME DOVERLAY, 0, STATIC
        ARGFRAME ISTACK, 0, STACK
        ARGFRAME PSTACK, 0, STACK
        ARGFRAME XSTACK, 33, STACK
        ARGFRAME IOVERLAY, 0, STATIC
        ARGFRAME DOVERLAY, 0, STATIC
        FUNCALL SampleApp_MessageMSGCB, HalUARTWrite
        LOCFRAME ISTACK, 0, STACK
        LOCFRAME PSTACK, 0, STACK
        LOCFRAME XSTACK, 33, STACK
        LOCFRAME IOVERLAY, 0, STATIC
        LOCFRAME DOVERLAY, 0, STATIC
        ARGFRAME ISTACK, 0, STACK
        ARGFRAME PSTACK, 0, STACK
        ARGFRAME XSTACK, 33, STACK
        ARGFRAME IOVERLAY, 0, STATIC
        ARGFRAME DOVERLAY, 0, STATIC
        FUNCALL SampleApp_MessageMSGCB, HalUARTWrite
        LOCFRAME ISTACK, 0, STACK
        LOCFRAME PSTACK, 0, STACK
        LOCFRAME XSTACK, 33, STACK
        LOCFRAME IOVERLAY, 0, STATIC
        LOCFRAME DOVERLAY, 0, STATIC
        ARGFRAME ISTACK, 0, STACK
        ARGFRAME PSTACK, 0, STACK
        ARGFRAME XSTACK, 33, STACK
        ARGFRAME IOVERLAY, 0, STATIC
        ARGFRAME DOVERLAY, 0, STATIC
        FUNCALL SampleApp_MessageMSGCB, HalUARTWrite
        LOCFRAME ISTACK, 0, STACK
        LOCFRAME PSTACK, 0, STACK
        LOCFRAME XSTACK, 33, STACK
        LOCFRAME IOVERLAY, 0, STATIC
        LOCFRAME DOVERLAY, 0, STATIC
        ARGFRAME ISTACK, 0, STACK
        ARGFRAME PSTACK, 0, STACK
        ARGFRAME XSTACK, 33, STACK
        ARGFRAME IOVERLAY, 0, STATIC
        ARGFRAME DOVERLAY, 0, STATIC
        FUNCALL SampleApp_MessageMSGCB, HalUARTWrite
        LOCFRAME ISTACK, 0, STACK
        LOCFRAME PSTACK, 0, STACK
        LOCFRAME XSTACK, 33, STACK
        LOCFRAME IOVERLAY, 0, STATIC
        LOCFRAME DOVERLAY, 0, STATIC
        ARGFRAME ISTACK, 0, STACK
        ARGFRAME PSTACK, 0, STACK
        ARGFRAME XSTACK, 33, STACK
        ARGFRAME IOVERLAY, 0, STATIC
        ARGFRAME DOVERLAY, 0, STATIC
        FUNCALL SampleApp_MessageMSGCB, HalUARTWrite
        LOCFRAME ISTACK, 0, STACK
        LOCFRAME PSTACK, 0, STACK
        LOCFRAME XSTACK, 33, STACK
        LOCFRAME IOVERLAY, 0, STATIC
        LOCFRAME DOVERLAY, 0, STATIC
        ARGFRAME ISTACK, 0, STACK
        ARGFRAME PSTACK, 0, STACK
        ARGFRAME XSTACK, 33, STACK
        ARGFRAME IOVERLAY, 0, STATIC
        ARGFRAME DOVERLAY, 0, STATIC
        FUNCALL SampleApp_MessageMSGCB, HalUARTWrite
        LOCFRAME ISTACK, 0, STACK
        LOCFRAME PSTACK, 0, STACK
        LOCFRAME XSTACK, 33, STACK
        LOCFRAME IOVERLAY, 0, STATIC
        LOCFRAME DOVERLAY, 0, STATIC
        ARGFRAME ISTACK, 0, STACK
        ARGFRAME PSTACK, 0, STACK
        ARGFRAME XSTACK, 33, STACK
        ARGFRAME IOVERLAY, 0, STATIC
        ARGFRAME DOVERLAY, 0, STATIC
        FUNCALL SampleApp_MessageMSGCB, HalUARTWrite
        LOCFRAME ISTACK, 0, STACK
        LOCFRAME PSTACK, 0, STACK
        LOCFRAME XSTACK, 33, STACK
        LOCFRAME IOVERLAY, 0, STATIC
        LOCFRAME DOVERLAY, 0, STATIC
        ARGFRAME ISTACK, 0, STACK
        ARGFRAME PSTACK, 0, STACK
        ARGFRAME XSTACK, 33, STACK
        ARGFRAME IOVERLAY, 0, STATIC
        ARGFRAME DOVERLAY, 0, STATIC
        FUNCALL SampleApp_MessageMSGCB, HalUARTWrite
        LOCFRAME ISTACK, 0, STACK
        LOCFRAME PSTACK, 0, STACK
        LOCFRAME XSTACK, 33, STACK
        LOCFRAME IOVERLAY, 0, STATIC
        LOCFRAME DOVERLAY, 0, STATIC
        ARGFRAME ISTACK, 0, STACK
        ARGFRAME PSTACK, 0, STACK
        ARGFRAME XSTACK, 33, STACK
        ARGFRAME IOVERLAY, 0, STATIC
        ARGFRAME DOVERLAY, 0, STATIC
        FUNCALL SampleApp_MessageMSGCB, HalUARTWrite
        LOCFRAME ISTACK, 0, STACK
        LOCFRAME PSTACK, 0, STACK
        LOCFRAME XSTACK, 33, STACK
        LOCFRAME IOVERLAY, 0, STATIC
        LOCFRAME DOVERLAY, 0, STATIC
        ARGFRAME ISTACK, 0, STACK
        ARGFRAME PSTACK, 0, STACK
        ARGFRAME XSTACK, 33, STACK
        ARGFRAME IOVERLAY, 0, STATIC
        ARGFRAME DOVERLAY, 0, STATIC
        FUNCALL SampleApp_MessageMSGCB, HalUARTWrite
        LOCFRAME ISTACK, 0, STACK
        LOCFRAME PSTACK, 0, STACK
        LOCFRAME XSTACK, 33, STACK
        LOCFRAME IOVERLAY, 0, STATIC
        LOCFRAME DOVERLAY, 0, STATIC
        ARGFRAME ISTACK, 0, STACK
        ARGFRAME PSTACK, 0, STACK
        ARGFRAME XSTACK, 33, STACK
        ARGFRAME IOVERLAY, 0, STATIC
        ARGFRAME DOVERLAY, 0, STATIC
        FUNCALL SampleApp_MessageMSGCB, HalUARTWrite
        LOCFRAME ISTACK, 0, STACK
        LOCFRAME PSTACK, 0, STACK
        LOCFRAME XSTACK, 33, STACK
        LOCFRAME IOVERLAY, 0, STATIC
        LOCFRAME DOVERLAY, 0, STATIC
        ARGFRAME ISTACK, 0, STACK
        ARGFRAME PSTACK, 0, STACK
        ARGFRAME XSTACK, 33, STACK
        ARGFRAME IOVERLAY, 0, STATIC
        ARGFRAME DOVERLAY, 0, STATIC
        FUNCALL SampleApp_MessageMSGCB, HalUARTWrite
        LOCFRAME ISTACK, 0, STACK
        LOCFRAME PSTACK, 0, STACK
        LOCFRAME XSTACK, 33, STACK
        LOCFRAME IOVERLAY, 0, STATIC
        LOCFRAME DOVERLAY, 0, STATIC
        ARGFRAME ISTACK, 0, STACK
        ARGFRAME PSTACK, 0, STACK
        ARGFRAME XSTACK, 33, STACK
        ARGFRAME IOVERLAY, 0, STATIC
        ARGFRAME DOVERLAY, 0, STATIC
        FUNCALL SampleApp_MessageMSGCB, HalUARTWrite
        LOCFRAME ISTACK, 0, STACK
        LOCFRAME PSTACK, 0, STACK
        LOCFRAME XSTACK, 33, STACK
        LOCFRAME IOVERLAY, 0, STATIC
        LOCFRAME DOVERLAY, 0, STATIC
        ARGFRAME ISTACK, 0, STACK
        ARGFRAME PSTACK, 0, STACK
        ARGFRAME XSTACK, 33, STACK
        ARGFRAME IOVERLAY, 0, STATIC
        ARGFRAME DOVERLAY, 0, STATIC
        FUNCALL SampleApp_MessageMSGCB, HalUARTWrite
        LOCFRAME ISTACK, 0, STACK
        LOCFRAME PSTACK, 0, STACK
        LOCFRAME XSTACK, 33, STACK
        LOCFRAME IOVERLAY, 0, STATIC
        LOCFRAME DOVERLAY, 0, STATIC
        ARGFRAME ISTACK, 0, STACK
        ARGFRAME PSTACK, 0, STACK
        ARGFRAME XSTACK, 33, STACK
        ARGFRAME IOVERLAY, 0, STATIC
        ARGFRAME DOVERLAY, 0, STATIC
        MOV     A,#-0x14
        LCALL   ?BANKED_ENTER_XDATA
        CFI DPH0 load(1, XDATA, add(CFA_XSP16, literal(-1)))
        CFI DPL0 load(1, XDATA, add(CFA_XSP16, literal(-2)))
        CFI ?BRET_EXT load(1, XDATA, add(CFA_XSP16, literal(-3)))
        CFI ?RET_HIGH load(1, XDATA, add(CFA_XSP16, literal(-4)))
        CFI ?RET_LOW load(1, XDATA, add(CFA_XSP16, literal(-5)))
        CFI R7 load(1, XDATA, add(CFA_XSP16, literal(-6)))
        CFI V11 load(1, XDATA, add(CFA_XSP16, literal(-7)))
        CFI V10 load(1, XDATA, add(CFA_XSP16, literal(-8)))
        CFI V9 load(1, XDATA, add(CFA_XSP16, literal(-9)))
        CFI V8 load(1, XDATA, add(CFA_XSP16, literal(-10)))
        CFI V7 load(1, XDATA, add(CFA_XSP16, literal(-11)))
        CFI V6 load(1, XDATA, add(CFA_XSP16, literal(-12)))
        CFI V5 load(1, XDATA, add(CFA_XSP16, literal(-13)))
        CFI V4 load(1, XDATA, add(CFA_XSP16, literal(-14)))
        CFI V3 load(1, XDATA, add(CFA_XSP16, literal(-15)))
        CFI V2 load(1, XDATA, add(CFA_XSP16, literal(-16)))
        CFI V1 load(1, XDATA, add(CFA_XSP16, literal(-17)))
        CFI V0 load(1, XDATA, add(CFA_XSP16, literal(-18)))
        CFI VB load(1, XDATA, add(CFA_XSP16, literal(-19)))
        CFI R6 load(1, XDATA, add(CFA_XSP16, literal(-20)))
        CFI CFA_SP SP+0
        CFI CFA_XSP16 add(XSP16, 20)
        ; Saved register size: 20
        ; Auto size: 13
        MOV     A,#-0xd
        LCALL   ?ALLOC_XSTACK8
        CFI CFA_XSP16 add(XSP16, 33)
        MOV     A,R2
        MOV     R6,A
        MOV     A,R3
        MOV     R7,A
//  866   uint16 flashTime=1000;//一秒,1000ms
//  867   uint8 i,len; //透传
//  868   unsigned short neighbor_addr_10 = pkt->srcAddr.addr.shortAddr;  //发送方的数字地址
        MOV     DPL,R6
        MOV     DPH,R7
        INC     DPTR
        INC     DPTR
        INC     DPTR
        INC     DPTR
        INC     DPTR
        INC     DPTR
        MOVX    A,@DPTR
        MOV     ?V0 + 2,A
        INC     DPTR
        MOVX    A,@DPTR
        MOV     ?V0 + 3,A
//  869 //  unsigned char ADDR[4]; //数字地址转换后的字符地址
//  870   int8 LOST_nei = 0;
        MOV     ?V0 + 0,#0x0
//  871   uchar active;
//  872   
//  873   uchar BUSY[4] = "####";
        MOV     A,#0x9
        LCALL   ?XSTACK_DISP0_8
        MOV     R4,DPL
        MOV     R5,DPH
        MOV     DPH,#(`?<Constant "####">` >> 8) & 0xff
        MOV     DPL,#`?<Constant "####">` & 0xff
        MOV     A,#0x4
        LCALL   ?MOVE_LONG8_XDATA_XDATA
//  874   uint8 Peer_data; //对方数据
//  875   int16 Peer_info; //对方码字信息
//  876   uint8 Self_data; //己方数据
//  877   int16 Self_info; //己方码字信息
//  878   int8 degree_low; //码字信息低位
//  879   int8 degree_high;//码字信息高位
//  880   uint16 Source_info = Power_of_2(Device_ID);
        ; Setup parameters for call to function Power_of_2
        LCALL   ?Subroutine34 & 0xFFFF
??CrossCallReturnLabel_59:
        MOV     ?V0 + 6,R2
        MOV     ?V0 + 7,R3
//  881   switch ( pkt->clusterId )
        MOV     DPL,R6
        MOV     DPH,R7
        INC     DPTR
        INC     DPTR
        INC     DPTR
        INC     DPTR
        MOVX    A,@DPTR
        MOV     ?V0 + 4,A
        INC     DPTR
        MOVX    A,@DPTR
        MOV     ?V0 + 5,A
        MOV     R0,#?V0 + 4
        LCALL   ?US_SWITCH_DENSE
`?<Jumptable for SampleApp_MessageMSGCB>_0`:
        DATA
        DATA16
        DATA
        DATA16
        DW        2
        DATA
        DATA8
        DATA
        DATA8
        DB        2
        DATA
        DATA16
        DATA
        DATA16
        DW        ??SampleApp_MessageMSGCB_0
        DATA
        DATA16
        DATA
        DATA16
        DW        ??SampleApp_MessageMSGCB_1
        DATA
        DATA16
        DATA
        DATA16
        DW        ??SampleApp_MessageMSGCB_2
        DATA
        DATA16
        DATA
        DATA16
        DW        ??SampleApp_MessageMSGCB_3
        CODE
//  882   {
//  883     
//  884     /*************************收到 点对点 消息********************************/
//  885   case SAMPLEAPP_POINT_TO_POINT_CLUSTERID:
//  886     
//  887     /*收到重置信号*/
//  888     if(pkt->cmd.Data[0] == '!')
??SampleApp_MessageMSGCB_3:
        LCALL   ?Subroutine9 & 0xFFFF
??CrossCallReturnLabel_15:
        XRL     A,#0x21
        JNZ     ??SampleApp_MessageMSGCB_4
//  889     {
//  890       HalUARTWrite(0,"重置中...",strlen("重置中..."));
        ; Setup parameters for call to function HalUARTWrite
        MOV     R4,#0x9
        MOV     R5,#0x0
        MOV     R2,#`?<Constant "\\326\\330\\326\\303\\326\\320...">` & 0xff
        MOV     R3,#(`?<Constant "\\326\\330\\326\\303\\326\\320...">` >> 8) & 0xff
        MOV     R1,#0x0
        LCALL   ??HalUARTWrite?relay
//  891       SystemResetSoft();
        ; Setup parameters for call to function Onboard_soft_reset
        LCALL   Onboard_soft_reset & 0xFFFF
        LJMP    ??SampleApp_MessageMSGCB_0 & 0xFFFF
//  892     }
//  893     
//  894     /*收到指定为代理节点消息*/
//  895     else if ((pkt->cmd.Data[0] == '@') && (pkt->cmd.Data[1] == '@') && (pkt->cmd.Data[2] == '@') && (pkt->cmd.Data[3] == '@'))
??SampleApp_MessageMSGCB_4:
        LCALL   ?Subroutine10 & 0xFFFF
??CrossCallReturnLabel_19:
        XRL     A,#0x40
        JZ      $+5
        LJMP    ??SampleApp_MessageMSGCB_5 & 0xFFFF
        LCALL   ?Subroutine5 & 0xFFFF
??CrossCallReturnLabel_8:
        XRL     A,#0x40
        JZ      $+5
        LJMP    ??SampleApp_MessageMSGCB_5 & 0xFFFF
        LCALL   ?Subroutine4 & 0xFFFF
??CrossCallReturnLabel_5:
        XRL     A,#0x40
        JNZ     ??SampleApp_MessageMSGCB_5
        LCALL   ?Subroutine3 & 0xFFFF
??CrossCallReturnLabel_2:
        XRL     A,#0x40
        JNZ     ??SampleApp_MessageMSGCB_5
//  896     {
//  897       Is_AgentNode = TRUE; //设置为是代理节点
        MOV     DPTR,#Is_AgentNode
        MOV     A,#0x1
        MOVX    @DPTR,A
        INC     DPTR
        CLR     A
        MOVX    @DPTR,A
//  898       
//  899       /*回复Sink节点已经设置自身为代理节点*/
//  900       uint8 set_Agent_succeed[] = {'%', '%', '%', '%'};  //发送给sink节点的数据,用 '+' 标识
        MOV     A,#0x5
        LCALL   ?XSTACK_DISP0_8
        MOV     R4,DPL
        MOV     R5,DPH
        MOV     DPH,#(`?<Constant {37, 37, 37, 37}>` >> 8) & 0xff
        MOV     DPL,#`?<Constant {37, 37, 37, 37}>` & 0xff
        MOV     A,#0x4
        LCALL   ?MOVE_LONG8_XDATA_XDATA
//  901       
//  902       /*给Sink节点发送数据*/
//  903       Point_To_Point_DstAddr.addr.shortAddr = (int16)0;
        MOV     DPTR,#Point_To_Point_DstAddr
        LCALL   ?Subroutine25 & 0xFFFF
//  904       if ( AF_DataRequest( &Point_To_Point_DstAddr, //点对点通信方式目标地址
//  905                           &SampleApp_epDesc,
//  906                           SAMPLEAPP_POINT_TO_POINT_CLUSTERID, //点对点簇ID
//  907                           4,
//  908                           set_Agent_succeed,
//  909                           &SampleApp_TransID,
//  910                           AF_DISCV_ROUTE,
//  911                           AF_DEFAULT_RADIUS ) == afStatus_SUCCESS )
??CrossCallReturnLabel_139:
        LCALL   ?PUSH_XSTACK_I_ONE
        CFI CFA_XSP16 add(XSP16, 34)
        MOV     ?V0 + 0,#SampleApp_TransID & 0xff
        MOV     ?V0 + 1,#(SampleApp_TransID >> 8) & 0xff
        MOV     R0,#?V0 + 0
        LCALL   ?PUSH_XSTACK_I_TWO
        CFI CFA_XSP16 add(XSP16, 36)
        MOV     A,#0x8
        LCALL   ?XSTACK_DISP0_8
        MOV     ?V0 + 0,DPL
        MOV     ?V0 + 1,DPH
        MOV     R0,#?V0 + 0
        LCALL   ?PUSH_XSTACK_I_TWO
        CFI CFA_XSP16 add(XSP16, 38)
        MOV     ?V0 + 0,#0x4
        MOV     ?V0 + 1,#0x0
        MOV     R0,#?V0 + 0
        LCALL   ?PUSH_XSTACK_I_TWO
        CFI CFA_XSP16 add(XSP16, 40)
        MOV     R0,#?V0 + 0
        LCALL   ?PUSH_XSTACK_I_TWO
        CFI CFA_XSP16 add(XSP16, 42)
        LCALL   ?Subroutine36 & 0xFFFF
??CrossCallReturnLabel_107:
        LCALL   ?DEALLOC_XSTACK8
        CFI CFA_XSP16 add(XSP16, 33)
        MOV     A,R1
        JNZ     ??SampleApp_MessageMSGCB_6
//  912       {
//  913         HalLedBlink( HAL_LED_3, 4, 60, (flashTime / 4) ); //led3闪
        ; Setup parameters for call to function HalLedBlink
        MOV     R4,#-0x6
        MOV     R5,#0x0
        MOV     R3,#0x3c
        MOV     R2,#0x4
??SampleApp_MessageMSGCB_7:
        MOV     R1,#0x4
??SampleApp_MessageMSGCB_8:
        LCALL   ??HalLedBlink?relay
        LJMP    ??SampleApp_MessageMSGCB_0 & 0xFFFF
//  914       }
//  915       else
//  916       {
//  917         HalUARTWrite(0,"向Sink节点发送码字失败\n",strlen("向Sink节点发送码字失败\n"));
??SampleApp_MessageMSGCB_6:
        ; Setup parameters for call to function HalUARTWrite
        MOV     R4,#0x17
        MOV     R5,#0x0
        MOV     R2,#`?<Constant "\\317\\362Sink\\275\\332\\265\\343\\267\\2` & 0xff
        MOV     R3,#(`?<Constant "\\317\\362Sink\\275\\332\\265\\343\\267\\2` >> 8) & 0xff
        LJMP    ??SampleApp_MessageMSGCB_9 & 0xFFFF
//  918       }
//  919     }
//  920     /*收到交换码字信息*/
//  921     else if((pkt->cmd.Data[0] == '~') && (pkt->cmd.Data[1] == '~') && (pkt->cmd.Data[2] == '~') && (pkt->cmd.Data[3] == '~'))
??SampleApp_MessageMSGCB_5:
        LCALL   ?Subroutine10 & 0xFFFF
??CrossCallReturnLabel_20:
        XRL     A,#0x7e
        JZ      $+5
        LJMP    ??SampleApp_MessageMSGCB_10 & 0xFFFF
        LCALL   ?Subroutine5 & 0xFFFF
??CrossCallReturnLabel_9:
        XRL     A,#0x7e
        JZ      $+5
        LJMP    ??SampleApp_MessageMSGCB_10 & 0xFFFF
        LCALL   ?Subroutine4 & 0xFFFF
??CrossCallReturnLabel_6:
        XRL     A,#0x7e
        JZ      $+5
        LJMP    ??SampleApp_MessageMSGCB_10 & 0xFFFF
        LCALL   ?Subroutine3 & 0xFFFF
??CrossCallReturnLabel_3:
        XRL     A,#0x7e
        JZ      $+5
        LJMP    ??SampleApp_MessageMSGCB_10 & 0xFFFF
//  922     {
//  923       if(Is_AgentNode)
        MOV     DPTR,#Is_AgentNode
        LCALL   ?Subroutine50 & 0xFFFF
??CrossCallReturnLabel_134:
        MOV     A,R0
        ORL     A,R1
        JNZ     $+5
        LJMP    ??SampleApp_MessageMSGCB_0 & 0xFFFF
//  924           {
//  925             srand((int)osal_getClock()); //生成随机数种子
        ; Setup parameters for call to function srand
        ; Setup parameters for call to function osal_getClock
        LCALL   ?Subroutine38 & 0xFFFF
//  926             uint8 send_to_sink_index =  random(5)+1; //随机产生一个发送给sink节点的码字的序列号
??CrossCallReturnLabel_104:
        LCALL   ?S_DIV_MOD
        MOV     A,R2
        INC     A
        MOV     ?V0 + 0,A
//  927             uint8 to_sink_data = DATA_SLOT[send_to_sink_index].data; //即将发送给Sink节点的码字
        MOV     ?V0 + 1,#0x0
        MOV     A,#0x2
        MOV     R0,#?V0 + 0
        LCALL   ?S_SHL
        LCALL   ?Subroutine23 & 0xFFFF
??CrossCallReturnLabel_41:
        MOV     R6,A
        INC     DPTR
        INC     DPTR
        MOVX    A,@DPTR
        MOV     R2,A
        INC     DPTR
        MOVX    A,@DPTR
        MOV     R0,A
//  928             uint8 to_sink_degree_high = DATA_SLOT[send_to_sink_index].Degree_ID >>8; //高位码字度信息
//  929             uint8 to_sink_degree_low = (uint8)DATA_SLOT[send_to_sink_index].Degree_ID;  //低位码字度信息
        MOV     A,R2
        MOV     R1,A
//  930             uint8 to_sink_DATA[] = {'+', to_sink_data, to_sink_degree_high, to_sink_degree_low};  //发送给sink节点的数据,用 '+' 标识
        MOV     A,#0x1
        LCALL   ?XSTACK_DISP0_8
        MOV     R4,DPL
        MOV     R5,DPH
        MOV     DPH,#(`?<Constant {43, 0, 0, 0}>` >> 8) & 0xff
        MOV     DPL,#`?<Constant {43, 0, 0, 0}>` & 0xff
        MOV     A,#0x4
        LCALL   ?MOVE_LONG8_XDATA_XDATA
        MOV     A,#0x2
        LCALL   ?XSTACK_DISP0_8
        MOV     A,R6
        MOVX    @DPTR,A
        MOV     A,#0x3
        LCALL   ?XSTACK_DISP0_8
        MOV     A,R0
        MOVX    @DPTR,A
        MOV     A,#0x4
        LCALL   ?XSTACK_DISP0_8
        MOV     A,R1
        MOVX    @DPTR,A
//  931             
//  932             /*给Sink节点发送数据*/
//  933             Point_To_Point_DstAddr.addr.shortAddr = (int16)0;
        MOV     DPTR,#Point_To_Point_DstAddr
        CLR     A
        LCALL   ?Subroutine25 & 0xFFFF
//  934             if ( AF_DataRequest( &Point_To_Point_DstAddr, //点对点通信方式目标地址
//  935                                 &SampleApp_epDesc,
//  936                                 SAMPLEAPP_POINT_TO_POINT_CLUSTERID, //点对点簇ID
//  937                                 4,
//  938                                 to_sink_DATA,
//  939                                 &SampleApp_TransID,
//  940                                 AF_DISCV_ROUTE,
//  941                                 AF_DEFAULT_RADIUS ) == afStatus_SUCCESS )
??CrossCallReturnLabel_140:
        LCALL   ?PUSH_XSTACK_I_ONE
        CFI CFA_XSP16 add(XSP16, 34)
        MOV     ?V0 + 0,#SampleApp_TransID & 0xff
        MOV     ?V0 + 1,#(SampleApp_TransID >> 8) & 0xff
        MOV     R0,#?V0 + 0
        LCALL   ?PUSH_XSTACK_I_TWO
        CFI CFA_XSP16 add(XSP16, 36)
        MOV     A,#0x4
        LCALL   ?XSTACK_DISP0_8
        MOV     ?V0 + 0,DPL
        MOV     ?V0 + 1,DPH
        MOV     R0,#?V0 + 0
        LCALL   ?PUSH_XSTACK_I_TWO
        CFI CFA_XSP16 add(XSP16, 38)
        MOV     ?V0 + 0,#0x4
        MOV     ?V0 + 1,#0x0
        MOV     R0,#?V0 + 0
        LCALL   ?PUSH_XSTACK_I_TWO
        CFI CFA_XSP16 add(XSP16, 40)
        MOV     R0,#?V0 + 0
        LCALL   ?PUSH_XSTACK_I_TWO
        CFI CFA_XSP16 add(XSP16, 42)
        LCALL   ?Subroutine36 & 0xFFFF
??CrossCallReturnLabel_108:
        LCALL   ?DEALLOC_XSTACK8
        CFI CFA_XSP16 add(XSP16, 33)
        MOV     A,R1
        JZ      $+5
        LJMP    ??SampleApp_MessageMSGCB_6 & 0xFFFF
//  942             {
//  943               HalLedBlink( HAL_LED_3, 2, 60, (flashTime / 2) ); //led3闪
        ; Setup parameters for call to function HalLedBlink
        MOV     R4,#-0xc
        MOV     R5,#0x1
        MOV     R3,#0x3c
        MOV     R2,#0x2
        LJMP    ??SampleApp_MessageMSGCB_7 & 0xFFFF
//  944             }
//  945             else
//  946             {
//  947               HalUARTWrite(0,"向Sink节点发送码字失败\n",strlen("向Sink节点发送码字失败\n"));
//  948             }
//  949           }
//  950     }
//  951     else
//  952     {
//  953       HalUARTWrite(0, "received  ", 10);  //给串口发送提示
??SampleApp_MessageMSGCB_10:
        ; Setup parameters for call to function HalUARTWrite
        MOV     R4,#0xa
        MOV     R5,#0x0
        MOV     R2,#`?<Constant "received  ">` & 0xff
        MOV     R3,#(`?<Constant "received  ">` >> 8) & 0xff
        LCALL   ?Subroutine21 & 0xFFFF
//  954       HalUARTWrite(0, &pkt->cmd.Data[0], 1); // 打印收到数据
??CrossCallReturnLabel_37:
        MOV     ?V0 + 1,A
        ; Setup parameters for call to function HalUARTWrite
        MOV     R4,#0x1
        MOV     R5,#0x0
        MOV     DPL,?V0 + 0
        MOV     DPH,A
        LCALL   ??Subroutine67_0 & 0xFFFF
??CrossCallReturnLabel_120:
        LCALL   ?Subroutine16 & 0xFFFF
//  955       
//  956       Show_Bit(pkt->cmd.Data[1],8);
??CrossCallReturnLabel_31:
        LCALL   ?Subroutine30 & 0xFFFF
//  957       HalUARTWrite(0," ",1);
??CrossCallReturnLabel_53:
        LCALL   ?Subroutine16 & 0xFFFF
//  958       //    Show_Bit(pkt->cmd.Data[2],8);    //打印高8位码字编码信息
//  959       //    HalUARTWrite(0," ",1);
//  960       Show_Bit(pkt->cmd.Data[3],8);
??CrossCallReturnLabel_32:
        INC     DPTR
        INC     DPTR
        MOVX    A,@DPTR
        MOV     R2,A
        MOV     R3,#0x0
        LCALL   ?Subroutine39 & 0xFFFF
//  961       //    sprintf((char*)ADDR, "%X", neighbor_addr_10);
//  962       //    HalUARTWrite(0," from ",6);
//  963       //    HalUARTWrite(0,ADDR,4);
//  964       HalUARTWrite(0, "\n", 1); // 回车换行
//  965       
//  966       /*如果在自身已经发起交换请求的情况下,收到对方发来的交换数据包响应*/
//  967       if(Waiting_Request && (neighbor_addr_10 == Exchanging_Neighbor)) 
??CrossCallReturnLabel_65:
        MOV     DPTR,#Waiting_Request
        MOVX    A,@DPTR
        JNZ     $+5
        LJMP    ??SampleApp_MessageMSGCB_0 & 0xFFFF
        MOV     DPTR,#Exchanging_Neighbor
        MOVX    A,@DPTR
        XRL     A,?V0 + 2
        JNZ     ??SampleApp_MessageMSGCB_11
        INC     DPTR
        MOVX    A,@DPTR
        XRL     A,?V0 + 3
??SampleApp_MessageMSGCB_11:
        JZ      $+5
        LJMP    ??SampleApp_MessageMSGCB_0 & 0xFFFF
//  968       {
//  969         /*对方正忙*/
//  970         if(pkt->cmd.Data[0] == '#' && pkt->cmd.Data[1] == '#' && pkt->cmd.Data[2] == '#' && pkt->cmd.Data[3] == '#')
        LCALL   ?Subroutine9 & 0xFFFF
??CrossCallReturnLabel_16:
        XRL     A,#0x23
        JNZ     ??CrossCallReturnLabel_35
        LCALL   ?Subroutine5 & 0xFFFF
??CrossCallReturnLabel_10:
        XRL     A,#0x23
        JNZ     ??CrossCallReturnLabel_35
        LCALL   ?Subroutine4 & 0xFFFF
??CrossCallReturnLabel_7:
        XRL     A,#0x23
        JNZ     ??CrossCallReturnLabel_35
        LCALL   ?Subroutine3 & 0xFFFF
??CrossCallReturnLabel_4:
        XRL     A,#0x23
        JNZ     ??CrossCallReturnLabel_35
//  971         {
//  972           Waiting_Request = FALSE;
        MOV     DPTR,#Waiting_Request
        CLR     A
        MOVX    @DPTR,A
//  973           HalUARTWrite(0,"peer is busy",12);
        ; Setup parameters for call to function HalUARTWrite
        MOV     R4,#0xc
        MOV     R5,A
        MOV     R2,#`?<Constant "peer is busy">` & 0xff
        MOV     R3,#(`?<Constant "peer is busy">` >> 8) & 0xff
        MOV     R1,A
        LCALL   ?Subroutine18 & 0xFFFF
//  974           HalUARTWrite(0,"\n",1);
//  975           //        SampleApp_SendPointToPointMessage(); //再次发起交换请求
//  976         }
//  977         /*对方正常响应*/
//  978         if(!Exchange_Lock && (pkt->cmd.Data[0] == '$'))
??CrossCallReturnLabel_35:
        MOV     DPTR,#Exchange_Lock
        MOVX    A,@DPTR
        JZ      $+5
        LJMP    ??SampleApp_MessageMSGCB_12 & 0xFFFF
        LCALL   ?Subroutine9 & 0xFFFF
??CrossCallReturnLabel_17:
        XRL     A,#0x24
        JZ      $+5
        LJMP    ??SampleApp_MessageMSGCB_12 & 0xFFFF
//  979         {
//  980           Exchange_Lock = TRUE; //开启码字槽的锁
        MOV     DPTR,#Exchange_Lock
        MOV     A,#0x1
        MOVX    @DPTR,A
//  981           
//  982           Peer_data = pkt->cmd.Data[1]; //对方发来的数据
        MOV     DPL,?V0 + 0
        MOV     DPH,?V0 + 1
        LCALL   ?Subroutine27 & 0xFFFF
//  983           Peer_info = pkt->cmd.Data[3]; 
//  984           Peer_info |= pkt->cmd.Data[2]*256; //对方码字信息
//  985           //查看发来的数据包的度
//  986           uint8 Peer_degree = 0;
//  987           uint8 Self_included = FALSE;
//  988           for(short k=0;k<16;++k)
//  989           {
//  990             if(Power_of_2(k) & Peer_info)
??CrossCallReturnLabel_48:
        ; Setup parameters for call to function Power_of_2
        LCALL   ?Subroutine37 & 0xFFFF
??CrossCallReturnLabel_62:
        JZ      ??SampleApp_MessageMSGCB_13
//  991             {
//  992               ++Peer_degree;
        INC     ?V0 + 4
//  993               if(k == Device_ID)
        MOV     DPTR,#Device_ID
        MOVX    A,@DPTR
        XRL     A,?V0 + 0
        JNZ     ??SampleApp_MessageMSGCB_14
        MOV     A,?V0 + 1
??SampleApp_MessageMSGCB_14:
        JNZ     ??SampleApp_MessageMSGCB_13
//  994               {
//  995                 Self_included = TRUE; //码字包含自身的节点数据包
        MOV     ?V0 + 2,#0x1
//  996                 HalUARTWrite(0,"包含自身信息",12);
        ; Setup parameters for call to function HalUARTWrite
        MOV     R4,#0xc
        MOV     R5,#0x0
        MOV     R2,#`?<Constant "\\260\\374\\272\\254\\327\\324\\311\\355\\3` & 0xff
        MOV     R3,#(`?<Constant "\\260\\374\\272\\254\\327\\324\\311\\355\\3` >> 8) & 0xff
        MOV     R1,#0x0
        LCALL   ??HalUARTWrite?relay
//  997               }
//  998               
//  999             }
// 1000           }
??SampleApp_MessageMSGCB_13:
        LCALL   ?Subroutine6 & 0xFFFF
??CrossCallReturnLabel_11:
        JC      ??CrossCallReturnLabel_48
// 1001           if(Peer_degree>=MAX_Degree)
        LCALL   ?Subroutine28 & 0xFFFF
??CrossCallReturnLabel_132:
        JC      ??SampleApp_MessageMSGCB_15
// 1002           {
// 1003             if(Self_included)
        MOV     A,?V0 + 2
        MOV     C,0xE0 /* A   */.0
        JNC     ??SampleApp_MessageMSGCB_16
// 1004               HalUARTWrite(0,"且",2);
        ; Setup parameters for call to function HalUARTWrite
        MOV     R4,#0x2
        MOV     R5,#0x0
        MOV     R2,#`?<Constant "\\307\\322">` & 0xff
        MOV     R3,#(`?<Constant "\\307\\322">` >> 8) & 0xff
        MOV     R1,#0x0
        LCALL   ??HalUARTWrite?relay
// 1005             HalUARTWrite(0,"已达最大度,",11);
??SampleApp_MessageMSGCB_16:
        ; Setup parameters for call to function HalUARTWrite
        MOV     R4,#0xb
        MOV     R5,#0x0
        MOV     R2,#`?<Constant "\\322\\321\\264\\357\\327\\356\\264\\363\\2` & 0xff
        MOV     R3,#(`?<Constant "\\322\\321\\264\\357\\327\\356\\264\\363\\2` >> 8) & 0xff
        SJMP    ??SampleApp_MessageMSGCB_17
// 1006           }
// 1007           else
// 1008           {
// 1009             HalUARTWrite(0,",",1);
??SampleApp_MessageMSGCB_15:
        ; Setup parameters for call to function HalUARTWrite
        MOV     R4,#0x1
        MOV     R5,#0x0
        MOV     R2,#`?<Constant ",">` & 0xff
        MOV     R3,#(`?<Constant ",">` >> 8) & 0xff
??SampleApp_MessageMSGCB_17:
        MOV     R1,#0x0
        LCALL   ??HalUARTWrite?relay
// 1010           }
// 1011           //判断是否符合编码条件,不包含自身的数据包,且度不大于最大允许的度
// 1012           if( !Self_included && (Peer_degree < MAX_Degree) )
        MOV     A,?V0 + 2
        MOV     C,0xE0 /* A   */.0
        JC      ??SampleApp_MessageMSGCB_18
        LCALL   ??Subroutine69_0 & 0xFFFF
??CrossCallReturnLabel_130:
        JNC     ??SampleApp_MessageMSGCB_18
// 1013           {
// 1014             HalUARTWrite(0,"encoding...\n^^",14);
        ; Setup parameters for call to function HalUARTWrite
        LCALL   ?Subroutine13 & 0xFFFF
// 1015             //          Show_Bit(Peer_data,8);          //对方数据
// 1016             //          HalUARTWrite(0,"\n^^",3);
// 1017             //          Show_Bit(DATA_SLOT[0].data,8);  //自身数据
// 1018             //          
// 1019             //          HalUARTWrite(0,"\n->",3);
// 1020             //          Peer_data ^= DATA_SLOT[0].data; //异或编码
// 1021             //          
// 1022             //          Show_Bit(Peer_data, 8);         //编码后数据
// 1023             
// 1024             HalUARTWrite(0,"\n||",3);
// 1025             Show_Bit(Peer_info,8);
// 1026             HalUARTWrite(0," ",1);
// 1027             Show_Num(Peer_info);          //对方码字信息
// 1028             
// 1029             HalUARTWrite(0,"\n||",3);
// 1030             Show_Bit(Source_info,8);  //**
// 1031             HalUARTWrite(0," ",1);
// 1032             Show_Num(Source_info);         //自身码字信息
// 1033             
// 1034             HalUARTWrite(0,"\n->",3);      
// 1035             Peer_info |= Source_info; //码字信息中添加自身的设备ID
// 1036             Show_Bit(Peer_info,8);   //**
// 1037             HalUARTWrite(0," ",1);
// 1038             Show_Num(Peer_info);          //融合后码字信息
// 1039             HalUARTWrite(0,"\n",1);
// 1040           }
??CrossCallReturnLabel_25:
        SJMP    ??SampleApp_MessageMSGCB_19
// 1041           else
// 1042           {
// 1043             HalUARTWrite(0,"未编码.\n",8);
??SampleApp_MessageMSGCB_18:
        ; Setup parameters for call to function HalUARTWrite
        MOV     R4,#0x8
        MOV     R5,#0x0
        MOV     R2,#`?<Constant "\\316\\264\\261\\340\\302\\353.\\n">` & 0xff
        MOV     R3,#(`?<Constant "\\316\\264\\261\\340\\302\\353.\\n">` >> 8) & 0xff
// 1044             
// 1045           }
??SampleApp_MessageMSGCB_19:
        LCALL   ?Subroutine14 & 0xFFFF
// 1046           
// 1047           HalUARTWrite(0,"peer_degree = ",14);
// 1048           Show_Num(Peer_degree);
// 1049           HalUARTWrite(0,"\n\n",2);     
// 1050           DATA_SLOT[Exchange_index].data = Peer_data; //对应位置替换为对方的码字
??CrossCallReturnLabel_27:
        LCALL   ?S_SHL
        LCALL   ?Subroutine22 & 0xFFFF
// 1051           DATA_SLOT[Exchange_index].Degree_ID = Peer_info; //记录码字信息
// 1052           
// 1053           Waiting_Request = FALSE; //关闭等待回复状态
??CrossCallReturnLabel_39:
        MOV     DPTR,#Waiting_Request
        CLR     A
        MOVX    @DPTR,A
// 1054           Exchange_Lock = FALSE; //关闭码字槽的锁
        MOV     DPTR,#Exchange_Lock
        LJMP    ??SampleApp_MessageMSGCB_20 & 0xFFFF
// 1055           
// 1056           /*如果是代理节点就向Sink节点发送一个码字的数据*/
// 1057           
// 1058           
// 1059           
// 1060           
// 1061           
// 1062           
// 1063         }
// 1064         
// 1065         /*在等待对方返回交换数据包的过程中收到其他节点的交换请求*/
// 1066         else if(Waiting_Request && (neighbor_addr_10 != Exchanging_Neighbor) && (pkt->cmd.Data[0] == '*')) 
??SampleApp_MessageMSGCB_12:
        MOV     DPTR,#Waiting_Request
        MOVX    A,@DPTR
        JZ      ??SampleApp_MessageMSGCB_21
        MOV     DPTR,#Exchanging_Neighbor
        MOVX    A,@DPTR
        XRL     A,?V0 + 2
        JNZ     ??SampleApp_MessageMSGCB_22
        INC     DPTR
        MOVX    A,@DPTR
        XRL     A,?V0 + 3
??SampleApp_MessageMSGCB_22:
        JNZ     $+5
        LJMP    ??SampleApp_MessageMSGCB_23 & 0xFFFF
        LCALL   ?Subroutine8 & 0xFFFF
??CrossCallReturnLabel_13:
        JZ      $+5
        LJMP    ??SampleApp_MessageMSGCB_23 & 0xFFFF
// 1067         {
// 1068           /*返回正忙信号 "####" */ 
// 1069           Point_To_Point_DstAddr.addr.shortAddr = neighbor_addr_10;
        MOV     DPTR,#Point_To_Point_DstAddr
        MOV     A,?V0 + 2
        MOVX    @DPTR,A
        INC     DPTR
        MOV     A,?V0 + 3
        LCALL   ??Subroutine70_0 & 0xFFFF
// 1070           if(AF_DataRequest( &Point_To_Point_DstAddr, //点对点通信方式目标地址
// 1071                             &SampleApp_epDesc,
// 1072                             SAMPLEAPP_POINT_TO_POINT_CLUSTERID, //点对点簇ID
// 1073                             4,
// 1074                             BUSY,
// 1075                             &SampleApp_TransID,
// 1076                             AF_DISCV_ROUTE,
// 1077                             AF_DEFAULT_RADIUS )== afStatus_SUCCESS )
??CrossCallReturnLabel_142:
        LCALL   ?PUSH_XSTACK_I_ONE
        CFI CFA_XSP16 add(XSP16, 34)
        MOV     ?V0 + 0,#SampleApp_TransID & 0xff
        MOV     ?V0 + 1,#(SampleApp_TransID >> 8) & 0xff
        MOV     R0,#?V0 + 0
        LCALL   ?PUSH_XSTACK_I_TWO
        CFI CFA_XSP16 add(XSP16, 36)
        MOV     A,#0xc
        LCALL   ?XSTACK_DISP0_8
        MOV     ?V0 + 0,DPL
        MOV     ?V0 + 1,DPH
        MOV     R0,#?V0 + 0
        LCALL   ?PUSH_XSTACK_I_TWO
        CFI CFA_XSP16 add(XSP16, 38)
        MOV     ?V0 + 0,#0x4
        MOV     ?V0 + 1,#0x0
        MOV     R0,#?V0 + 0
        LCALL   ?PUSH_XSTACK_I_TWO
        CFI CFA_XSP16 add(XSP16, 40)
        MOV     R0,#?V0 + 0
        LCALL   ?PUSH_XSTACK_I_TWO
        CFI CFA_XSP16 add(XSP16, 42)
        LCALL   ?Subroutine36 & 0xFFFF
??CrossCallReturnLabel_109:
        LCALL   ?DEALLOC_XSTACK8
        CFI CFA_XSP16 add(XSP16, 33)
        MOV     A,R1
        JZ      $+5
        LJMP    ??SampleApp_MessageMSGCB_23 & 0xFFFF
// 1078           {
// 1079             HalUARTWrite(0,"i am busy!\n",strlen("i am busy!\n"));
        ; Setup parameters for call to function HalUARTWrite
        MOV     R4,#0xb
        MOV     R5,#0x0
        MOV     R2,#`?<Constant "i am busy!\\n">` & 0xff
        MOV     R3,#(`?<Constant "i am busy!\\n">` >> 8) & 0xff
        MOV     R1,#0x0
        LCALL   ??HalUARTWrite?relay
        LJMP    ??SampleApp_MessageMSGCB_23 & 0xFFFF
// 1080           }
// 1081           else
// 1082           {
// 1083           }
// 1084           
// 1085           
// 1086         }
??SampleApp_MessageMSGCB_21:
        MOV     DPTR,#Exchange_Lock
        MOVX    A,@DPTR
        JZ      $+5
        LJMP    ??SampleApp_MessageMSGCB_23 & 0xFFFF
        LCALL   ?Subroutine8 & 0xFFFF
??CrossCallReturnLabel_14:
        JZ      $+5
        LJMP    ??SampleApp_MessageMSGCB_23 & 0xFFFF
// 1087         
// 1088         /*如果收到对方发来的交换数据包请求*/
// 1089         else if(!Waiting_Request && !Exchange_Lock && (pkt->cmd.Data[0] == '*'))
// 1090         {
// 1091           Exchange_Lock = TRUE; //开启码字槽的锁
        MOV     DPTR,#Exchange_Lock
        MOV     A,#0x1
        MOVX    @DPTR,A
// 1092           /*挑选自身随机的数据包发送给对方*/
// 1093           srand((int)osal_getClock());
        ; Setup parameters for call to function srand
        ; Setup parameters for call to function osal_getClock
        LCALL   ?Subroutine38 & 0xFFFF
// 1094           Exchange_index = random(5)+1;//挑选随机交换码字
??CrossCallReturnLabel_105:
        LCALL   ?S_DIV_MOD
        MOV     A,R2
        INC     A
        MOV     DPTR,#Exchange_index
        MOVX    @DPTR,A
// 1095           Self_data = DATA_SLOT[Exchange_index].data; //即将交换的码字
        MOV     ?V0 + 0,A
        MOV     ?V0 + 1,#0x0
        MOV     A,#0x2
        MOV     R0,#?V0 + 0
        LCALL   ?S_SHL
        LCALL   ?Subroutine23 & 0xFFFF
??CrossCallReturnLabel_42:
        MOV     ?V0 + 0,A
// 1096           Self_info = DATA_SLOT[Exchange_index].Degree_ID; //码字信息
        INC     DPTR
        INC     DPTR
        MOVX    A,@DPTR
        MOV     ?V0 + 4,A
        INC     DPTR
        MOVX    A,@DPTR
        MOV     ?V0 + 5,A
// 1097           degree_low = (uint8)Self_info;
        MOV     A,?V0 + 4
        MOV     ?V0 + 1,A
// 1098           degree_high = (uint8)(Self_info>>8);  //此处不加括号会出错
// 1099           
// 1100           //发送
// 1101           uint8 _DATA[4] = {'$', Self_data, degree_high, degree_low};
        MOV     A,#0x1
        LCALL   ?XSTACK_DISP0_8
        MOV     R4,DPL
        MOV     R5,DPH
        MOV     DPH,#(`?<Constant {36, 0, 0, 0}>` >> 8) & 0xff
        MOV     DPL,#`?<Constant {36, 0, 0, 0}>` & 0xff
        MOV     A,#0x4
        LCALL   ?MOVE_LONG8_XDATA_XDATA
        MOV     A,#0x2
        LCALL   ?XSTACK_DISP0_8
        MOV     A,?V0 + 0
        MOVX    @DPTR,A
        MOV     A,#0x8
        MOV     R0,#?V0 + 4
        LCALL   ?SS_SHR
        MOV     A,#0x3
        LCALL   ?XSTACK_DISP0_8
        MOV     A,?V0 + 4
        MOVX    @DPTR,A
        MOV     A,#0x4
        LCALL   ?XSTACK_DISP0_8
        MOV     A,?V0 + 1
        MOVX    @DPTR,A
// 1102           Point_To_Point_DstAddr.addr.shortAddr = neighbor_addr_10;
        MOV     DPTR,#Point_To_Point_DstAddr
        MOV     A,?V0 + 2
        MOVX    @DPTR,A
        INC     DPTR
        MOV     A,?V0 + 3
        MOVX    @DPTR,A
// 1103           if(AF_DataRequest( &Point_To_Point_DstAddr, //点对点通信方式目标地址
// 1104                             &SampleApp_epDesc,
// 1105                             SAMPLEAPP_POINT_TO_POINT_CLUSTERID, //点对点簇ID
// 1106                             4,
// 1107                             _DATA,
// 1108                             &SampleApp_TransID,
// 1109                             AF_DISCV_ROUTE,
// 1110                             AF_DEFAULT_RADIUS )== afStatus_SUCCESS )
        ; Setup parameters for call to function AF_DataRequest
        MOV     ?V0 + 2,#0x1e
        MOV     R0,#?V0 + 2
        LCALL   ?PUSH_XSTACK_I_ONE
        CFI CFA_XSP16 add(XSP16, 34)
        MOV     ?V0 + 2,#SampleApp_TransID & 0xff
        MOV     ?V0 + 3,#(SampleApp_TransID >> 8) & 0xff
        MOV     R0,#?V0 + 2
        LCALL   ?PUSH_XSTACK_I_TWO
        CFI CFA_XSP16 add(XSP16, 36)
        MOV     A,#0x4
        LCALL   ?XSTACK_DISP0_8
        MOV     ?V0 + 2,DPL
        MOV     ?V0 + 3,DPH
        MOV     R0,#?V0 + 2
        LCALL   ?PUSH_XSTACK_I_TWO
        CFI CFA_XSP16 add(XSP16, 38)
        MOV     ?V0 + 2,#0x4
        MOV     ?V0 + 3,#0x0
        MOV     R0,#?V0 + 2
        LCALL   ?PUSH_XSTACK_I_TWO
        CFI CFA_XSP16 add(XSP16, 40)
        MOV     R0,#?V0 + 2
        LCALL   ?PUSH_XSTACK_I_TWO
        CFI CFA_XSP16 add(XSP16, 42)
        LCALL   ?Subroutine36 & 0xFFFF
??CrossCallReturnLabel_110:
        LCALL   ?DEALLOC_XSTACK8
        CFI CFA_XSP16 add(XSP16, 33)
        MOV     A,R1
        JNZ     ??SampleApp_MessageMSGCB_24
// 1111           {
// 1112             HalUARTWrite(0,"send back $",11);
        ; Setup parameters for call to function HalUARTWrite
        MOV     R4,#0xb
        MOV     R5,#0x0
        MOV     R2,#`?<Constant "send back $">` & 0xff
        MOV     R3,#(`?<Constant "send back $">` >> 8) & 0xff
        LCALL   ??Subroutine71_0 & 0xFFFF
// 1113             Show_Bit(Self_data,8);
// 1114             HalUARTWrite(0," ",1);
// 1115             //        Show_Bit(degree_high,8);
// 1116             //        HalUARTWrite(0," ",1);
// 1117             Show_Bit(degree_low,8);
// 1118             HalUARTWrite(0,"\n",1);
// 1119           }
??CrossCallReturnLabel_146:
        MOV     ?V0 + 2,?V0 + 0
        MOV     R2,?V0 + 2
        LCALL   ?Subroutine20 & 0xFFFF
??CrossCallReturnLabel_143:
        MOV     A,?V0 + 1
        MOV     R2,A
        RLC     A
        SUBB    A,0xE0 /* A   */
        MOV     R3,A
        LCALL   ?Subroutine56 & 0xFFFF
??CrossCallReturnLabel_85:
        SJMP    ??SampleApp_MessageMSGCB_25
// 1120           else
// 1121           {
// 1122             HalUARTWrite(0,"failed to send back\n",20);
??SampleApp_MessageMSGCB_24:
        ; Setup parameters for call to function HalUARTWrite
        MOV     R4,#0x14
        MOV     R5,#0x0
        MOV     R2,#`?<Constant "failed to send back\\n">` & 0xff
        MOV     R3,#(`?<Constant "failed to send back\\n">` >> 8) & 0xff
// 1123           }
??SampleApp_MessageMSGCB_25:
        LCALL   ?Subroutine21 & 0xFFFF
// 1124           
// 1125           /*将对方发来的数据包和自身随机挑选的数据包编码 <先判断是否需要编码> */
// 1126           Peer_data = pkt->cmd.Data[1]; //对方发来的数据
??CrossCallReturnLabel_38:
        MOV     DPL,?V0 + 0
        MOV     DPH,A
        LCALL   ?Subroutine27 & 0xFFFF
// 1127           Peer_info = pkt->cmd.Data[3];
// 1128           Peer_info |= pkt->cmd.Data[2]*256; //对方码字信息
// 1129           //查看发来的数据包的度
// 1130           uint8 Peer_degree = 0;
// 1131           uint8 Self_included = FALSE;
// 1132           for(short k=0;k<16;++k)
// 1133           {
// 1134             if(Power_of_2(k) & Peer_info)
??CrossCallReturnLabel_49:
        ; Setup parameters for call to function Power_of_2
        LCALL   ?Subroutine37 & 0xFFFF
??CrossCallReturnLabel_63:
        JZ      ??SampleApp_MessageMSGCB_26
// 1135             {
// 1136               ++Peer_degree;
        INC     ?V0 + 4
// 1137               if(k == Device_ID)
        MOV     DPTR,#Device_ID
        MOVX    A,@DPTR
        XRL     A,?V0 + 0
        JNZ     ??SampleApp_MessageMSGCB_27
        MOV     A,?V0 + 1
??SampleApp_MessageMSGCB_27:
        JNZ     ??SampleApp_MessageMSGCB_26
// 1138               {
// 1139                 Self_included = TRUE; //码字包含自身的节点数据包
        MOV     ?V0 + 2,#0x1
// 1140                 HalUARTWrite(0,"包含自身信息",12);
        ; Setup parameters for call to function HalUARTWrite
        MOV     R4,#0xc
        MOV     R5,#0x0
        MOV     R2,#`?<Constant "\\260\\374\\272\\254\\327\\324\\311\\355\\3` & 0xff
        MOV     R3,#(`?<Constant "\\260\\374\\272\\254\\327\\324\\311\\355\\3` >> 8) & 0xff
        MOV     R1,#0x0
        LCALL   ??HalUARTWrite?relay
// 1141               }
// 1142               
// 1143             }
// 1144           }
??SampleApp_MessageMSGCB_26:
        LCALL   ?Subroutine6 & 0xFFFF
??CrossCallReturnLabel_12:
        JC      ??CrossCallReturnLabel_49
// 1145           if(Peer_degree>=MAX_Degree)
        LCALL   ?Subroutine28 & 0xFFFF
??CrossCallReturnLabel_133:
        JC      ??SampleApp_MessageMSGCB_28
// 1146           {
// 1147             if(Self_included)
        MOV     A,?V0 + 2
        MOV     C,0xE0 /* A   */.0
        JNC     ??SampleApp_MessageMSGCB_29
// 1148               HalUARTWrite(0,"且",2);
        ; Setup parameters for call to function HalUARTWrite
        MOV     R4,#0x2
        MOV     R5,#0x0
        MOV     R2,#`?<Constant "\\307\\322">` & 0xff
        MOV     R3,#(`?<Constant "\\307\\322">` >> 8) & 0xff
        MOV     R1,#0x0
        LCALL   ??HalUARTWrite?relay
// 1149             HalUARTWrite(0,"已达最大度,",11);
??SampleApp_MessageMSGCB_29:
        ; Setup parameters for call to function HalUARTWrite
        MOV     R4,#0xb
        MOV     R5,#0x0
        MOV     R2,#`?<Constant "\\322\\321\\264\\357\\327\\356\\264\\363\\2` & 0xff
        MOV     R3,#(`?<Constant "\\322\\321\\264\\357\\327\\356\\264\\363\\2` >> 8) & 0xff
        SJMP    ??SampleApp_MessageMSGCB_30
// 1150           }
// 1151           else
// 1152           {
// 1153             HalUARTWrite(0,",",1);
??SampleApp_MessageMSGCB_28:
        ; Setup parameters for call to function HalUARTWrite
        MOV     R4,#0x1
        MOV     R5,#0x0
        MOV     R2,#`?<Constant ",">` & 0xff
        MOV     R3,#(`?<Constant ",">` >> 8) & 0xff
??SampleApp_MessageMSGCB_30:
        MOV     R1,#0x0
        LCALL   ??HalUARTWrite?relay
// 1154           }
// 1155           //判断是否符合编码条件,不包含自身的数据包,且度不大于最大允许的度
// 1156           if( !Self_included && (Peer_degree < MAX_Degree) )
        MOV     A,?V0 + 2
        MOV     C,0xE0 /* A   */.0
        JC      ??SampleApp_MessageMSGCB_31
        LCALL   ??Subroutine69_0 & 0xFFFF
??CrossCallReturnLabel_131:
        JNC     ??SampleApp_MessageMSGCB_31
// 1157           {
// 1158             HalUARTWrite(0,"encoding...\n^^",14);
        ; Setup parameters for call to function HalUARTWrite
        LCALL   ?Subroutine13 & 0xFFFF
// 1159             //          Show_Bit(Peer_data,8);          //对方数据
// 1160             //          HalUARTWrite(0,"\n^^",3);
// 1161             //          Show_Bit(DATA_SLOT[0].data,8);  //自身数据
// 1162             //          
// 1163             //          HalUARTWrite(0,"\n->",3);
// 1164             //          Peer_data ^= DATA_SLOT[0].data; //异或编码
// 1165             //          
// 1166             //          Show_Bit(Peer_data, 8);         //编码后数据
// 1167             
// 1168             HalUARTWrite(0,"\n||",3);
// 1169             Show_Bit(Peer_info,8);
// 1170             HalUARTWrite(0," ",1);
// 1171             Show_Num(Peer_info);          //对方码字信息
// 1172             
// 1173             HalUARTWrite(0,"\n||",3);
// 1174             Show_Bit(Source_info,8);  //**
// 1175             HalUARTWrite(0," ",1);
// 1176             Show_Num(Source_info);         //自身码字信息
// 1177             
// 1178             HalUARTWrite(0,"\n->",3);      
// 1179             Peer_info |= Source_info; //码字信息中添加自身的设备ID
// 1180             Show_Bit(Peer_info,8);   //**
// 1181             HalUARTWrite(0," ",1);
// 1182             Show_Num(Peer_info);          //融合后码字信息
// 1183             HalUARTWrite(0,"\n",1);
// 1184           }
??CrossCallReturnLabel_26:
        SJMP    ??SampleApp_MessageMSGCB_32
// 1185           else
// 1186           {
// 1187             HalUARTWrite(0,"未编码.\n",8);
??SampleApp_MessageMSGCB_31:
        ; Setup parameters for call to function HalUARTWrite
        MOV     R4,#0x8
        MOV     R5,#0x0
        MOV     R2,#`?<Constant "\\316\\264\\261\\340\\302\\353.\\n">` & 0xff
        MOV     R3,#(`?<Constant "\\316\\264\\261\\340\\302\\353.\\n">` >> 8) & 0xff
// 1188             
// 1189           }
??SampleApp_MessageMSGCB_32:
        LCALL   ?Subroutine14 & 0xFFFF
// 1190           
// 1191           HalUARTWrite(0,"peer_degree = ",14);
// 1192           Show_Num(Peer_degree);
// 1193           HalUARTWrite(0,"\n\n",2);
// 1194           DATA_SLOT[Exchange_index].data = Peer_data; //对应位置替换为对方的码字
??CrossCallReturnLabel_28:
        LCALL   ?S_SHL
        LCALL   ?Subroutine22 & 0xFFFF
// 1195           DATA_SLOT[Exchange_index].Degree_ID = Peer_info; //记录码字信息
// 1196           
// 1197           Exchange_Lock = FALSE; //关闭码字槽的锁
??CrossCallReturnLabel_40:
        MOV     DPTR,#Exchange_Lock
        CLR     A
??SampleApp_MessageMSGCB_20:
        MOVX    @DPTR,A
// 1198         }
// 1199         
// 1200         
// 1201         
// 1202         HalLedBlink( HAL_LED_2, 2, 60, (flashTime / 6) ); //二号灯闪烁,两次,亮度60%,时间间隔0.125s
??SampleApp_MessageMSGCB_23:
        ; Setup parameters for call to function HalLedBlink
        MOV     R4,#-0x5a
        MOV     R5,#0x0
        MOV     R3,#0x3c
        MOV     R2,#0x2
        MOV     R1,#0x2
        LJMP    ??SampleApp_MessageMSGCB_8 & 0xFFFF
// 1203       }
// 1204     }
// 1205     break;
// 1206     
// 1207     
// 1208     
// 1209     /******************************************************************************************************
// 1210     收到组播消息 (路由更新)
// 1211     *******************************************************************************************************/
// 1212   case SAMPLEAPP_FLASH_CLUSTERID:
// 1213     
// 1214     for(int i=0;i<NEI_NUM;++i)
??SampleApp_MessageMSGCB_1:
        MOV     ?V0 + 6,#0x0
        MOV     ?V0 + 7,#0x0
        LJMP    ??SampleApp_MessageMSGCB_33 & 0xFFFF
// 1215     {
// 1216       if(ACTIVE[i]-- <= 0)
??SampleApp_MessageMSGCB_34:
        MOV     A,?V0 + 6
        CLR     C
        RLC     A
        MOV     R6,A
        MOV     A,?V0 + 7
        RLC     A
        MOV     R7,A
        MOV     A,#ACTIVE & 0xff
        ADD     A,R6
        MOV     R0,A
        MOV     A,#(ACTIVE >> 8) & 0xff
        ADDC    A,R7
        LCALL   ?Subroutine32 & 0xFFFF
??CrossCallReturnLabel_122:
        MOV     A,R2
        ADD     A,#-0x1
        MOV     R4,A
        MOV     A,R3
        ADDC    A,#-0x1
        MOV     R5,A
        MOV     DPL,R0
        MOV     DPH,R1
        MOV     A,R4
        MOVX    @DPTR,A
        INC     DPTR
        MOV     A,R5
        MOVX    @DPTR,A
        MOV     A,R2
        ORL     A,R3
        JNZ     ??SampleApp_MessageMSGCB_35
// 1217       {
// 1218         Reset_down_neighbor(Nei_Table[i]); //给掉线邻居发送设备重置信号
        MOV     A,#Nei_Table & 0xff
        ADD     A,R6
        MOV     ?V0 + 4,A
        MOV     A,#(Nei_Table >> 8) & 0xff
        ADDC    A,R7
        MOV     ?V0 + 5,A
        ; Setup parameters for call to function Reset_down_neighbor
        MOV     DPL,?V0 + 4
        MOV     DPH,A
        LCALL   ??Subroutine67_0 & 0xFFFF
??CrossCallReturnLabel_121:
        LCALL   ??Reset_down_neighbor?relay
// 1219         Nei_Table[i] = Nei_Table[NEI_NUM-1];
        LCALL   ?Subroutine52 & 0xFFFF
??CrossCallReturnLabel_78:
        MOV     A,R0
        CLR     C
        RLC     A
        MOV     R0,A
        MOV     A,R1
        RLC     A
        MOV     R1,A
        MOV     A,#(Nei_Table + 254) & 0xff
        ADD     A,R0
        MOV     R2,A
        MOV     A,#((Nei_Table - 2) >> 8) & 0xff
        ADDC    A,R1
        MOV     R3,A
        MOV     DPL,R2
        MOV     DPH,R3
        MOVX    A,@DPTR
        MOV     R4,A
        INC     DPTR
        MOVX    A,@DPTR
        MOV     R5,A
        MOV     DPL,?V0 + 4
        MOV     DPH,?V0 + 5
        MOV     A,R4
        MOVX    @DPTR,A
        INC     DPTR
        MOV     A,R5
        MOVX    @DPTR,A
// 1220         Nei_Table[NEI_NUM-1] = (int16)65534;
        MOV     DPL,R2
        MOV     DPH,R3
        MOV     A,#-0x2
        MOVX    @DPTR,A
        INC     DPTR
        INC     A
        MOVX    @DPTR,A
// 1221         ACTIVE[i] = ACTIVE[NEI_NUM-1];
        MOV     A,#(ACTIVE + 254) & 0xff
        ADD     A,R0
        MOV     R0,A
        MOV     A,#((ACTIVE - 2) >> 8) & 0xff
        ADDC    A,R1
        LCALL   ?Subroutine32 & 0xFFFF
??CrossCallReturnLabel_123:
        MOV     A,#ACTIVE & 0xff
        ADD     A,R6
        MOV     DPL,A
        MOV     A,#(ACTIVE >> 8) & 0xff
        ADDC    A,R7
        MOV     DPH,A
        MOV     A,R2
        MOVX    @DPTR,A
        INC     DPTR
        MOV     A,R3
        MOVX    @DPTR,A
// 1222         ACTIVE[NEI_NUM-1] = LIFE_TIME;
        LCALL   ?Subroutine33 & 0xFFFF
??CrossCallReturnLabel_117:
        MOV     DPL,R0
        MOV     DPH,R1
        MOV     A,R2
        MOVX    @DPTR,A
        INC     DPTR
        MOV     A,R3
        MOVX    @DPTR,A
// 1223         LOST_nei++;
        INC     ?V0 + 0
// 1224       }
// 1225     }
??SampleApp_MessageMSGCB_35:
        MOV     A,?V0 + 6
        ADD     A,#0x1
        MOV     ?V0 + 6,A
        MOV     A,?V0 + 7
        ADDC    A,#0x0
        MOV     ?V0 + 7,A
??SampleApp_MessageMSGCB_33:
        LCALL   ?Subroutine52 & 0xFFFF
??CrossCallReturnLabel_79:
        CLR     C
        MOV     A,?V0 + 6
        SUBB    A,R0
        MOV     A,?V0 + 7
        SUBB    A,R1
        MOV     C,0xD0 /* PSW */.2
        XRL     A,PSW
        RLC     A
        JNC     $+5
        LJMP    ??SampleApp_MessageMSGCB_34 & 0xFFFF
// 1226     
// 1227     NEI_NUM -= LOST_nei;  //邻居个数减少
        MOV     R0,?V0 + 0
        MOVX    A,@DPTR
        CLR     C
        SUBB    A,R0
        MOVX    @DPTR,A
// 1228     
// 1229     
// 1230     
// 1231     for(int i=0;i<3;++i)
        MOV     R0,#0x0
        MOV     R1,#0x0
// 1232     {
// 1233       //邻居表中有该路由
// 1234       if(Nei_Table[i]==neighbor_addr_10)
??SampleApp_MessageMSGCB_36:
        LCALL   ?Subroutine41 & 0xFFFF
??CrossCallReturnLabel_68:
        XRL     A,?V0 + 2
        JNZ     ??SampleApp_MessageMSGCB_37
        INC     DPTR
        MOVX    A,@DPTR
        XRL     A,?V0 + 3
??SampleApp_MessageMSGCB_37:
        JNZ     ??SampleApp_MessageMSGCB_38
// 1235       {
// 1236         ACTIVE[i] = LIFE_TIME; //收到该邻居信息,更新存活时间
        LCALL   ?Subroutine33 & 0xFFFF
??CrossCallReturnLabel_118:
        MOV     A,R0
        CLR     C
        RLC     A
        MOV     R0,A
        MOV     A,R1
        RLC     A
        MOV     R1,A
        LCALL   ?Subroutine12 & 0xFFFF
??CrossCallReturnLabel_24:
        MOV     A,R2
        MOVX    @DPTR,A
        INC     DPTR
        MOV     A,R3
        MOVX    @DPTR,A
// 1237         break;
        SJMP    ??SampleApp_MessageMSGCB_39
// 1238       }
// 1239       
// 1240       //其他合法路由
// 1241       else if((Nei_Table[i]!=(int16)65534) && (Nei_Table[i]!=neighbor_addr_10))
??SampleApp_MessageMSGCB_38:
        LCALL   ?Subroutine41 & 0xFFFF
??CrossCallReturnLabel_69:
        XRL     A,#0xfe
        JNZ     ??SampleApp_MessageMSGCB_40
        INC     DPTR
        MOVX    A,@DPTR
        CPL     A
??SampleApp_MessageMSGCB_40:
        JZ      ??SampleApp_MessageMSGCB_41
        MOV     A,R0
        ADD     A,#0x1
        INC     R0
        MOV     A,R1
        ADDC    A,#0x0
        MOV     R1,A
        CLR     C
        MOV     A,R0
        SUBB    A,#0x3
        MOV     A,R1
        LCALL   ??Subroutine72_0 & 0xFFFF
??CrossCallReturnLabel_149:
        JNC     ??SampleApp_MessageMSGCB_39
        SJMP    ??SampleApp_MessageMSGCB_36
// 1242         continue;
// 1243       
// 1244       //添加路由
// 1245       else
// 1246       {
// 1247         Nei_Table[i]=neighbor_addr_10;
??SampleApp_MessageMSGCB_41:
        MOV     A,R0
        CLR     C
        RLC     A
        MOV     R0,A
        MOV     A,R1
        LCALL   ?Subroutine45 & 0xFFFF
??CrossCallReturnLabel_102:
        MOV     A,?V0 + 2
        MOVX    @DPTR,A
        INC     DPTR
        MOV     A,?V0 + 3
        MOVX    @DPTR,A
// 1248         NEI_NUM++;
        MOV     DPTR,#NEI_NUM
        MOVX    A,@DPTR
        INC     A
        MOVX    @DPTR,A
// 1249         
// 1250         //输出邻居的活跃点数
// 1251         HalUARTWrite(0,"\n------------\n",14);
        ; Setup parameters for call to function HalUARTWrite
        LCALL   ?Subroutine17 & 0xFFFF
// 1252         HalUARTWrite(0,"active: ",strlen("active: "));
// 1253         for (int j=0;j<NEI_NUM;++j)
??CrossCallReturnLabel_33:
        SJMP    ??CrossCallReturnLabel_0
// 1254         {
// 1255           active = '0' + ACTIVE[j];
??SampleApp_MessageMSGCB_42:
        LCALL   ?Subroutine2 & 0xFFFF
// 1256           HalUARTWrite(0,&active,1);
// 1257           HalUARTWrite(0," ",1);
